gplink-1.5.0 #1284 (Oct 14 2022)
Copyright (c) 1998-2016 gputils project
Listing File Generated: 05/15/25  15:35:49


Address  Value    Disassembly              Source
-------  -----    -----------              ------
                                           ;--------------------------------------------------------
                                           ; File Created by SDCC : free open source ANSI-C Compiler
                                           ; Version 3.6.0 #9615 (CYGWIN)
                                           ;--------------------------------------------------------
                                           ; PIC port for the 14-bit core
                                           ;--------------------------------------------------------
                                           ;	.file	"delay.c"
                                           	list	p=18p018a0
                                           	radix dec
                                           	include "p18p018a0.inc"
                                                  LIST

                                           ;==========================================================================
                                           ; Build date : Jun 02 2017
                                           ;  HCIDE HC18P018A0 processor include
                                           ; 
                                           ;  (c) Copyright 2012-2021 Holychip Technology, All rights reserved
                                           ;==========================================================================

                                                   NOLIST
                                           ;--------------------------------------------------------
                                           ; external declarations
                                           ;--------------------------------------------------------
                                           	extern	_STATUSbits
                                           	extern	_PORTBbits
                                           	extern	_PCONbits
                                           	extern	_IOCBbits
                                           	extern	_PDCONbits
                                           	extern	_ODCONbits
                                           	extern	_PHCONbits
                                           	extern	_INTECONbits
                                           	extern	_INTFLAGbits
                                           	extern	_OPTIONbits
                                           	extern	_TRISBbits
                                           	extern	_PWMCONbits
                                           	extern	_T0CRbits
                                           	extern	_T1CONbits
                                           	extern	_OSCCONbits
                                           	extern	_CMPCRbits
                                           	extern	_PDCON1bits
                                           	extern	_CHARGE0bits
                                           	extern	_CHARGE1bits
                                           	extern	_RAMPbits
                                           	extern	_AUXRbits
                                           	extern	_INDF
                                           	extern	_T0
                                           	extern	_PCL
                                           	extern	_STATUS
                                           	extern	_FSR
                                           	extern	_PORTB
                                           	extern	_GPR
                                           	extern	_PCON
                                           	extern	_IOCB
                                           	extern	_PCLATH
                                           	extern	_PDCON
                                           	extern	_ODCON
                                           	extern	_PHCON
                                           	extern	_INTECON
                                           	extern	_INTFLAG
                                           	extern	_OPTION
                                           	extern	_TRISB
                                           	extern	_PWMCON
                                           	extern	_PWM1P
                                           	extern	_PWM2P
                                           	extern	_T0CR
                                           	extern	_T1CON
                                           	extern	_T1
                                           	extern	_T1LOAD
                                           	extern	_PWM0P
                                           	extern	_OSCCON
                                           	extern	_CMPCR
                                           	extern	_PDCON1
                                           	extern	_CHARGE0
                                           	extern	_CHARGE1
                                           	extern	_RAMP
                                           	extern	_AUXR
                                           	extern	_HIRCTRM

                                           	extern PSAVE
                                           	extern SSAVE
                                           	extern WSAVE
                                           	extern STK12
                                           	extern STK11
                                           	extern STK10
                                           	extern STK09
                                           	extern STK08
                                           	extern STK07
                                           	extern STK06
                                           	extern STK05
                                           	extern STK04
                                           	extern STK03
                                           	extern STK02
                                           	extern STK01
                                           	extern STK00
                                           ;--------------------------------------------------------
                                           ; global declarations
                                           ;--------------------------------------------------------
                                           	global	_DelayMs

                                           ;--------------------------------------------------------
                                           ; global definitions
                                           ;--------------------------------------------------------
                                           ;--------------------------------------------------------
                                           ; absolute symbol definitions
                                           ;--------------------------------------------------------
                                           ;--------------------------------------------------------
                                           ; compiler-defined variables
                                           ;--------------------------------------------------------
                                           UDL_delay_0	udata
                                           r0x1000	res	1
                                           r0x1001	res	1
                                           ;--------------------------------------------------------
                                           ; initialized data
                                           ;--------------------------------------------------------
                                           ;--------------------------------------------------------
                                           ; overlayable items in internal ram 
                                           ;--------------------------------------------------------
                                           ;	udata_ovr
                                           ;--------------------------------------------------------
                                           ; code
                                           ;--------------------------------------------------------
                                           code_delay	code
                                           ;***
                                           ;  pBlock Stats: dbName = C
                                           ;***
                                           ;has an exit
                                           ;2 compiler assigned registers:
                                           ;   r0x1000
                                           ;   r0x1001
                                           ;; Starting pCode block
                                           ;;[ICODE] delay.c:8:  _entry($5) :
                                           ;;[ICODE] delay.c:8: 	proc _DelayMs [k1 lr0:0 so:0]{ ia0 a2p0 re0 rm0 nos0 ru0 dp0}{void function ( ) fixed}
                                           S_delay__DelayMs	code
                                           _DelayMs:
                                           ; 2 exit points
                                           ;;[ICODE] delay.c:11: 	iTemp2 [k5 lr3:8 so:0]{ ia0 a2p0 re0 rm0 nos0 ru0 dp0}{unsigned-char fixed}{ sir@ _DelayMs_byTimer_1_1}[r0x1045 ] := 0xfa {const-unsigned-char literal}
                                           ;	.line	11; "delay.c"	while(byTimer--)   //1ms
000271   04fa     movlw   0xfa             	MOVLW	0xfa
000272   19a4     movwf   0x24             	MOVWF	r0x1000
                                           ;;[ICODE] delay.c:11:  _whilecontinue_0($1) :
                                           ;;[ICODE] delay.c:11: 	iTemp1 [k4 lr6:8 so:0]{ ia0 a2p0 re0 rm0 nos1 ru0 dp0}{unsigned-char fixed}[r0x1046 ] := iTemp2 [k5 lr3:8 so:0]{ ia0 a2p0 re0 rm0 nos0 ru0 dp0}{unsigned-char fixed}{ sir@ _DelayMs_byTimer_1_1}[r0x1045 ]
                                           _00105_DS_:
000273   1124     movf    0x24, 0x0        	MOVF	r0x1000,W
000274   19a5     movwf   0x25             	MOVWF	r0x1001
                                           ;;[ICODE] delay.c:11: 	iTemp2 [k5 lr3:8 so:0]{ ia0 a2p0 re0 rm0 nos0 ru0 dp0}{unsigned-char fixed}{ sir@ _DelayMs_byTimer_1_1}[r0x1045 ] = iTemp2 [k5 lr3:8 so:0]{ ia0 a2p0 re0 rm0 nos0 ru0 dp0}{unsigned-char fixed}{ sir@ _DelayMs_byTimer_1_1}[r0x1045 ] - 0x1 {const-unsigned-char literal}
000275   1aa4     decf    0x24, 0x1        	DECF	r0x1000,F
                                           ;;[ICODE] delay.c:11: 	if iTemp1 [k4 lr6:8 so:0]{ ia0 a2p0 re0 rm0 nos1 ru0 dp0}{unsigned-char fixed}[r0x1046 ] != 0 goto _whilecontinue_0($1)
000276   1125     movf    0x25, 0x0        	MOVF	r0x1001,W
000277   3103     btfss   0x03, 0x2        	BTFSS	STATUS,2
000278   2273     goto    0x0273           	GOTO	_00105_DS_
                                           ;;[ICODE] delay.c:11:  _return($4) :
                                           ;;[ICODE] delay.c:11: 	eproc _DelayMs [k1 lr0:0 so:0]{ ia0 a2p0 re0 rm0 nos0 ru0 dp0}{void function ( ) fixed}
000279   0002     return                   	RETURN	
                                           ; exit point of _DelayMs


                                           ;	code size estimation:
                                           ;	    9+    0 =     9 instructions (   18 byte)

                                           	end
                                           ;--------------------------------------------------------
                                           ; File Created by SDCC : free open source ANSI-C Compiler
                                           ; Version 3.6.0 #9615 (CYGWIN)
                                           ;--------------------------------------------------------
                                           ; PIC port for the 14-bit core
                                           ;--------------------------------------------------------
                                           ;	.file	"function.c"
                                           	list	p=18p018a0
                                           	radix dec
                                           	include "p18p018a0.inc"
                                                  LIST

                                           ;==========================================================================
                                           ; Build date : Jun 02 2017
                                           ;  HCIDE HC18P018A0 processor include
                                           ; 
                                           ;  (c) Copyright 2012-2021 Holychip Technology, All rights reserved
                                           ;==========================================================================

                                                   NOLIST
                                           ;--------------------------------------------------------
                                           ; external declarations
                                           ;--------------------------------------------------------
                                           	extern	_ScanKey
                                           	extern	_STATUSbits
                                           	extern	_PORTBbits
                                           	extern	_PCONbits
                                           	extern	_IOCBbits
                                           	extern	_PDCONbits
                                           	extern	_ODCONbits
                                           	extern	_PHCONbits
                                           	extern	_INTECONbits
                                           	extern	_INTFLAGbits
                                           	extern	_OPTIONbits
                                           	extern	_TRISBbits
                                           	extern	_PWMCONbits
                                           	extern	_T0CRbits
                                           	extern	_T1CONbits
                                           	extern	_OSCCONbits
                                           	extern	_CMPCRbits
                                           	extern	_PDCON1bits
                                           	extern	_CHARGE0bits
                                           	extern	_CHARGE1bits
                                           	extern	_RAMPbits
                                           	extern	_AUXRbits
                                           	extern	_BITS_DATA0
                                           	extern	_BITS_DATA1
                                           	extern	_g_ucTimer10msCount
                                           	extern	_g_ucTimerWorkCount
                                           	extern	_TempCount
                                           	extern	_TempFlag
                                           	extern	_SleepCount
                                           	extern	_SleepFlag
                                           	extern	_MaxLight
                                           	extern	_INDF
                                           	extern	_T0
                                           	extern	_PCL
                                           	extern	_STATUS
                                           	extern	_FSR
                                           	extern	_PORTB
                                           	extern	_GPR
                                           	extern	_PCON
                                           	extern	_IOCB
                                           	extern	_PCLATH
                                           	extern	_PDCON
                                           	extern	_ODCON
                                           	extern	_PHCON
                                           	extern	_INTECON
                                           	extern	_INTFLAG
                                           	extern	_OPTION
                                           	extern	_TRISB
                                           	extern	_PWMCON
                                           	extern	_PWM1P
                                           	extern	_PWM2P
                                           	extern	_T0CR
                                           	extern	_T1CON
                                           	extern	_T1
                                           	extern	_T1LOAD
                                           	extern	_PWM0P
                                           	extern	_OSCCON
                                           	extern	_CMPCR
                                           	extern	_PDCON1
                                           	extern	_CHARGE0
                                           	extern	_CHARGE1
                                           	extern	_RAMP
                                           	extern	_AUXR
                                           	extern	_HIRCTRM

                                           	extern PSAVE
                                           	extern SSAVE
                                           	extern WSAVE
                                           	extern STK12
                                           	extern STK11
                                           	extern STK10
                                           	extern STK09
                                           	extern STK08
                                           	extern STK07
                                           	extern STK06
                                           	extern STK05
                                           	extern STK04
                                           	extern STK03
                                           	extern STK02
                                           	extern STK01
                                           	extern STK00
                                           ;--------------------------------------------------------
                                           ; global declarations
                                           ;--------------------------------------------------------
                                           	global	_ControlSos
                                           	global	_ControlFlash
                                           	global	_ControlLevel
                                           	global	_ControlLevelHigh
                                           	global	_ControlLevelLow

                                           ;--------------------------------------------------------
                                           ; global definitions
                                           ;--------------------------------------------------------
                                           ;--------------------------------------------------------
                                           ; absolute symbol definitions
                                           ;--------------------------------------------------------
                                           ;--------------------------------------------------------
                                           ; compiler-defined variables
                                           ;--------------------------------------------------------
                                           UDL_function_0	udata
                                           r0x1002	res	1
                                           r0x1003	res	1
                                           r0x1004	res	1
                                           ;--------------------------------------------------------
                                           ; initialized data
                                           ;--------------------------------------------------------
                                           ;--------------------------------------------------------
                                           ; overlayable items in internal ram 
                                           ;--------------------------------------------------------
                                           ;	udata_ovr
                                           ;--------------------------------------------------------
                                           ; code
                                           ;--------------------------------------------------------
                                           code_function	code
                                           ;***
                                           ;  pBlock Stats: dbName = C
                                           ;***
                                           ;has an exit
                                           ;; Starting pCode block
                                           ;;[ICODE] function.c:103:  _entry($2) :
                                           ;;[ICODE] function.c:103: 	proc _ControlSos [k1 lr0:0 so:0]{ ia0 a2p0 re0 rm0 nos0 ru0 dp0}{void function ( ) fixed}
                                           S_function__ControlSos	code
                                           _ControlSos:
                                           ; 2 exit points
                                           ;;[ICODE] function.c:171:  _return($1) :
                                           ;;[ICODE] function.c:171: 	eproc _ControlSos [k1 lr0:0 so:0]{ ia0 a2p0 re0 rm0 nos0 ru0 dp0}{void function ( ) fixed}
                                           ;	.line	171; "function.c"	}
0002a6   0002     return                   	RETURN	
                                           ; exit point of _ControlSos

                                           ;***
                                           ;  pBlock Stats: dbName = C
                                           ;***
                                           ;has an exit
                                           ;; Starting pCode block
                                           ;;[ICODE] function.c:39:  _entry($2) :
                                           ;;[ICODE] function.c:39: 	proc _ControlFlash [k1 lr0:0 so:0]{ ia0 a2p0 re0 rm0 nos0 ru0 dp0}{void function ( ) fixed}
                                           S_function__ControlFlash	code
                                           _ControlFlash:
                                           ; 2 exit points
                                           ;;[ICODE] function.c:101:  _return($1) :
                                           ;;[ICODE] function.c:101: 	eproc _ControlFlash [k1 lr0:0 so:0]{ ia0 a2p0 re0 rm0 nos0 ru0 dp0}{void function ( ) fixed}
                                           ;	.line	101; "function.c"	}
0002a7   0002     return                   	RETURN	
                                           ; exit point of _ControlFlash

                                           ;***
                                           ;  pBlock Stats: dbName = C
                                           ;***
                                           ;has an exit
                                           ;5 compiler assigned registers:
                                           ;   r0x1002
                                           ;   STK00
                                           ;   r0x1003
                                           ;   STK01
                                           ;   r0x1004
                                           ;; Starting pCode block
                                           ;;[ICODE] function.c:26:  _entry($2) :
                                           ;;[ICODE] function.c:26: 	proc _ControlLevel [k1 lr0:0 so:0]{ ia0 a2p0 re0 rm0 nos0 ru0 dp0}{void function ( unsigned-char fixed, unsigned-char fixed, unsigned-char fixed) fixed}
                                           S_function__ControlLevel	code
                                           _ControlLevel:
                                           ; 2 exit points
                                           ;;[ICODE] function.c:26: iTemp0 [k2 lr3:17 so:0]{ ia0 a2p0 re1 rm0 nos0 ru0 dp0}{unsigned-char fixed}{ sir@ _ControlLevel_lightnum1_1_11}[r0x1047 ] = recv _ControlLevel [k1 lr0:0 so:0]{ ia0 a2p0 re0 rm0 nos0 ru0 dp0}{void function ( unsigned-char fixed, unsigned-char fixed, unsigned-char fixed) fixed}
                                           ;	.line	26; "function.c"	void ControlLevel(BYTE lightnum1, BYTE lightnum2, BYTE lightnum3)
0001e6   19ee     movwf   0x6e             	MOVWF	r0x1002
                                           ;;[ICODE] function.c:26: iTemp1 [k4 lr4:18 so:0]{ ia0 a2p0 re1 rm0 nos0 ru0 dp0}{unsigned-char fixed}{ sir@ _ControlLevel_lightnum2_1_11}[r0x1048 ] = recv _ControlLevel [k1 lr0:0 so:0]{ ia0 a2p0 re0 rm0 nos0 ru0 dp0}{void function ( unsigned-char fixed, unsigned-char fixed, unsigned-char fixed) fixed}
0001e7   111f     movf    0x1f, 0x0        	MOVF	STK00,W
0001e8   19ef     movwf   0x6f             	MOVWF	r0x1003
                                           ;;[ICODE] function.c:26: iTemp2 [k6 lr5:19 so:0]{ ia0 a2p0 re1 rm0 nos0 ru0 dp0}{unsigned-char fixed}{ sir@ _ControlLevel_lightnum3_1_11}[r0x1049 ] = recv _ControlLevel [k1 lr0:0 so:0]{ ia0 a2p0 re0 rm0 nos0 ru0 dp0}{void function ( unsigned-char fixed, unsigned-char fixed, unsigned-char fixed) fixed}
0001e9   111e     movf    0x1e, 0x0        	MOVF	STK01,W
0001ea   19f0     movwf   0x70             	MOVWF	r0x1004
                                           ;;[ICODE] function.c:28: 	iTemp4 [k11 lr6:8 so:0]{ ia0 a2p0 re0 rm1 nos0 ru0 dp0}{unsigned-bitfield {2,1} near* fixed}[remat] = &[_BITS_DATA0 [k8 lr0:0 so:0]{ ia0 a2p0 re0 rm0 nos0 ru0 dp0}{struct __bits8_t fixed} , 0x0 {const-unsigned-char literal}]
                                           ;;[ICODE] function.c:28: 	*(iTemp4 [k11 lr6:8 so:0]{ ia1 a2p0 re0 rm1 nos0 ru0 dp0}{unsigned-bitfield {2,1} near* fixed}[remat]) := 0x0 {const-unsigned-char literal}
                                           ;	.line	28; "function.c"	g_ucPWM_KeyChange = 0;
0001eb   3d33     bcf     0x33, 0x2        	BCF	_BITS_DATA0,2
                                           ;;[ICODE] function.c:29: 	_PWMCON [k12 lr0:0 so:0]{ ia1 a2p0 re0 rm0 nos0 ru0 dp0}{volatile-unsigned-char sfr} := 0x63 {const-unsigned-char literal}
                                           ;	.line	29; "function.c"	PWMCON = 0x63;  //01100011
0001ec   0463     movlw   0x63             	MOVLW	0x63
0001ed   19c8     movwf   0x48             	MOVWF	_PWMCON
                                           ;;[ICODE] function.c:30: 	iTemp6 [k16 lr10:12 so:0]{ ia0 a2p0 re0 rm1 nos0 ru0 dp0}{volatile-unsigned-bitfield {6,1} near* fixed}[remat] = &[_T1CONbits [k13 lr0:0 so:0]{ ia0 a2p0 re0 rm0 nos0 ru0 dp0}{volatile-struct __00000043 fixed} , 0x0 {const-unsigned-char literal}]
                                           ;;[ICODE] function.c:30: 	*(iTemp6 [k16 lr10:12 so:0]{ ia1 a2p0 re0 rm1 nos0 ru0 dp0}{volatile-unsigned-bitfield {6,1} near* fixed}[remat]) := 0x1 {const-unsigned-char literal}
                                           ;	.line	30; "function.c"	PWM0E = 1;
0001ee   3b4c     bsf     0x4c, 0x6        	BSF	_T1CONbits,6
                                           ;;[ICODE] function.c:31: 	iTemp8 [k19 lr13:15 so:0]{ ia0 a2p0 re0 rm1 nos0 ru0 dp0}{volatile-unsigned-bitfield {7,1} near* fixed}[remat] = &[_T1CONbits [k13 lr0:0 so:0]{ ia0 a2p0 re0 rm0 nos0 ru0 dp0}{volatile-struct __00000043 fixed} , 0x0 {const-unsigned-char literal}]
                                           ;;[ICODE] function.c:31: 	*(iTemp8 [k19 lr13:15 so:0]{ ia1 a2p0 re0 rm1 nos0 ru0 dp0}{volatile-unsigned-bitfield {7,1} near* fixed}[remat]) := 0x1 {const-unsigned-char literal}
                                           ;	.line	31; "function.c"	T1EN = 1;      //启动 T1
0001ef   3bcc     bsf     0x4c, 0x7        	BSF	_T1CONbits,7
                                           ;;[ICODE] function.c:32: 	_RAMP [k20 lr0:0 so:0]{ ia1 a2p0 re0 rm0 nos0 ru0 dp0}{volatile-unsigned-char sfr} := 0xc5 {const-unsigned-char literal}
                                           ;	.line	32; "function.c"	RAMP = 0xC5;  //11000101 //禁止内置限流电阻。
0001f0   04c5     movlw   0xc5             	MOVLW	0xc5
0001f1   19d5     movwf   0x55             	MOVWF	_RAMP
                                           ;;[ICODE] function.c:34: 	_PWM2P [k21 lr0:0 so:0]{ ia1 a2p0 re0 rm0 nos0 ru0 dp0}{volatile-unsigned-char sfr} := iTemp0 [k2 lr3:17 so:0]{ ia0 a2p0 re1 rm0 nos0 ru0 dp0}{unsigned-char fixed}{ sir@ _ControlLevel_lightnum1_1_11}[r0x1047 ]
                                           ;	.line	34; "function.c"	PWM_LED0 = lightnum1;
0001f2   116e     movf    0x6e, 0x0        	MOVF	r0x1002,W
0001f3   19ca     movwf   0x4a             	MOVWF	_PWM2P
                                           ;;[ICODE] function.c:35: 	_PWM1P [k22 lr0:0 so:0]{ ia1 a2p0 re0 rm0 nos0 ru0 dp0}{volatile-unsigned-char sfr} := iTemp1 [k4 lr4:18 so:0]{ ia0 a2p0 re1 rm0 nos0 ru0 dp0}{unsigned-char fixed}{ sir@ _ControlLevel_lightnum2_1_11}[r0x1048 ]
                                           ;	.line	35; "function.c"	PWM_LED1 = lightnum2;
0001f4   116f     movf    0x6f, 0x0        	MOVF	r0x1003,W
0001f5   19c9     movwf   0x49             	MOVWF	_PWM1P
                                           ;;[ICODE] function.c:36: 	_PWM0P [k23 lr0:0 so:0]{ ia1 a2p0 re0 rm0 nos0 ru0 dp0}{volatile-unsigned-char sfr} := iTemp2 [k6 lr5:19 so:0]{ ia0 a2p0 re1 rm0 nos0 ru0 dp0}{unsigned-char fixed}{ sir@ _ControlLevel_lightnum3_1_11}[r0x1049 ]
                                           ;	.line	36; "function.c"	PWM_LED2 = lightnum3;
0001f6   1170     movf    0x70, 0x0        	MOVF	r0x1004,W
0001f7   19cf     movwf   0x4f             	MOVWF	_PWM0P
                                           ;;[ICODE] function.c:36:  _return($1) :
                                           ;;[ICODE] function.c:36: 	eproc _ControlLevel [k1 lr0:0 so:0]{ ia0 a2p0 re0 rm0 nos0 ru0 dp0}{void function ( unsigned-char fixed, unsigned-char fixed, unsigned-char fixed) fixed}
0001f8   0002     return                   	RETURN	
                                           ; exit point of _ControlLevel

                                           ;***
                                           ;  pBlock Stats: dbName = C
                                           ;***
                                           ;has an exit
                                           ;functions called:
                                           ;   _ControlLevel
                                           ;   _ControlLevel
                                           ;2 compiler assigned registers:
                                           ;   STK01
                                           ;   STK00
                                           ;; Starting pCode block
                                           ;;[ICODE] function.c:20:  _entry($2) :
                                           ;;[ICODE] function.c:20: 	proc _ControlLevelHigh [k1 lr0:0 so:0]{ ia0 a2p0 re0 rm0 nos0 ru0 dp0}{void function ( ) fixed}
                                           S_function__ControlLevelHigh	code
                                           _ControlLevelHigh:
                                           ; 2 exit points
                                           ;;[ICODE] function.c:22: 	iTemp1 [k5 lr3:5 so:0]{ ia0 a2p0 re0 rm1 nos0 ru0 dp0}{unsigned-bitfield {2,1} near* fixed}[remat] = &[_BITS_DATA0 [k2 lr0:0 so:0]{ ia0 a2p0 re0 rm0 nos0 ru0 dp0}{struct __bits8_t fixed} , 0x0 {const-unsigned-char literal}]
                                           ;;[ICODE] function.c:22: 	*(iTemp1 [k5 lr3:5 so:0]{ ia1 a2p0 re0 rm1 nos0 ru0 dp0}{unsigned-bitfield {2,1} near* fixed}[remat]) := 0x0 {const-unsigned-char literal}
                                           ;	.line	22; "function.c"	g_ucPWM_KeyChange = 0;
00027a   3d33     bcf     0x33, 0x2        	BCF	_BITS_DATA0,2
                                           ;;[ICODE] function.c:23: 	send _MaxLight [k7 lr0:0 so:0]{ ia0 a2p0 re0 rm0 nos0 ru0 dp0}{unsigned-char fixed}{argreg = 1}
                                           ;;[ICODE] function.c:23: 	send _MaxLight [k7 lr0:0 so:0]{ ia0 a2p0 re0 rm0 nos0 ru0 dp0}{unsigned-char fixed}{argreg = 1}
                                           ;;[ICODE] function.c:23: 	send _MaxLight [k7 lr0:0 so:0]{ ia0 a2p0 re0 rm0 nos0 ru0 dp0}{unsigned-char fixed}{argreg = 1}
                                           ;;[ICODE] function.c:23: 	iTemp2 [k11 lr9:9 so:0]{ ia0 a2p0 re0 rm0 nos0 ru0 dp0}{void fixed} = call _ControlLevel [k6 lr0:0 so:0]{ ia0 a2p0 re0 rm0 nos0 ru0 dp0}{void function ( unsigned-char fixed, unsigned-char fixed, unsigned-char fixed) fixed}
                                           ;	.line	23; "function.c"	ControlLevel(MaxLight,MaxLight,MaxLight);		
00027b   1139     movf    0x39, 0x0        	MOVF	_MaxLight,W
00027c   199e     movwf   0x1e             	MOVWF	STK01
00027d   1139     movf    0x39, 0x0        	MOVF	_MaxLight,W
00027e   199f     movwf   0x1f             	MOVWF	STK00
00027f   1139     movf    0x39, 0x0        	MOVF	_MaxLight,W
000280   29e6     call    0x01e6           	CALL	_ControlLevel
                                           ;;[ICODE] function.c:23:  _return($1) :
                                           ;;[ICODE] function.c:23: 	eproc _ControlLevelHigh [k1 lr0:0 so:0]{ ia0 a2p0 re0 rm0 nos0 ru0 dp0}{void function ( ) fixed}
000281   0002     return                   	RETURN	
                                           ; exit point of _ControlLevelHigh

                                           ;***
                                           ;  pBlock Stats: dbName = C
                                           ;***
                                           ;has an exit
                                           ;; Starting pCode block
                                           ;;[ICODE] function.c:5:  _entry($2) :
                                           ;;[ICODE] function.c:5: 	proc _ControlLevelLow [k1 lr0:0 so:0]{ ia0 a2p0 re0 rm0 nos0 ru0 dp0}{void function ( ) fixed}
                                           S_function__ControlLevelLow	code
                                           _ControlLevelLow:
                                           ; 2 exit points
                                           ;;[ICODE] function.c:7: 	iTemp1 [k5 lr3:5 so:0]{ ia0 a2p0 re0 rm1 nos0 ru0 dp0}{unsigned-bitfield {2,1} near* fixed}[remat] = &[_BITS_DATA0 [k2 lr0:0 so:0]{ ia0 a2p0 re0 rm0 nos0 ru0 dp0}{struct __bits8_t fixed} , 0x0 {const-unsigned-char literal}]
                                           ;;[ICODE] function.c:7: 	*(iTemp1 [k5 lr3:5 so:0]{ ia1 a2p0 re0 rm1 nos0 ru0 dp0}{unsigned-bitfield {2,1} near* fixed}[remat]) := 0x0 {const-unsigned-char literal}
                                           ;	.line	7; "function.c"	g_ucPWM_KeyChange = 0;
000226   3d33     bcf     0x33, 0x2        	BCF	_BITS_DATA0,2
                                           ;;[ICODE] function.c:8: 	_PWM0P [k8 lr0:0 so:0]{ ia1 a2p0 re0 rm0 nos0 ru0 dp0}{volatile-unsigned-char sfr} := 0x0 {const-unsigned-char literal}
                                           ;	.line	8; "function.c"	PWM_LED0 =  PWM_LED1 = PWM_LED2 = 0;    //用于设置 PWM0 的高电平时间
000227   18cf     clrf    0x4f             	CLRF	_PWM0P
                                           ;;[ICODE] function.c:8: 	_PWM1P [k7 lr0:0 so:0]{ ia1 a2p0 re0 rm0 nos0 ru0 dp0}{volatile-unsigned-char sfr} := 0x0 {const-unsigned-char literal}
000228   18c9     clrf    0x49             	CLRF	_PWM1P
                                           ;;[ICODE] function.c:8: 	_PWM2P [k6 lr0:0 so:0]{ ia1 a2p0 re0 rm0 nos0 ru0 dp0}{volatile-unsigned-char sfr} := 0x0 {const-unsigned-char literal}
000229   18ca     clrf    0x4a             	CLRF	_PWM2P
                                           ;;[ICODE] function.c:10: 	_PWMCON [k9 lr0:0 so:0]{ ia1 a2p0 re0 rm0 nos0 ru0 dp0}{volatile-unsigned-char sfr} := 0x80 {const-unsigned-char literal}
                                           ;	.line	10; "function.c"	PWMCON = 0x80;     //禁止 PWM0/BUZ 输出，PORTB5 端口作为 I/O 口
00022a   0480     movlw   0x80             	MOVLW	0x80
00022b   19c8     movwf   0x48             	MOVWF	_PWMCON
                                           ;;[ICODE] function.c:11: 	iTemp3 [k13 lr10:12 so:0]{ ia0 a2p0 re0 rm1 nos0 ru0 dp0}{volatile-unsigned-bitfield {6,1} near* fixed}[remat] = &[_T1CONbits [k10 lr0:0 so:0]{ ia0 a2p0 re0 rm0 nos0 ru0 dp0}{volatile-struct __00000043 fixed} , 0x0 {const-unsigned-char literal}]
                                           ;;[ICODE] function.c:11: 	*(iTemp3 [k13 lr10:12 so:0]{ ia1 a2p0 re0 rm1 nos0 ru0 dp0}{volatile-unsigned-bitfield {6,1} near* fixed}[remat]) := 0x0 {const-unsigned-char literal}
                                           ;	.line	11; "function.c"	PWM0E = 0;         //禁止 PWM0 输出，PORTB5 端口作为 I/O 口    T1CON
00022c   3f4c     bcf     0x4c, 0x6        	BCF	_T1CONbits,6
                                           ;;[ICODE] function.c:12: 	iTemp5 [k16 lr13:15 so:0]{ ia0 a2p0 re0 rm1 nos0 ru0 dp0}{volatile-unsigned-bitfield {7,1} near* fixed}[remat] = &[_T1CONbits [k10 lr0:0 so:0]{ ia0 a2p0 re0 rm0 nos0 ru0 dp0}{volatile-struct __00000043 fixed} , 0x0 {const-unsigned-char literal}]
                                           ;;[ICODE] function.c:12: 	*(iTemp5 [k16 lr13:15 so:0]{ ia1 a2p0 re0 rm1 nos0 ru0 dp0}{volatile-unsigned-bitfield {7,1} near* fixed}[remat]) := 0x0 {const-unsigned-char literal}
                                           ;	.line	12; "function.c"	T1EN = 0;
00022d   3fcc     bcf     0x4c, 0x7        	BCF	_T1CONbits,7
                                           ;;[ICODE] function.c:13: 	iTemp7 [k20 lr16:18 so:0]{ ia0 a2p0 re0 rm1 nos0 ru0 dp0}{volatile-unsigned-bitfield {7,1} near* fixed}[remat] = &[_RAMPbits [k17 lr0:0 so:0]{ ia0 a2p0 re0 rm0 nos0 ru0 dp0}{volatile-struct __00000070 fixed} , 0x0 {const-unsigned-char literal}]
                                           ;;[ICODE] function.c:13: 	*(iTemp7 [k20 lr16:18 so:0]{ ia1 a2p0 re0 rm1 nos0 ru0 dp0}{volatile-unsigned-bitfield {7,1} near* fixed}[remat]) := 0x1 {const-unsigned-char literal}
                                           ;	.line	13; "function.c"	MODSEL = 1;			//使能内置限流电阻
00022e   3bd5     bsf     0x55, 0x7        	BSF	_RAMPbits,7
                                           ;;[ICODE] function.c:15: 	iTemp9 [k24 lr19:21 so:0]{ ia0 a2p0 re0 rm1 nos0 ru0 dp0}{volatile-unsigned-bitfield {1,1} near* fixed}[remat] = &[_PORTBbits [k21 lr0:0 so:0]{ ia0 a2p0 re0 rm0 nos0 ru0 dp0}{volatile-struct __00000005 fixed} , 0x0 {const-unsigned-char literal}]
                                           ;;[ICODE] function.c:15: 	*(iTemp9 [k24 lr19:21 so:0]{ ia1 a2p0 re0 rm1 nos0 ru0 dp0}{volatile-unsigned-bitfield {1,1} near* fixed}[remat]) := 0x1 {const-unsigned-char literal}
                                           ;	.line	15; "function.c"	PORT_LED1 = 1;
00022f   3886     bsf     0x06, 0x1        	BSF	_PORTBbits,1
                                           ;;[ICODE] function.c:16: 	iTemp11 [k27 lr22:24 so:0]{ ia0 a2p0 re0 rm1 nos0 ru0 dp0}{volatile-unsigned-bitfield {0,1} near* fixed}[remat] = &[_PORTBbits [k21 lr0:0 so:0]{ ia0 a2p0 re0 rm0 nos0 ru0 dp0}{volatile-struct __00000005 fixed} , 0x0 {const-unsigned-char literal}]
                                           ;;[ICODE] function.c:16: 	*(iTemp11 [k27 lr22:24 so:0]{ ia1 a2p0 re0 rm1 nos0 ru0 dp0}{volatile-unsigned-bitfield {0,1} near* fixed}[remat]) := 0x1 {const-unsigned-char literal}
                                           ;	.line	16; "function.c"	PORT_LED2 = 1;
000230   3806     bsf     0x06, 0x0        	BSF	_PORTBbits,0
                                           ;;[ICODE] function.c:17: 	iTemp13 [k30 lr25:27 so:0]{ ia0 a2p0 re0 rm1 nos0 ru0 dp0}{volatile-unsigned-bitfield {3,1} near* fixed}[remat] = &[_PORTBbits [k21 lr0:0 so:0]{ ia0 a2p0 re0 rm0 nos0 ru0 dp0}{volatile-struct __00000005 fixed} , 0x0 {const-unsigned-char literal}]
                                           ;;[ICODE] function.c:17: 	*(iTemp13 [k30 lr25:27 so:0]{ ia1 a2p0 re0 rm1 nos0 ru0 dp0}{volatile-unsigned-bitfield {3,1} near* fixed}[remat]) := 0x1 {const-unsigned-char literal}
                                           ;	.line	17; "function.c"	PORT_LED3 = 1;		
000231   3986     bsf     0x06, 0x3        	BSF	_PORTBbits,3
                                           ;;[ICODE] function.c:17:  _return($1) :
                                           ;;[ICODE] function.c:17: 	eproc _ControlLevelLow [k1 lr0:0 so:0]{ ia0 a2p0 re0 rm0 nos0 ru0 dp0}{void function ( ) fixed}
000232   0002     return                   	RETURN	
                                           ; exit point of _ControlLevelLow


                                           ;	code size estimation:
                                           ;	   42+    0 =    42 instructions (   84 byte)

                                           	end
                                           ;--------------------------------------------------------
                                           ; File Created by SDCC : free open source ANSI-C Compiler
                                           ; Version 3.6.0 #9615 (CYGWIN)
                                           ;--------------------------------------------------------
                                           ; PIC port for the 14-bit core
                                           ;--------------------------------------------------------
                                           ;	.file	"init.c"
                                           	list	p=18p018a0
                                           	radix dec
                                           	include "p18p018a0.inc"
                                                  LIST

                                           ;==========================================================================
                                           ; Build date : Jun 02 2017
                                           ;  HCIDE HC18P018A0 processor include
                                           ; 
                                           ;  (c) Copyright 2012-2021 Holychip Technology, All rights reserved
                                           ;==========================================================================

                                                   NOLIST
                                           ;--------------------------------------------------------
                                           ; external declarations
                                           ;--------------------------------------------------------
                                           	extern	_STATUSbits
                                           	extern	_PORTBbits
                                           	extern	_PCONbits
                                           	extern	_IOCBbits
                                           	extern	_PDCONbits
                                           	extern	_ODCONbits
                                           	extern	_PHCONbits
                                           	extern	_INTECONbits
                                           	extern	_INTFLAGbits
                                           	extern	_OPTIONbits
                                           	extern	_TRISBbits
                                           	extern	_PWMCONbits
                                           	extern	_T0CRbits
                                           	extern	_T1CONbits
                                           	extern	_OSCCONbits
                                           	extern	_CMPCRbits
                                           	extern	_PDCON1bits
                                           	extern	_CHARGE0bits
                                           	extern	_CHARGE1bits
                                           	extern	_RAMPbits
                                           	extern	_AUXRbits
                                           	extern	_BITS_DATA0
                                           	extern	_BITS_DATA1
                                           	extern	_g_ucTimer10msCount
                                           	extern	_g_ucTimerWorkCount
                                           	extern	_TempCount
                                           	extern	_TempFlag
                                           	extern	_SleepCount
                                           	extern	_SleepFlag
                                           	extern	_MaxLight
                                           	extern	_INDF
                                           	extern	_T0
                                           	extern	_PCL
                                           	extern	_STATUS
                                           	extern	_FSR
                                           	extern	_PORTB
                                           	extern	_GPR
                                           	extern	_PCON
                                           	extern	_IOCB
                                           	extern	_PCLATH
                                           	extern	_PDCON
                                           	extern	_ODCON
                                           	extern	_PHCON
                                           	extern	_INTECON
                                           	extern	_INTFLAG
                                           	extern	_OPTION
                                           	extern	_TRISB
                                           	extern	_PWMCON
                                           	extern	_PWM1P
                                           	extern	_PWM2P
                                           	extern	_T0CR
                                           	extern	_T1CON
                                           	extern	_T1
                                           	extern	_T1LOAD
                                           	extern	_PWM0P
                                           	extern	_OSCCON
                                           	extern	_CMPCR
                                           	extern	_PDCON1
                                           	extern	_CHARGE0
                                           	extern	_CHARGE1
                                           	extern	_RAMP
                                           	extern	_AUXR
                                           	extern	_HIRCTRM

                                           	extern PSAVE
                                           	extern SSAVE
                                           	extern WSAVE
                                           	extern STK12
                                           	extern STK11
                                           	extern STK10
                                           	extern STK09
                                           	extern STK08
                                           	extern STK07
                                           	extern STK06
                                           	extern STK05
                                           	extern STK04
                                           	extern STK03
                                           	extern STK02
                                           	extern STK01
                                           	extern STK00
                                           ;--------------------------------------------------------
                                           ; global declarations
                                           ;--------------------------------------------------------
                                           	global	_InitRam
                                           	global	_InitPwm
                                           	global	_InitSystem
                                           	global	_InitPort

                                           ;--------------------------------------------------------
                                           ; global definitions
                                           ;--------------------------------------------------------
                                           ;--------------------------------------------------------
                                           ; absolute symbol definitions
                                           ;--------------------------------------------------------
                                           ;--------------------------------------------------------
                                           ; compiler-defined variables
                                           ;--------------------------------------------------------
                                           ;--------------------------------------------------------
                                           ; initialized data
                                           ;--------------------------------------------------------
                                           ;--------------------------------------------------------
                                           ; overlayable items in internal ram 
                                           ;--------------------------------------------------------
                                           ;	udata_ovr
                                           ;--------------------------------------------------------
                                           ; code
                                           ;--------------------------------------------------------
                                           code_init	code
                                           ;***
                                           ;  pBlock Stats: dbName = C
                                           ;***
                                           ;has an exit
                                           ;; Starting pCode block
                                           ;;[ICODE] init.c:99:  _entry($2) :
                                           ;;[ICODE] init.c:99: 	proc _InitRam [k1 lr0:0 so:0]{ ia0 a2p0 re0 rm0 nos0 ru0 dp0}{void function ( ) fixed}
                                           S_init__InitRam	code
                                           _InitRam:
                                           ; 2 exit points
                                           ;;[ICODE] init.c:101: 	iTemp1 [k5 lr3:5 so:0]{ ia0 a2p0 re0 rm1 nos0 ru0 dp0}{unsigned-bitfield {0,1} near* fixed}[remat] = &[_BITS_DATA0 [k2 lr0:0 so:0]{ ia0 a2p0 re0 rm0 nos0 ru0 dp0}{struct __bits8_t fixed} , 0x0 {const-unsigned-char literal}]
                                           ;;[ICODE] init.c:101: 	*(iTemp1 [k5 lr3:5 so:0]{ ia1 a2p0 re0 rm1 nos0 ru0 dp0}{unsigned-bitfield {0,1} near* fixed}[remat]) := 0x0 {const-unsigned-char literal}
                                           ;	.line	101; "init.c"	BIT_TIMER_10MS = 0;
000002   3c33     bcf     0x33, 0x0        	BCF	_BITS_DATA0,0
                                           ;;[ICODE] init.c:102: 	iTemp3 [k8 lr6:8 so:0]{ ia0 a2p0 re0 rm1 nos0 ru0 dp0}{unsigned-bitfield {5,1} near* fixed}[remat] = &[_BITS_DATA0 [k2 lr0:0 so:0]{ ia0 a2p0 re0 rm0 nos0 ru0 dp0}{struct __bits8_t fixed} , 0x0 {const-unsigned-char literal}]
                                           ;;[ICODE] init.c:102: 	*(iTemp3 [k8 lr6:8 so:0]{ ia1 a2p0 re0 rm1 nos0 ru0 dp0}{unsigned-bitfield {5,1} near* fixed}[remat]) := 0x0 {const-unsigned-char literal}
                                           ;	.line	102; "init.c"	IsLight = 0;
000003   3eb3     bcf     0x33, 0x5        	BCF	_BITS_DATA0,5
                                           ;;[ICODE] init.c:103: 	iTemp5 [k11 lr9:11 so:0]{ ia0 a2p0 re0 rm1 nos0 ru0 dp0}{unsigned-bitfield {6,1} near* fixed}[remat] = &[_BITS_DATA0 [k2 lr0:0 so:0]{ ia0 a2p0 re0 rm0 nos0 ru0 dp0}{struct __bits8_t fixed} , 0x0 {const-unsigned-char literal}]
                                           ;;[ICODE] init.c:103: 	*(iTemp5 [k11 lr9:11 so:0]{ ia1 a2p0 re0 rm1 nos0 ru0 dp0}{unsigned-bitfield {6,1} near* fixed}[remat]) := 0x0 {const-unsigned-char literal}
                                           ;	.line	103; "init.c"	IsMotor = 0;
000004   3f33     bcf     0x33, 0x6        	BCF	_BITS_DATA0,6
                                           ;;[ICODE] init.c:106: 	_SleepCount [k12 lr0:0 so:0]{ ia1 a2p0 re0 rm0 nos0 ru0 dp0}{unsigned-int fixed} := 0x0 {unsigned-int literal}
                                           ;	.line	106; "init.c"	SleepCount = 0;
000005   18ae     clrf    0x2e             	CLRF	_SleepCount
000006   18af     clrf    0x2f             	CLRF	(_SleepCount + 1)
                                           ;;[ICODE] init.c:106:  _return($1) :
                                           ;;[ICODE] init.c:106: 	eproc _InitRam [k1 lr0:0 so:0]{ ia0 a2p0 re0 rm0 nos0 ru0 dp0}{void function ( ) fixed}
000007   0002     return                   	RETURN	
                                           ; exit point of _InitRam

                                           ;***
                                           ;  pBlock Stats: dbName = C
                                           ;***
                                           ;has an exit
                                           ;; Starting pCode block
                                           ;;[ICODE] init.c:92:  _entry($2) :
                                           ;;[ICODE] init.c:92: 	proc _InitPwm [k1 lr0:0 so:0]{ ia0 a2p0 re0 rm0 nos0 ru0 dp0}{void function ( ) fixed}
                                           S_init__InitPwm	code
                                           _InitPwm:
                                           ; 2 exit points
                                           ;;[ICODE] init.c:94: 	_AUXR [k2 lr0:0 so:0]{ ia1 a2p0 re0 rm0 nos0 ru0 dp0}{volatile-unsigned-char sfr} := 0x0 {const-unsigned-char literal}
                                           ;	.line	94; "init.c"	AUXR = 0;
000282   18d9     clrf    0x59             	CLRF	_AUXR
                                           ;;[ICODE] init.c:95: 	_T1 [k3 lr0:0 so:0]{ ia1 a2p0 re0 rm0 nos0 ru0 dp0}{volatile-unsigned-char sfr} := 0xfe {const-unsigned-char literal}
                                           ;	.line	95; "init.c"	T1 = 0XFE;     //TI计数器
000283   04fe     movlw   0xfe             	MOVLW	0xfe
000284   19cd     movwf   0x4d             	MOVWF	_T1
                                           ;;[ICODE] init.c:96: 	_T1LOAD [k4 lr0:0 so:0]{ ia1 a2p0 re0 rm0 nos0 ru0 dp0}{volatile-unsigned-char sfr} := 0xfe {const-unsigned-char literal}
                                           ;	.line	96; "init.c"	T1LOAD = 0XFE;
000285   04fe     movlw   0xfe             	MOVLW	0xfe
000286   19ce     movwf   0x4e             	MOVWF	_T1LOAD
                                           ;;[ICODE] init.c:96:  _return($1) :
                                           ;;[ICODE] init.c:96: 	eproc _InitPwm [k1 lr0:0 so:0]{ ia0 a2p0 re0 rm0 nos0 ru0 dp0}{void function ( ) fixed}
000287   0002     return                   	RETURN	
                                           ; exit point of _InitPwm

                                           ;***
                                           ;  pBlock Stats: dbName = C
                                           ;***
                                           ;has an exit
                                           ;; Starting pCode block
                                           ;;[ICODE] init.c:78:  _entry($2) :
                                           ;;[ICODE] init.c:78: 	proc _InitSystem [k1 lr0:0 so:0]{ ia0 a2p0 re0 rm0 nos0 ru0 dp0}{void function ( ) fixed}
                                           S_init__InitSystem	code
                                           _InitSystem:
                                           ; 2 exit points
                                           ;;[ICODE] init.c:80: 	_OSCCON [k2 lr0:0 so:0]{ ia1 a2p0 re0 rm0 nos0 ru0 dp0}{volatile-unsigned-char sfr} := 0x0 {const-unsigned-char literal}
                                           ;	.line	80; "init.c"	OSCCON = 0;     //高频	
000249   18d0     clrf    0x50             	CLRF	_OSCCON
                                           ;;[ICODE] init.c:81: 	_T0 [k3 lr0:0 so:0]{ ia1 a2p0 re0 rm0 nos0 ru0 dp0}{volatile-unsigned-char sfr} := 0xce {const-unsigned-char literal}
                                           ;	.line	81; "init.c"	T0 =   0xCE;
00024a   04ce     movlw   0xce             	MOVLW	0xce
00024b   1981     movwf   0x01             	MOVWF	_T0
                                           ;;[ICODE] init.c:83: 	_OPTION [k4 lr0:0 so:0]{ ia1 a2p0 re0 rm0 nos0 ru0 dp0}{volatile-unsigned-char sfr} := 0x0 {const-unsigned-char literal}
                                           ;	.line	83; "init.c"	OPTION = 0x00;	//下降沿中断 Fcpu 上升沿计数 TMR0 1/2预分频
00024c   18c1     clrf    0x41             	CLRF	_OPTION
                                           ;;[ICODE] init.c:84: 	_PCON [k5 lr0:0 so:0]{ ia1 a2p0 re0 rm0 nos0 ru0 dp0}{volatile-unsigned-char sfr} = _PCON [k5 lr0:0 so:0]{ ia0 a2p0 re0 rm0 nos0 ru0 dp0}{volatile-unsigned-char sfr} | 0x90 {const-unsigned-char literal}
                                           ;	.line	84; "init.c"	PCON |= 0x90; 	//使能WDT
00024d   0490     movlw   0x90             	MOVLW	0x90
00024e   1d88     iorwf   0x08, 0x1        	IORWF	_PCON,F
                                           ;;[ICODE] init.c:86: 	_CMPCR [k7 lr0:0 so:0]{ ia1 a2p0 re0 rm0 nos0 ru0 dp0}{volatile-unsigned-char sfr} := 0x0 {const-unsigned-char literal}
                                           ;	.line	86; "init.c"	CMPCR = 0x00;  //关闭比较器
00024f   18d1     clrf    0x51             	CLRF	_CMPCR
                                           ;;[ICODE] init.c:87: 	_INTFLAG [k8 lr0:0 so:0]{ ia1 a2p0 re0 rm0 nos0 ru0 dp0}{volatile-unsigned-char sfr} = _INTFLAG [k8 lr0:0 so:0]{ ia0 a2p0 re0 rm0 nos0 ru0 dp0}{volatile-unsigned-char sfr} & 0xfe {const-unsigned-char literal}
                                           ;	.line	87; "init.c"	INTFLAG &= 0xFE;
000250   3c0f     bcf     0x0f, 0x0        	BCF	_INTFLAG,0
                                           ;;[ICODE] init.c:88: 	_CMPCR [k7 lr0:0 so:0]{ ia1 a2p0 re0 rm0 nos0 ru0 dp0}{volatile-unsigned-char sfr} = _CMPCR [k7 lr0:0 so:0]{ ia0 a2p0 re0 rm0 nos0 ru0 dp0}{volatile-unsigned-char sfr} | 0x10 {const-unsigned-char literal}
                                           ;	.line	88; "init.c"	CMPCR |= 0X10;
000251   3a51     bsf     0x51, 0x4        	BSF	_CMPCR,4
                                           ;;[ICODE] init.c:88:  _return($1) :
                                           ;;[ICODE] init.c:88: 	eproc _InitSystem [k1 lr0:0 so:0]{ ia0 a2p0 re0 rm0 nos0 ru0 dp0}{void function ( ) fixed}
000252   0002     return                   	RETURN	
                                           ; exit point of _InitSystem

                                           ;***
                                           ;  pBlock Stats: dbName = C
                                           ;***
                                           ;has an exit
                                           ;; Starting pCode block
                                           ;;[ICODE] init.c:8:  _entry($2) :
                                           ;;[ICODE] init.c:8: 	proc _InitPort [k1 lr0:0 so:0]{ ia0 a2p0 re0 rm0 nos0 ru0 dp0}{void function ( ) fixed}
                                           S_init__InitPort	code
                                           _InitPort:
                                           ; 2 exit points
                                           ;;[ICODE] init.c:11: 	_AUXR [k2 lr0:0 so:0]{ ia1 a2p0 re0 rm0 nos0 ru0 dp0}{volatile-unsigned-char sfr} := 0x0 {const-unsigned-char literal}
                                           ;	.line	11; "init.c"	AUXR = 0;
000197   18d9     clrf    0x59             	CLRF	_AUXR
                                           ;;[ICODE] init.c:13: 	_PORTB [k3 lr0:0 so:0]{ ia1 a2p0 re0 rm0 nos0 ru0 dp0}{volatile-unsigned-char sfr} := 0x0 {const-unsigned-char literal}
                                           ;	.line	13; "init.c"	PORTB = 0;  // 0 disenable output, 1 enable output
000198   1886     clrf    0x06             	CLRF	_PORTB
                                           ;;[ICODE] init.c:21: 	_TRISB [k4 lr0:0 so:0]{ ia1 a2p0 re0 rm0 nos0 ru0 dp0}{volatile-unsigned-char sfr} := 0x0 {const-unsigned-char literal}
                                           ;	.line	21; "init.c"	TRISB = 0;    //1：input  0:output
000199   18c6     clrf    0x46             	CLRF	_TRISB
                                           ;;[ICODE] init.c:22: 	_TRISB [k4 lr0:0 so:0]{ ia1 a2p0 re0 rm0 nos0 ru0 dp0}{volatile-unsigned-char sfr} = _TRISB [k4 lr0:0 so:0]{ ia0 a2p0 re0 rm0 nos0 ru0 dp0}{volatile-unsigned-char sfr} | 0x4 {const-unsigned-char literal}
                                           ;	.line	22; "init.c"	TRISB |= DEF_SET_BIT2;    //input  按键
00019a   3946     bsf     0x46, 0x2        	BSF	_TRISB,2
                                           ;;[ICODE] init.c:23: 	_TRISB [k4 lr0:0 so:0]{ ia1 a2p0 re0 rm0 nos0 ru0 dp0}{volatile-unsigned-char sfr} = _TRISB [k4 lr0:0 so:0]{ ia0 a2p0 re0 rm0 nos0 ru0 dp0}{volatile-unsigned-char sfr} | 0x10 {const-unsigned-char literal}
                                           ;	.line	23; "init.c"	TRISB |= DEF_SET_BIT4;  //input   按键
00019b   3a46     bsf     0x46, 0x4        	BSF	_TRISB,4
                                           ;;[ICODE] init.c:24: 	_TRISB [k4 lr0:0 so:0]{ ia1 a2p0 re0 rm0 nos0 ru0 dp0}{volatile-unsigned-char sfr} = _TRISB [k4 lr0:0 so:0]{ ia0 a2p0 re0 rm0 nos0 ru0 dp0}{volatile-unsigned-char sfr} | 0x20 {const-unsigned-char literal}
                                           ;	.line	24; "init.c"	TRISB |= DEF_SET_BIT5;  //input   按键
00019c   3ac6     bsf     0x46, 0x5        	BSF	_TRISB,5
                                           ;;[ICODE] init.c:26: 	_TRISB [k4 lr0:0 so:0]{ ia1 a2p0 re0 rm0 nos0 ru0 dp0}{volatile-unsigned-char sfr} = _TRISB [k4 lr0:0 so:0]{ ia0 a2p0 re0 rm0 nos0 ru0 dp0}{volatile-unsigned-char sfr} | 0x8 {const-unsigned-char literal}
                                           ;	.line	26; "init.c"	TRISB |= DEF_SET_BIT3;  //input  pwo键
00019d   39c6     bsf     0x46, 0x3        	BSF	_TRISB,3
                                           ;;[ICODE] init.c:33: 	_PHCON [k9 lr0:0 so:0]{ ia1 a2p0 re0 rm0 nos0 ru0 dp0}{volatile-unsigned-char sfr} := 0xff {const-unsigned-char literal}
                                           ;	.line	33; "init.c"	PHCON = 0XFF;  // 1 disenable high pull ,0 enable high pull
00019e   04ff     movlw   0xff             	MOVLW	0xff
00019f   198d     movwf   0x0d             	MOVWF	_PHCON
                                           ;;[ICODE] init.c:35: 	_PHCON [k9 lr0:0 so:0]{ ia1 a2p0 re0 rm0 nos0 ru0 dp0}{volatile-unsigned-char sfr} = _PHCON [k9 lr0:0 so:0]{ ia0 a2p0 re0 rm0 nos0 ru0 dp0}{volatile-unsigned-char sfr} & 0xfe {const-unsigned-char literal}
                                           ;	.line	35; "init.c"	PHCON &= DEF_CLR_BIT0;   //灯光
0001a0   3c0d     bcf     0x0d, 0x0        	BCF	_PHCON,0
                                           ;;[ICODE] init.c:36: 	_PHCON [k9 lr0:0 so:0]{ ia1 a2p0 re0 rm0 nos0 ru0 dp0}{volatile-unsigned-char sfr} = _PHCON [k9 lr0:0 so:0]{ ia0 a2p0 re0 rm0 nos0 ru0 dp0}{volatile-unsigned-char sfr} & 0xfd {const-unsigned-char literal}
                                           ;	.line	36; "init.c"	PHCON &= DEF_CLR_BIT1;  //电机
0001a1   3c8d     bcf     0x0d, 0x1        	BCF	_PHCON,1
                                           ;;[ICODE] init.c:38: 	_PHCON [k9 lr0:0 so:0]{ ia1 a2p0 re0 rm0 nos0 ru0 dp0}{volatile-unsigned-char sfr} = _PHCON [k9 lr0:0 so:0]{ ia0 a2p0 re0 rm0 nos0 ru0 dp0}{volatile-unsigned-char sfr} & 0xfb {const-unsigned-char literal}
                                           ;	.line	38; "init.c"	PHCON &= DEF_CLR_BIT2;
0001a2   3d0d     bcf     0x0d, 0x2        	BCF	_PHCON,2
                                           ;;[ICODE] init.c:39: 	_PHCON [k9 lr0:0 so:0]{ ia1 a2p0 re0 rm0 nos0 ru0 dp0}{volatile-unsigned-char sfr} = _PHCON [k9 lr0:0 so:0]{ ia0 a2p0 re0 rm0 nos0 ru0 dp0}{volatile-unsigned-char sfr} & 0xef {const-unsigned-char literal}
                                           ;	.line	39; "init.c"	PHCON &= DEF_CLR_BIT4;
0001a3   3e0d     bcf     0x0d, 0x4        	BCF	_PHCON,4
                                           ;;[ICODE] init.c:45: 	_PDCON [k14 lr0:0 so:0]{ ia1 a2p0 re0 rm0 nos0 ru0 dp0}{volatile-unsigned-char sfr} := 0xff {const-unsigned-char literal}
                                           ;	.line	45; "init.c"	PDCON = 0xFF;  // 1 disenable down pull ,0 enable down pull
0001a4   04ff     movlw   0xff             	MOVLW	0xff
0001a5   198b     movwf   0x0b             	MOVWF	_PDCON
                                           ;;[ICODE] init.c:46: 	_PDCON1 [k15 lr0:0 so:0]{ ia1 a2p0 re0 rm0 nos0 ru0 dp0}{volatile-unsigned-char sfr} := 0xff {const-unsigned-char literal}
                                           ;	.line	46; "init.c"	PDCON1 = 0xFF; // 1 disenable down pull ,0 enable down pull
0001a6   04ff     movlw   0xff             	MOVLW	0xff
0001a7   19d2     movwf   0x52             	MOVWF	_PDCON1
                                           ;;[ICODE] init.c:50: 	_IOCB [k16 lr0:0 so:0]{ ia1 a2p0 re0 rm0 nos0 ru0 dp0}{volatile-unsigned-char sfr} := 0x0 {const-unsigned-char literal}
                                           ;	.line	50; "init.c"	IOCB = 0X00; // 0 disenable weak up 	,1 enable weak up
0001a8   1889     clrf    0x09             	CLRF	_IOCB
                                           ;;[ICODE] init.c:51: 	_IOCB [k16 lr0:0 so:0]{ ia1 a2p0 re0 rm0 nos0 ru0 dp0}{volatile-unsigned-char sfr} = _IOCB [k16 lr0:0 so:0]{ ia0 a2p0 re0 rm0 nos0 ru0 dp0}{volatile-unsigned-char sfr} | 0x4 {const-unsigned-char literal}
                                           ;	.line	51; "init.c"	IOCB |= DEF_SET_BIT2;  //按键
0001a9   3909     bsf     0x09, 0x2        	BSF	_IOCB,2
                                           ;;[ICODE] init.c:52: 	_IOCB [k16 lr0:0 so:0]{ ia1 a2p0 re0 rm0 nos0 ru0 dp0}{volatile-unsigned-char sfr} = _IOCB [k16 lr0:0 so:0]{ ia0 a2p0 re0 rm0 nos0 ru0 dp0}{volatile-unsigned-char sfr} | 0x10 {const-unsigned-char literal}
                                           ;	.line	52; "init.c"	IOCB |= DEF_SET_BIT4;  //按键
0001aa   3a09     bsf     0x09, 0x4        	BSF	_IOCB,4
                                           ;;[ICODE] init.c:53: 	_IOCB [k16 lr0:0 so:0]{ ia1 a2p0 re0 rm0 nos0 ru0 dp0}{volatile-unsigned-char sfr} = _IOCB [k16 lr0:0 so:0]{ ia0 a2p0 re0 rm0 nos0 ru0 dp0}{volatile-unsigned-char sfr} | 0x20 {const-unsigned-char literal}
                                           ;	.line	53; "init.c"	IOCB |= DEF_SET_BIT5;  //按键
0001ab   3a89     bsf     0x09, 0x5        	BSF	_IOCB,5
                                           ;;[ICODE] init.c:54: 	iTemp12 [k23 lr32:34 so:0]{ ia0 a2p0 re0 rm1 nos0 ru0 dp0}{volatile-unsigned-bitfield {1,1} near* fixed}[remat] = &[_INTECONbits [k20 lr0:0 so:0]{ ia0 a2p0 re0 rm0 nos0 ru0 dp0}{volatile-struct __00000024 fixed} , 0x0 {const-unsigned-char literal}]
                                           ;;[ICODE] init.c:54: 	*(iTemp12 [k23 lr32:34 so:0]{ ia1 a2p0 re0 rm1 nos0 ru0 dp0}{volatile-unsigned-bitfield {1,1} near* fixed}[remat]) := 0x0 {const-unsigned-char literal}
                                           ;	.line	54; "init.c"	PBIE = 0; // 0	disenable Port level change interrupt , 1 enable Port level change interrupt
0001ac   3c8e     bcf     0x0e, 0x1        	BCF	_INTECONbits,1
                                           ;;[ICODE] init.c:60: 	_ODCON [k24 lr0:0 so:0]{ ia1 a2p0 re0 rm0 nos0 ru0 dp0}{volatile-unsigned-char sfr} := 0x0 {const-unsigned-char literal}
                                           ;	.line	60; "init.c"	ODCON = 0;
0001ad   188c     clrf    0x0c             	CLRF	_ODCON
                                           ;;[ICODE] init.c:61: 	_ODCON [k24 lr0:0 so:0]{ ia1 a2p0 re0 rm0 nos0 ru0 dp0}{volatile-unsigned-char sfr} = _ODCON [k24 lr0:0 so:0]{ ia0 a2p0 re0 rm0 nos0 ru0 dp0}{volatile-unsigned-char sfr} | 0x1 {const-unsigned-char literal}
                                           ;	.line	61; "init.c"	ODCON |= DEF_SET_BIT0; // 0 disenable open drain output, 1 enable open drain output
0001ae   380c     bsf     0x0c, 0x0        	BSF	_ODCON,0
                                           ;;[ICODE] init.c:62: 	_ODCON [k24 lr0:0 so:0]{ ia1 a2p0 re0 rm0 nos0 ru0 dp0}{volatile-unsigned-char sfr} = _ODCON [k24 lr0:0 so:0]{ ia0 a2p0 re0 rm0 nos0 ru0 dp0}{volatile-unsigned-char sfr} | 0x2 {const-unsigned-char literal}
                                           ;	.line	62; "init.c"	ODCON |= DEF_SET_BIT1;
0001af   388c     bsf     0x0c, 0x1        	BSF	_ODCON,1
                                           ;;[ICODE] init.c:70: 	iTemp16 [k30 lr40:42 so:0]{ ia0 a2p0 re0 rm1 nos0 ru0 dp0}{volatile-unsigned-bitfield {7,1} near* fixed}[remat] = &[_RAMPbits [k27 lr0:0 so:0]{ ia0 a2p0 re0 rm0 nos0 ru0 dp0}{volatile-struct __00000070 fixed} , 0x0 {const-unsigned-char literal}]
                                           ;;[ICODE] init.c:70: 	*(iTemp16 [k30 lr40:42 so:0]{ ia1 a2p0 re0 rm1 nos0 ru0 dp0}{volatile-unsigned-bitfield {7,1} near* fixed}[remat]) := 0x1 {const-unsigned-char literal}
                                           ;	.line	70; "init.c"	MODSEL = 1;   // 1：使能内置限流电阻
0001b0   3bd5     bsf     0x55, 0x7        	BSF	_RAMPbits,7
                                           ;;[ICODE] init.c:71: 	iTemp18 [k34 lr43:45 so:0]{ ia0 a2p0 re0 rm1 nos0 ru0 dp0}{volatile-unsigned-bitfield {1,1} near* fixed}[remat] = &[_PORTBbits [k31 lr0:0 so:0]{ ia0 a2p0 re0 rm0 nos0 ru0 dp0}{volatile-struct __00000005 fixed} , 0x0 {const-unsigned-char literal}]
                                           ;;[ICODE] init.c:71: 	*(iTemp18 [k34 lr43:45 so:0]{ ia1 a2p0 re0 rm1 nos0 ru0 dp0}{volatile-unsigned-bitfield {1,1} near* fixed}[remat]) := 0x1 {const-unsigned-char literal}
                                           ;	.line	71; "init.c"	PORT_LED1 = 1;  //灯光  1：灭  0：亮
0001b1   3886     bsf     0x06, 0x1        	BSF	_PORTBbits,1
                                           ;;[ICODE] init.c:72: 	iTemp20 [k37 lr46:48 so:0]{ ia0 a2p0 re0 rm1 nos0 ru0 dp0}{volatile-unsigned-bitfield {0,1} near* fixed}[remat] = &[_PORTBbits [k31 lr0:0 so:0]{ ia0 a2p0 re0 rm0 nos0 ru0 dp0}{volatile-struct __00000005 fixed} , 0x0 {const-unsigned-char literal}]
                                           ;;[ICODE] init.c:72: 	*(iTemp20 [k37 lr46:48 so:0]{ ia1 a2p0 re0 rm1 nos0 ru0 dp0}{volatile-unsigned-bitfield {0,1} near* fixed}[remat]) := 0x1 {const-unsigned-char literal}
                                           ;	.line	72; "init.c"	PORT_LED2 = 1;  //电机 1：灭  0：亮
0001b2   3806     bsf     0x06, 0x0        	BSF	_PORTBbits,0
                                           ;;[ICODE] init.c:73: 	iTemp22 [k40 lr49:51 so:0]{ ia0 a2p0 re0 rm1 nos0 ru0 dp0}{volatile-unsigned-bitfield {3,1} near* fixed}[remat] = &[_PORTBbits [k31 lr0:0 so:0]{ ia0 a2p0 re0 rm0 nos0 ru0 dp0}{volatile-struct __00000005 fixed} , 0x0 {const-unsigned-char literal}]
                                           ;;[ICODE] init.c:73: 	*(iTemp22 [k40 lr49:51 so:0]{ ia1 a2p0 re0 rm1 nos0 ru0 dp0}{volatile-unsigned-bitfield {3,1} near* fixed}[remat]) := 0x0 {const-unsigned-char literal}
                                           ;	.line	73; "init.c"	PORT_LED3 = 0; //pow
0001b3   3d86     bcf     0x06, 0x3        	BCF	_PORTBbits,3
                                           ;;[ICODE] init.c:73:  _return($1) :
                                           ;;[ICODE] init.c:73: 	eproc _InitPort [k1 lr0:0 so:0]{ ia0 a2p0 re0 rm0 nos0 ru0 dp0}{void function ( ) fixed}
0001b4   0002     return                   	RETURN	
                                           ; exit point of _InitPort


                                           ;	code size estimation:
                                           ;	   52+    0 =    52 instructions (  104 byte)

                                           	end
                                           ;--------------------------------------------------------
                                           ; File Created by SDCC : free open source ANSI-C Compiler
                                           ; Version 3.6.0 #9615 (CYGWIN)
                                           ;--------------------------------------------------------
                                           ; PIC port for the 14-bit core
                                           ;--------------------------------------------------------
                                           ;	.file	"interrupt.c"
                                           	list	p=18p018a0
                                           	radix dec
                                           	include "p18p018a0.inc"
                                                  LIST

                                           ;==========================================================================
                                           ; Build date : Jun 02 2017
                                           ;  HCIDE HC18P018A0 processor include
                                           ; 
                                           ;  (c) Copyright 2012-2021 Holychip Technology, All rights reserved
                                           ;==========================================================================

                                                   NOLIST
                                           ;--------------------------------------------------------
                                           ; external declarations
                                           ;--------------------------------------------------------
                                           	extern	_Interrupt
                                           	extern	_STATUSbits
                                           	extern	_PORTBbits
                                           	extern	_PCONbits
                                           	extern	_IOCBbits
                                           	extern	_PDCONbits
                                           	extern	_ODCONbits
                                           	extern	_PHCONbits
                                           	extern	_INTECONbits
                                           	extern	_INTFLAGbits
                                           	extern	_OPTIONbits
                                           	extern	_TRISBbits
                                           	extern	_PWMCONbits
                                           	extern	_T0CRbits
                                           	extern	_T1CONbits
                                           	extern	_OSCCONbits
                                           	extern	_CMPCRbits
                                           	extern	_PDCON1bits
                                           	extern	_CHARGE0bits
                                           	extern	_CHARGE1bits
                                           	extern	_RAMPbits
                                           	extern	_AUXRbits
                                           	extern	_BITS_DATA0
                                           	extern	_BITS_DATA1
                                           	extern	_g_ucTimer10msCount
                                           	extern	_g_ucTimerWorkCount
                                           	extern	_TempCount
                                           	extern	_TempFlag
                                           	extern	_SleepCount
                                           	extern	_SleepFlag
                                           	extern	_MaxLight
                                           	extern	_INDF
                                           	extern	_T0
                                           	extern	_PCL
                                           	extern	_STATUS
                                           	extern	_FSR
                                           	extern	_PORTB
                                           	extern	_GPR
                                           	extern	_PCON
                                           	extern	_IOCB
                                           	extern	_PCLATH
                                           	extern	_PDCON
                                           	extern	_ODCON
                                           	extern	_PHCON
                                           	extern	_INTECON
                                           	extern	_INTFLAG
                                           	extern	_OPTION
                                           	extern	_TRISB
                                           	extern	_PWMCON
                                           	extern	_PWM1P
                                           	extern	_PWM2P
                                           	extern	_T0CR
                                           	extern	_T1CON
                                           	extern	_T1
                                           	extern	_T1LOAD
                                           	extern	_PWM0P
                                           	extern	_OSCCON
                                           	extern	_CMPCR
                                           	extern	_PDCON1
                                           	extern	_CHARGE0
                                           	extern	_CHARGE1
                                           	extern	_RAMP
                                           	extern	_AUXR
                                           	extern	_HIRCTRM
                                           	extern	___sdcc_saved_fsr

                                           	extern PSAVE
                                           	extern SSAVE
                                           	extern WSAVE
                                           	extern STK12
                                           	extern STK11
                                           	extern STK10
                                           	extern STK09
                                           	extern STK08
                                           	extern STK07
                                           	extern STK06
                                           	extern STK05
                                           	extern STK04
                                           	extern STK03
                                           	extern STK02
                                           	extern STK01
                                           	extern STK00
                                           ;--------------------------------------------------------
                                           ; global declarations
                                           ;--------------------------------------------------------
                                           	global	_InterruptFunc

                                           ;--------------------------------------------------------
                                           ; global definitions
                                           ;--------------------------------------------------------
                                           ;--------------------------------------------------------
                                           ; absolute symbol definitions
                                           ;--------------------------------------------------------
                                           ;--------------------------------------------------------
                                           ; compiler-defined variables
                                           ;--------------------------------------------------------
                                           ;--------------------------------------------------------
                                           ; initialized data
                                           ;--------------------------------------------------------
                                           ;--------------------------------------------------------
                                           ; overlayable items in internal ram 
                                           ;--------------------------------------------------------
                                           ;	udata_ovr
                                           ;--------------------------------------------------------
                                           ; interrupt and initialization code
                                           ;--------------------------------------------------------
                                           c_interrupt	code	0x0008
                                           __sdcc_interrupt:
                                           ;***
                                           ;  pBlock Stats: dbName = I
                                           ;***
                                           ;; Starting pCode block
                                           ;;[ICODE] interrupt.c:6:  _entry($8) :
                                           ;;[ICODE] interrupt.c:6: 	proc _InterruptFunc [k1 lr0:0 so:0]{ ia0 a2p0 re0 rm0 nos0 ru0 dp0}{void function ( ) fixed}
                                           _InterruptFunc:
                                           ; 0 exit points
                                           ;	.line	6; "interrupt.c"	void InterruptFunc(void) __interrupt 0
000008   1992     movwf   0x12             	MOVWF	WSAVE
000009   1703     swapf   0x03, 0x0        	SWAPF	STATUS,W
00000a   1883     clrf    0x03             	CLRF	STATUS
00000b   1991     movwf   0x11             	MOVWF	SSAVE
                                           	BANKSEL	PCLATH
00000c   110a     movf    0x0a, 0x0        	MOVF	PCLATH,W
00000d   188a     clrf    0x0a             	CLRF	PCLATH
00000e   1990     movwf   0x10             	MOVWF	PSAVE
00000f   1104     movf    0x04, 0x0        	MOVF	FSR,W
                                           ;	.line	8; "interrupt.c"	if (PBIF)//产生端口电平变化中断
000010   19ba     movwf   0x3a             	MOVWF	___sdcc_saved_fsr
                                           ;	.line	10; "interrupt.c"	PBIF = 0;
000011   348f     btfsc   0x0f, 0x1        	BTFSC	_INTFLAGbits,1
                                           ;	.line	13; "interrupt.c"	if (T0IF)//产生TMR0溢出中断
000012   3c8f     bcf     0x0f, 0x1        	BCF	_INTFLAGbits,1
000013   300f     btfss   0x0f, 0x0        	BTFSS	_INTFLAGbits,0
000014   2018     goto    0x0018           	GOTO	_00108_DS_
                                           ;;[ICODE] interrupt.c:13: 	if iTemp7 [k13 lr13:14 so:0]{ ia0 a2p0 re0 rm0 nos0 ru0 dp0}{volatile-unsigned-bitfield {0,1} fixed}[r0x1046 ] == 0 goto __iffalse_1($4)
                                           ;;[ICODE] interrupt.c:15: 	iTemp9 [k16 lr15:17 so:0]{ ia0 a2p0 re0 rm1 nos0 ru0 dp0}{volatile-unsigned-bitfield {0,1} near* fixed}[remat] = &[_INTFLAGbits [k2 lr0:0 so:0]{ ia0 a2p0 re0 rm0 nos0 ru0 dp0}{volatile-struct __00000027 fixed} , 0x0 {const-unsigned-char literal}]
                                           ;;[ICODE] interrupt.c:15: 	*(iTemp9 [k16 lr15:17 so:0]{ ia1 a2p0 re0 rm1 nos0 ru0 dp0}{volatile-unsigned-bitfield {0,1} near* fixed}[remat]) := 0x0 {const-unsigned-char literal}
                                           ;	.line	15; "interrupt.c"	T0IF = 0;
000015   3c0f     bcf     0x0f, 0x0        	BCF	_INTFLAGbits,0
                                           ;;[ICODE] interrupt.c:16: 	_T0 [k17 lr0:0 so:0]{ ia1 a2p0 re0 rm0 nos0 ru0 dp0}{volatile-unsigned-char sfr} := 0xd9 {const-unsigned-char literal}
                                           ;	.line	16; "interrupt.c"	T0 = 217;
000016   04d9     movlw   0xd9             	MOVLW	0xd9
000017   1981     movwf   0x01             	MOVWF	_T0
                                           ;;[ICODE] interrupt.c:16:  __iffalse_1($4) :
                                           ;;[ICODE] interrupt.c:20: 	_g_ucTimer10msCount [k18 lr0:0 so:0]{ ia1 a2p0 re0 rm0 nos0 ru0 dp0}{unsigned-char fixed} = _g_ucTimer10msCount [k18 lr0:0 so:0]{ ia1 a2p0 re0 rm0 nos0 ru0 dp0}{unsigned-char fixed} + 0x1 {const-unsigned-char literal}
                                           _00108_DS_:
                                           ;	.line	20; "interrupt.c"	g_ucTimer10msCount++;		
000018   13b4     incf    0x34, 0x1        	INCF	_g_ucTimer10msCount,F
                                           ;;[ICODE] interrupt.c:26: 	iTemp13 [k22 lr22:23 so:0]{ ia0 a2p0 re0 rm0 nos0 ru0 dp0}{char fixed} = 0xc8 {const-unsigned-char literal} == _g_ucTimer10msCount [k18 lr0:0 so:0]{ ia0 a2p0 re0 rm0 nos0 ru0 dp0}{unsigned-char fixed}
                                           ;	.line	26; "interrupt.c"	if (TIMER_COUNT_10MS == g_ucTimer10msCount)
000019   1134     movf    0x34, 0x0        	MOVF	_g_ucTimer10msCount,W
00001a   0dc8     xorlw   0xc8             	XORLW	0xc8
00001b   3103     btfss   0x03, 0x2        	BTFSS	STATUS,2
00001c   201f     goto    0x001f           	GOTO	_00111_DS_
                                           ;;[ICODE] interrupt.c:26: 	if iTemp13 [k22 lr22:23 so:0]{ ia0 a2p0 re0 rm0 nos0 ru0 dp0}{char fixed} == 0 goto _return($7)
                                           ;;[ICODE] interrupt.c:28: 	_g_ucTimer10msCount [k18 lr0:0 so:0]{ ia1 a2p0 re0 rm0 nos0 ru0 dp0}{unsigned-char fixed} := 0x0 {const-unsigned-char literal}
                                           ;	.line	28; "interrupt.c"	g_ucTimer10msCount = 0;
00001d   18b4     clrf    0x34             	CLRF	_g_ucTimer10msCount
                                           ;;[ICODE] interrupt.c:29: 	iTemp16 [k27 lr25:27 so:0]{ ia0 a2p0 re0 rm1 nos0 ru0 dp0}{unsigned-bitfield {0,1} near* fixed}[remat] = &[_BITS_DATA0 [k24 lr0:0 so:0]{ ia0 a2p0 re0 rm0 nos0 ru0 dp0}{struct __bits8_t fixed} , 0x0 {const-unsigned-char literal}]
                                           ;;[ICODE] interrupt.c:29: 	*(iTemp16 [k27 lr25:27 so:0]{ ia1 a2p0 re0 rm1 nos0 ru0 dp0}{unsigned-bitfield {0,1} near* fixed}[remat]) := 0x1 {const-unsigned-char literal}
                                           ;	.line	29; "interrupt.c"	BIT_TIMER_10MS = 1;
00001e   3833     bsf     0x33, 0x0        	BSF	_BITS_DATA0,0
                                           ;;[ICODE] interrupt.c:29:  _return($7) :
                                           ;;[ICODE] interrupt.c:29: 	eproc _InterruptFunc [k1 lr0:0 so:0]{ ia0 a2p0 re0 rm0 nos0 ru0 dp0}{void function ( ) fixed}
                                           _00111_DS_:
00001f   113a     movf    0x3a, 0x0        	MOVF	___sdcc_saved_fsr,W
                                           	BANKSEL	FSR
000020   1984     movwf   0x04             	MOVWF	FSR
000021   1110     movf    0x10, 0x0        	MOVF	PSAVE,W
000022   198a     movwf   0x0a             	MOVWF	PCLATH
000023   1883     clrf    0x03             	CLRF	STATUS
000024   1711     swapf   0x11, 0x0        	SWAPF	SSAVE,W
000025   1983     movwf   0x03             	MOVWF	STATUS
000026   1792     swapf   0x12, 0x1        	SWAPF	WSAVE,F
000027   1712     swapf   0x12, 0x0        	SWAPF	WSAVE,W
                                           END_OF_INTERRUPT:
000028   0001     retfie                   	RETFIE	

                                           ;--------------------------------------------------------
                                           ; code
                                           ;--------------------------------------------------------
                                           code_interrupt	code

                                           ;	code size estimation:
                                           ;	   33+    2 =    35 instructions (   74 byte)

                                           	end
                                           ;--------------------------------------------------------
                                           ; File Created by SDCC : free open source ANSI-C Compiler
                                           ; Version 3.6.0 #9615 (CYGWIN)
                                           ;--------------------------------------------------------
                                           ; PIC port for the 14-bit core
                                           ;--------------------------------------------------------
                                           ;	.file	"key.c"
                                           	list	p=18p018a0
                                           	radix dec
                                           	include "p18p018a0.inc"
                                                  LIST

                                           ;==========================================================================
                                           ; Build date : Jun 02 2017
                                           ;  HCIDE HC18P018A0 processor include
                                           ; 
                                           ;  (c) Copyright 2012-2021 Holychip Technology, All rights reserved
                                           ;==========================================================================

                                                   NOLIST
                                           ;--------------------------------------------------------
                                           ; external declarations
                                           ;--------------------------------------------------------
                                           	extern	_ControlLevelLow
                                           	extern	_ControlLevelHigh
                                           	extern	_ControlLevel
                                           	extern	_ControlFlash
                                           	extern	_ControlSos
                                           	extern	_LedDisplay
                                           	extern	_LedOn
                                           	extern	_LedOff
                                           	extern	_MotoDisplay
                                           	extern	_LedSwitch
                                           	extern	_MotoSwitch
                                           	extern	_PowOn
                                           	extern	_PowOff
                                           	extern	_CountdownDisplay
                                           	extern	_STATUSbits
                                           	extern	_PORTBbits
                                           	extern	_PCONbits
                                           	extern	_IOCBbits
                                           	extern	_PDCONbits
                                           	extern	_ODCONbits
                                           	extern	_PHCONbits
                                           	extern	_INTECONbits
                                           	extern	_INTFLAGbits
                                           	extern	_OPTIONbits
                                           	extern	_TRISBbits
                                           	extern	_PWMCONbits
                                           	extern	_T0CRbits
                                           	extern	_T1CONbits
                                           	extern	_OSCCONbits
                                           	extern	_CMPCRbits
                                           	extern	_PDCON1bits
                                           	extern	_CHARGE0bits
                                           	extern	_CHARGE1bits
                                           	extern	_RAMPbits
                                           	extern	_AUXRbits
                                           	extern	_BITS_DATA0
                                           	extern	_BITS_DATA1
                                           	extern	_g_ucTimer10msCount
                                           	extern	_g_ucTimerWorkCount
                                           	extern	_TempCount
                                           	extern	_TempFlag
                                           	extern	_SleepCount
                                           	extern	_SleepFlag
                                           	extern	_MaxLight
                                           	extern	_INDF
                                           	extern	_T0
                                           	extern	_PCL
                                           	extern	_STATUS
                                           	extern	_FSR
                                           	extern	_PORTB
                                           	extern	_GPR
                                           	extern	_PCON
                                           	extern	_IOCB
                                           	extern	_PCLATH
                                           	extern	_PDCON
                                           	extern	_ODCON
                                           	extern	_PHCON
                                           	extern	_INTECON
                                           	extern	_INTFLAG
                                           	extern	_OPTION
                                           	extern	_TRISB
                                           	extern	_PWMCON
                                           	extern	_PWM1P
                                           	extern	_PWM2P
                                           	extern	_T0CR
                                           	extern	_T1CON
                                           	extern	_T1
                                           	extern	_T1LOAD
                                           	extern	_PWM0P
                                           	extern	_OSCCON
                                           	extern	_CMPCR
                                           	extern	_PDCON1
                                           	extern	_CHARGE0
                                           	extern	_CHARGE1
                                           	extern	_RAMP
                                           	extern	_AUXR
                                           	extern	_HIRCTRM

                                           	extern PSAVE
                                           	extern SSAVE
                                           	extern WSAVE
                                           	extern STK12
                                           	extern STK11
                                           	extern STK10
                                           	extern STK09
                                           	extern STK08
                                           	extern STK07
                                           	extern STK06
                                           	extern STK05
                                           	extern STK04
                                           	extern STK03
                                           	extern STK02
                                           	extern STK01
                                           	extern STK00
                                           ;--------------------------------------------------------
                                           ; global declarations
                                           ;--------------------------------------------------------
                                           	global	_ScanKey
                                           	global	_longpress_cnt
                                           	global	_clink_event
                                           	global	_long_f
                                           	global	_holdOn_f

                                           ;--------------------------------------------------------
                                           ; global definitions
                                           ;--------------------------------------------------------
                                           ;--------------------------------------------------------
                                           ; absolute symbol definitions
                                           ;--------------------------------------------------------
                                           ;--------------------------------------------------------
                                           ; compiler-defined variables
                                           ;--------------------------------------------------------
                                           UDL_key_0	udata
                                           r0x1008	res	1
                                           r0x1009	res	1
                                           ;--------------------------------------------------------
                                           ; initialized data
                                           ;--------------------------------------------------------

                                           ID_key_0	idata
                                           _longpress_cnt
                                           	db	0x00, 0x00


                                           ID_key_1	idata
                                           _clink_event
                                           	db	0x00


                                           ID_key_2	idata
                                           _long_f
                                           	db	0x00


                                           ID_key_3	idata
                                           _holdOn_f
                                           	db	0x00

                                           ;--------------------------------------------------------
                                           ; overlayable items in internal ram 
                                           ;--------------------------------------------------------
                                           ;	udata_ovr
                                           ;--------------------------------------------------------
                                           ; code
                                           ;--------------------------------------------------------
                                           code_key	code
                                           ;***
                                           ;  pBlock Stats: dbName = C
                                           ;***
                                           ;has an exit
                                           ;functions called:
                                           ;   _PowOn
                                           ;   _MotoSwitch
                                           ;   _LedSwitch
                                           ;   _PowOn
                                           ;   _PowOff
                                           ;   _PowOff
                                           ;   _PowOn
                                           ;   _MotoSwitch
                                           ;   _LedSwitch
                                           ;   _PowOn
                                           ;   _PowOff
                                           ;   _PowOff
                                           ;2 compiler assigned registers:
                                           ;   r0x1008
                                           ;   r0x1009
                                           ;; Starting pCode block
                                           ;;[ICODE] key.c:11:  _entry($43) :
                                           ;;[ICODE] key.c:11: 	proc _ScanKey [k1 lr0:0 so:0]{ ia0 a2p0 re0 rm0 nos0 ru0 dp0}{void function ( ) fixed}
                                           S_key__ScanKey	code
                                           _ScanKey:
                                           ; 2 exit points
                                           ;;[ICODE] key.c:14: 	iTemp1 [k5 lr3:5 so:0]{ ia0 a2p0 re0 rm1 nos0 ru0 dp0}{volatile-unsigned-bitfield {2,1} near* fixed}[remat] = &[_PORTBbits [k2 lr0:0 so:0]{ ia0 a2p0 re0 rm0 nos0 ru0 dp0}{volatile-struct __00000005 fixed} , 0x0 {const-unsigned-char literal}]
                                           ;;[ICODE] key.c:14: 	iTemp2 [k6 lr5:6 so:0]{ ia0 a2p0 re0 rm0 nos0 ru0 dp0}{volatile-unsigned-bitfield {2,1} fixed}[r0x104B ] = @[iTemp1 [k5 lr3:5 so:0]{ ia1 a2p0 re0 rm1 nos0 ru0 dp0}{volatile-unsigned-bitfield {2,1} near* fixed}[remat] + 0x0 {const-unsigned-char literal}]
                                           ;	.line	14; "key.c"	if(PORT_KEY_1 == 0 || PORT_KEY_2 == 0 || PORT_KEY_3 == 1 )
000029   3106     btfss   0x06, 0x2        	BTFSS	_PORTBbits,2
00002a   2035     goto    0x0035           	GOTO	_00141_DS_
                                           ;;[ICODE] key.c:14: 	if iTemp2 [k6 lr5:6 so:0]{ ia0 a2p0 re0 rm0 nos0 ru0 dp0}{volatile-unsigned-bitfield {2,1} fixed}[r0x104B ] == 0 goto __iftrue_15($37)
                                           ;;[ICODE] key.c:14: 	iTemp4 [k9 lr7:9 so:0]{ ia0 a2p0 re0 rm1 nos0 ru0 dp0}{volatile-unsigned-bitfield {4,1} near* fixed}[remat] = &[_PORTBbits [k2 lr0:0 so:0]{ ia0 a2p0 re0 rm0 nos0 ru0 dp0}{volatile-struct __00000005 fixed} , 0x0 {const-unsigned-char literal}]
                                           ;;[ICODE] key.c:14: 	iTemp5 [k10 lr9:10 so:0]{ ia0 a2p0 re0 rm0 nos0 ru0 dp0}{volatile-unsigned-bitfield {4,1} fixed}[r0x104B ] = @[iTemp4 [k9 lr7:9 so:0]{ ia1 a2p0 re0 rm1 nos0 ru0 dp0}{volatile-unsigned-bitfield {4,1} near* fixed}[remat] + 0x0 {const-unsigned-char literal}]
00002b   3206     btfss   0x06, 0x4        	BTFSS	_PORTBbits,4
00002c   2035     goto    0x0035           	GOTO	_00141_DS_
                                           ;;[ICODE] key.c:14: 	if iTemp5 [k10 lr9:10 so:0]{ ia0 a2p0 re0 rm0 nos0 ru0 dp0}{volatile-unsigned-bitfield {4,1} fixed}[r0x104B ] == 0 goto __iftrue_15($37)
                                           ;;[ICODE] key.c:14: 	iTemp7 [k13 lr11:13 so:0]{ ia0 a2p0 re0 rm1 nos0 ru0 dp0}{volatile-unsigned-bitfield {5,1} near* fixed}[remat] = &[_PORTBbits [k2 lr0:0 so:0]{ ia0 a2p0 re0 rm0 nos0 ru0 dp0}{volatile-struct __00000005 fixed} , 0x0 {const-unsigned-char literal}]
                                           ;;[ICODE] key.c:14: 	iTemp8 [k14 lr13:14 so:0]{ ia0 a2p0 re0 rm0 nos0 ru0 dp0}{volatile-unsigned-bitfield {5,1} fixed}[r0x104B ] = @[iTemp7 [k13 lr11:13 so:0]{ ia1 a2p0 re0 rm1 nos0 ru0 dp0}{volatile-unsigned-bitfield {5,1} near* fixed}[remat] + 0x0 {const-unsigned-char literal}]
00002d   18a6     clrf    0x26             	CLRF	r0x1008
00002e   3686     btfsc   0x06, 0x5        	BTFSC	_PORTBbits,5
00002f   13a6     incf    0x26, 0x1        	INCF	r0x1008,F
                                           ;;[ICODE] key.c:14: 	iTemp9 [k15 lr14:15 so:0]{ ia0 a2p0 re0 rm0 nos0 ru0 dp0}{char fixed}[r0x104C ] = (char register)iTemp8 [k14 lr13:14 so:0]{ ia0 a2p0 re0 rm0 nos0 ru0 dp0}{volatile-unsigned-bitfield {5,1} fixed}[r0x104B ]
000030   1126     movf    0x26, 0x0        	MOVF	r0x1008,W
000031   19a7     movwf   0x27             	MOVWF	r0x1009
000032   0d01     xorlw   0x01             	XORLW	0x01
000033   3103     btfss   0x03, 0x2        	BTFSS	STATUS,2
000034   2077     goto    0x0077           	GOTO	_00142_DS_
                                           ;;[ICODE] key.c:14: 	if iTemp10 [k16 lr15:16 so:0]{ ia0 a2p0 re0 rm0 nos0 ru0 dp0}{char fixed} == 0 goto __iffalse_15($38)
                                           ;;[ICODE] key.c:14:  __iftrue_15($37) :
                                           ;;[ICODE] key.c:17: 	iTemp11 [k18 lr18:19 so:0]{ ia0 a2p0 re0 rm0 nos0 ru0 dp0}{char fixed} = _longpress_cnt [k17 lr0:0 so:0]{ ia0 a2p0 re0 rm0 nos0 ru0 dp0}{unsigned-int fixed} < 0xffff {const-unsigned-int literal}
                                           ;;unsigned compare: left < lit(0xFFFF=65535), size=2
                                           _00141_DS_:
                                           ;	.line	17; "key.c"	if(longpress_cnt < 0xffff) {
000035   04ff     movlw   0xff             	MOVLW	0xff
000036   1b29     subwf   0x29, 0x0        	SUBWF	(_longpress_cnt + 1),W
000037   3103     btfss   0x03, 0x2        	BTFSS	STATUS,2
000038   203b     goto    0x003b           	GOTO	_00199_DS_
000039   04ff     movlw   0xff             	MOVLW	0xff
00003a   1b28     subwf   0x28, 0x0        	SUBWF	_longpress_cnt,W
                                           _00199_DS_:
00003b   3403     btfsc   0x03, 0x0        	BTFSC	STATUS,0
00003c   2042     goto    0x0042           	GOTO	_00106_DS_
                                           ;;genSkipc:3257: created from rifx:0x782c44
                                           ;;[ICODE] key.c:17: 	if iTemp11 [k18 lr18:19 so:0]{ ia0 a2p0 re0 rm0 nos0 ru0 dp0}{char fixed} == 0 goto __iffalse_0($2)
                                           ;;[ICODE] key.c:18: 	_longpress_cnt [k17 lr0:0 so:0]{ ia1 a2p0 re0 rm0 nos0 ru0 dp0}{unsigned-int fixed} = _longpress_cnt [k17 lr0:0 so:0]{ ia1 a2p0 re0 rm0 nos0 ru0 dp0}{unsigned-int fixed} + 0x1 {const-unsigned-char literal}
                                           ;	.line	18; "key.c"	longpress_cnt++;
00003d   13a8     incf    0x28, 0x1        	INCF	_longpress_cnt,F
00003e   3503     btfsc   0x03, 0x2        	BTFSC	STATUS,2
00003f   13a9     incf    0x29, 0x1        	INCF	(_longpress_cnt + 1),F
                                           ;;[ICODE] key.c:20: 	_SleepCount [k22 lr0:0 so:0]{ ia1 a2p0 re0 rm0 nos0 ru0 dp0}{unsigned-int fixed} := 0x0 {unsigned-int literal}
                                           ;	.line	20; "key.c"	SleepCount = 0;
000040   18ae     clrf    0x2e             	CLRF	_SleepCount
000041   18af     clrf    0x2f             	CLRF	(_SleepCount + 1)
                                           ;;[ICODE] key.c:20:  __iffalse_0($2) :
                                           ;;[ICODE] key.c:23: 	iTemp16 [k24 lr24:25 so:0]{ ia0 a2p0 re0 rm0 nos0 ru0 dp0}{char fixed} = _longpress_cnt [k17 lr0:0 so:0]{ ia0 a2p0 re0 rm0 nos0 ru0 dp0}{unsigned-int fixed} < 0x50 {unsigned-int literal}
                                           ;;unsigned compare: left < lit(0x50=80), size=2
                                           _00106_DS_:
                                           ;	.line	23; "key.c"	if(longpress_cnt < 80){
000042   0400     movlw   0x00             	MOVLW	0x00
000043   1b29     subwf   0x29, 0x0        	SUBWF	(_longpress_cnt + 1),W
000044   3103     btfss   0x03, 0x2        	BTFSS	STATUS,2
000045   2048     goto    0x0048           	GOTO	_00200_DS_
000046   0450     movlw   0x50             	MOVLW	0x50
000047   1b28     subwf   0x28, 0x0        	SUBWF	_longpress_cnt,W
                                           _00200_DS_:
000048   3403     btfsc   0x03, 0x0        	BTFSC	STATUS,0
000049   205e     goto    0x005e           	GOTO	_00116_DS_
                                           ;;genSkipc:3257: created from rifx:0x782c44
                                           ;;[ICODE] key.c:23: 	if iTemp16 [k24 lr24:25 so:0]{ ia0 a2p0 re0 rm0 nos0 ru0 dp0}{char fixed} == 0 goto __iffalse_4($12)
                                           ;;[ICODE] key.c:26: 	iTemp18 [k27 lr26:28 so:0]{ ia0 a2p0 re0 rm1 nos0 ru0 dp0}{volatile-unsigned-bitfield {2,1} near* fixed}[remat] = &[_PORTBbits [k2 lr0:0 so:0]{ ia0 a2p0 re0 rm0 nos0 ru0 dp0}{volatile-struct __00000005 fixed} , 0x0 {const-unsigned-char literal}]
                                           ;;[ICODE] key.c:26: 	iTemp19 [k28 lr28:29 so:0]{ ia0 a2p0 re0 rm0 nos0 ru0 dp0}{volatile-unsigned-bitfield {2,1} fixed}[r0x104B ] = @[iTemp18 [k27 lr26:28 so:0]{ ia1 a2p0 re0 rm1 nos0 ru0 dp0}{volatile-unsigned-bitfield {2,1} near* fixed}[remat] + 0x0 {const-unsigned-char literal}]
                                           ;	.line	26; "key.c"	if(PORT_KEY_1 == 0) {
00004a   3506     btfsc   0x06, 0x2        	BTFSC	_PORTBbits,2
00004b   204f     goto    0x004f           	GOTO	_00113_DS_
                                           ;;[ICODE] key.c:26: 	if iTemp19 [k28 lr28:29 so:0]{ ia0 a2p0 re0 rm0 nos0 ru0 dp0}{volatile-unsigned-bitfield {2,1} fixed}[r0x104B ] != 0 goto __iffalse_3($9)
                                           ;;[ICODE] key.c:28: 	_clink_event [k29 lr0:0 so:0]{ ia1 a2p0 re0 rm0 nos0 ru0 dp0}{unsigned-char fixed} := 0x1 {const-unsigned-char literal}
                                           ;	.line	28; "key.c"	clink_event = 1;  
00004c   0401     movlw   0x01             	MOVLW	0x01
00004d   19b0     movwf   0x30             	MOVWF	_clink_event
                                           ;;[ICODE] key.c:28: 	 goto __iffalse_4($12)
00004e   205e     goto    0x005e           	GOTO	_00116_DS_
                                           ;;[ICODE] key.c:28:  __iffalse_3($9) :
                                           ;;[ICODE] key.c:30: 	iTemp22 [k33 lr33:35 so:0]{ ia0 a2p0 re0 rm1 nos0 ru0 dp0}{volatile-unsigned-bitfield {4,1} near* fixed}[remat] = &[_PORTBbits [k2 lr0:0 so:0]{ ia0 a2p0 re0 rm0 nos0 ru0 dp0}{volatile-struct __00000005 fixed} , 0x0 {const-unsigned-char literal}]
                                           ;;[ICODE] key.c:30: 	iTemp23 [k34 lr35:36 so:0]{ ia0 a2p0 re0 rm0 nos0 ru0 dp0}{volatile-unsigned-bitfield {4,1} fixed}[r0x104B ] = @[iTemp22 [k33 lr33:35 so:0]{ ia1 a2p0 re0 rm1 nos0 ru0 dp0}{volatile-unsigned-bitfield {4,1} near* fixed}[remat] + 0x0 {const-unsigned-char literal}]
                                           _00113_DS_:
                                           ;	.line	30; "key.c"	} else if(PORT_KEY_2 == 0) {
00004f   3606     btfsc   0x06, 0x4        	BTFSC	_PORTBbits,4
000050   2054     goto    0x0054           	GOTO	_00110_DS_
                                           ;;[ICODE] key.c:30: 	if iTemp23 [k34 lr35:36 so:0]{ ia0 a2p0 re0 rm0 nos0 ru0 dp0}{volatile-unsigned-bitfield {4,1} fixed}[r0x104B ] != 0 goto __iffalse_2($6)
                                           ;;[ICODE] key.c:32: 	_clink_event [k29 lr0:0 so:0]{ ia1 a2p0 re0 rm0 nos0 ru0 dp0}{unsigned-char fixed} := 0x2 {const-unsigned-char literal}
                                           ;	.line	32; "key.c"	clink_event = 2; 
000051   0402     movlw   0x02             	MOVLW	0x02
000052   19b0     movwf   0x30             	MOVWF	_clink_event
                                           ;;[ICODE] key.c:32: 	 goto __iffalse_4($12)
000053   205e     goto    0x005e           	GOTO	_00116_DS_
                                           ;;[ICODE] key.c:32:  __iffalse_2($6) :
                                           ;;[ICODE] key.c:34: 	iTemp26 [k38 lr40:42 so:0]{ ia0 a2p0 re0 rm1 nos0 ru0 dp0}{volatile-unsigned-bitfield {5,1} near* fixed}[remat] = &[_PORTBbits [k2 lr0:0 so:0]{ ia0 a2p0 re0 rm0 nos0 ru0 dp0}{volatile-struct __00000005 fixed} , 0x0 {const-unsigned-char literal}]
                                           ;;[ICODE] key.c:34: 	iTemp27 [k39 lr42:43 so:0]{ ia0 a2p0 re0 rm0 nos0 ru0 dp0}{volatile-unsigned-bitfield {5,1} fixed}[r0x104B ] = @[iTemp26 [k38 lr40:42 so:0]{ ia1 a2p0 re0 rm1 nos0 ru0 dp0}{volatile-unsigned-bitfield {5,1} near* fixed}[remat] + 0x0 {const-unsigned-char literal}]
                                           _00110_DS_:
                                           ;	.line	34; "key.c"	} else if(PORT_KEY_3 == 1) {
000054   18a6     clrf    0x26             	CLRF	r0x1008
000055   3686     btfsc   0x06, 0x5        	BTFSC	_PORTBbits,5
000056   13a6     incf    0x26, 0x1        	INCF	r0x1008,F
                                           ;;[ICODE] key.c:34: 	iTemp28 [k40 lr43:44 so:0]{ ia0 a2p0 re0 rm0 nos0 ru0 dp0}{char fixed}[r0x104C ] = (char register)iTemp27 [k39 lr42:43 so:0]{ ia0 a2p0 re0 rm0 nos0 ru0 dp0}{volatile-unsigned-bitfield {5,1} fixed}[r0x104B ]
000057   1126     movf    0x26, 0x0        	MOVF	r0x1008,W
000058   19a7     movwf   0x27             	MOVWF	r0x1009
000059   0d01     xorlw   0x01             	XORLW	0x01
00005a   3103     btfss   0x03, 0x2        	BTFSS	STATUS,2
00005b   205e     goto    0x005e           	GOTO	_00116_DS_
                                           ;;[ICODE] key.c:34: 	if iTemp29 [k41 lr44:45 so:0]{ ia0 a2p0 re0 rm0 nos0 ru0 dp0}{char fixed} == 0 goto __iffalse_4($12)
                                           ;;[ICODE] key.c:36: 	_clink_event [k29 lr0:0 so:0]{ ia1 a2p0 re0 rm0 nos0 ru0 dp0}{unsigned-char fixed} := 0x3 {const-unsigned-char literal}
                                           ;	.line	36; "key.c"	clink_event = 3; 
00005c   0403     movlw   0x03             	MOVLW	0x03
00005d   19b0     movwf   0x30             	MOVWF	_clink_event
                                           ;;[ICODE] key.c:36:  __iffalse_4($12) :
                                           ;;[ICODE] key.c:43: 	iTemp31 [k43 lr48:49 so:0]{ ia0 a2p0 re0 rm0 nos0 ru0 dp0}{bit fixed} = _longpress_cnt [k17 lr0:0 so:0]{ ia0 a2p0 re0 rm0 nos0 ru0 dp0}{unsigned-int fixed} < 0x64 {unsigned-int literal}
                                           ;;unsigned compare: left < lit(0x64=100), size=2
                                           _00116_DS_:
                                           ;	.line	43; "key.c"	if(longpress_cnt >= 100){
00005e   0400     movlw   0x00             	MOVLW	0x00
00005f   1b29     subwf   0x29, 0x0        	SUBWF	(_longpress_cnt + 1),W
000060   3103     btfss   0x03, 0x2        	BTFSS	STATUS,2
000061   2064     goto    0x0064           	GOTO	_00201_DS_
000062   0464     movlw   0x64             	MOVLW	0x64
000063   1b28     subwf   0x28, 0x0        	SUBWF	_longpress_cnt,W
                                           _00201_DS_:
000064   3003     btfss   0x03, 0x0        	BTFSS	STATUS,0
000065   20aa     goto    0x00aa           	GOTO	_00146_DS_
                                           ;;genSkipc:3257: created from rifx:0x782c44
                                           ;;[ICODE] key.c:43: 	if iTemp31 [k43 lr48:49 so:0]{ ia0 a2p0 re0 rm0 nos0 ru0 dp0}{bit fixed} != 0 goto _return($42)
                                           ;;[ICODE] key.c:45: 	_clink_event [k29 lr0:0 so:0]{ ia1 a2p0 re0 rm0 nos0 ru0 dp0}{unsigned-char fixed} := 0x0 {const-unsigned-char literal}
                                           ;	.line	45; "key.c"	clink_event = 0;
000066   18b0     clrf    0x30             	CLRF	_clink_event
                                           ;;[ICODE] key.c:47: 	iTemp34 [k47 lr51:53 so:0]{ ia0 a2p0 re0 rm1 nos0 ru0 dp0}{volatile-unsigned-bitfield {5,1} near* fixed}[remat] = &[_PORTBbits [k2 lr0:0 so:0]{ ia0 a2p0 re0 rm0 nos0 ru0 dp0}{volatile-struct __00000005 fixed} , 0x0 {const-unsigned-char literal}]
                                           ;;[ICODE] key.c:47: 	iTemp35 [k48 lr53:54 so:0]{ ia0 a2p0 re0 rm0 nos0 ru0 dp0}{volatile-unsigned-bitfield {5,1} fixed}[r0x104B ] = @[iTemp34 [k47 lr51:53 so:0]{ ia1 a2p0 re0 rm1 nos0 ru0 dp0}{volatile-unsigned-bitfield {5,1} near* fixed}[remat] + 0x0 {const-unsigned-char literal}]
                                           ;	.line	47; "key.c"	if(PORT_KEY_3 == 1){
000067   18a6     clrf    0x26             	CLRF	r0x1008
000068   3686     btfsc   0x06, 0x5        	BTFSC	_PORTBbits,5
000069   13a6     incf    0x26, 0x1        	INCF	r0x1008,F
                                           ;;[ICODE] key.c:47: 	iTemp36 [k49 lr54:55 so:0]{ ia0 a2p0 re0 rm0 nos0 ru0 dp0}{char fixed}[r0x104C ] = (char register)iTemp35 [k48 lr53:54 so:0]{ ia0 a2p0 re0 rm0 nos0 ru0 dp0}{volatile-unsigned-bitfield {5,1} fixed}[r0x104B ]
00006a   1126     movf    0x26, 0x0        	MOVF	r0x1008,W
00006b   19a7     movwf   0x27             	MOVWF	r0x1009
00006c   0d01     xorlw   0x01             	XORLW	0x01
00006d   3103     btfss   0x03, 0x2        	BTFSS	STATUS,2
00006e   20aa     goto    0x00aa           	GOTO	_00146_DS_
                                           ;;[ICODE] key.c:47: 	if iTemp37 [k50 lr55:56 so:0]{ ia0 a2p0 re0 rm0 nos0 ru0 dp0}{char fixed} == 0 goto _return($42)
                                           ;;[ICODE] key.c:48: 	_long_f [k51 lr0:0 so:0]{ ia1 a2p0 re0 rm0 nos0 ru0 dp0}{unsigned-char fixed} := 0x1 {const-unsigned-char literal}
                                           ;	.line	48; "key.c"	long_f = 1;
00006f   0401     movlw   0x01             	MOVLW	0x01
000070   19b1     movwf   0x31             	MOVWF	_long_f
                                           ;;[ICODE] key.c:50: 	iTemp39 [k54 lr58:59 so:0]{ ia0 a2p0 re0 rm0 nos0 ru0 dp0}{char fixed} = _g_ucTimerWorkCount [k53 lr0:0 so:0]{ ia0 a2p0 re0 rm0 nos0 ru0 dp0}{unsigned-char fixed} < 0xff {const-unsigned-char literal}
                                           ;;unsigned compare: left < lit(0xFF=255), size=1
                                           ;	.line	50; "key.c"	if(g_ucTimerWorkCount <  0xff) {
000071   04ff     movlw   0xff             	MOVLW	0xff
                                           ;	.line	51; "key.c"	g_ucTimerWorkCount++;
000072   1b35     subwf   0x35, 0x0        	SUBWF	_g_ucTimerWorkCount,W
                                           ;	.line	53; "key.c"	PowOn();
000073   3003     btfss   0x03, 0x0        	BTFSS	STATUS,0
000074   13b5     incf    0x35, 0x1        	INCF	_g_ucTimerWorkCount,F
000075   2aa0     call    0x02a0           	CALL	_PowOn
000076   20aa     goto    0x00aa           	GOTO	_00146_DS_
                                           ;;[ICODE] key.c:53:  __iffalse_15($38) :
                                           ;;[ICODE] key.c:61: 	_longpress_cnt [k17 lr0:0 so:0]{ ia1 a2p0 re0 rm0 nos0 ru0 dp0}{unsigned-int fixed} := 0x0 {unsigned-int literal}
                                           _00142_DS_:
                                           ;	.line	61; "key.c"	longpress_cnt = 0;
000077   18a8     clrf    0x28             	CLRF	_longpress_cnt
000078   18a9     clrf    0x29             	CLRF	(_longpress_cnt + 1)
                                           ;;[ICODE] key.c:63: 	iTemp45 [k61 lr67:68 so:0]{ ia0 a2p0 re0 rm0 nos0 ru0 dp0}{char fixed} = _clink_event [k29 lr0:0 so:0]{ ia0 a2p0 re0 rm0 nos0 ru0 dp0}{unsigned-char fixed} == 0x1 {const-unsigned-char literal}
                                           ;	.line	63; "key.c"	if(clink_event == 1){
000079   1130     movf    0x30, 0x0        	MOVF	_clink_event,W
00007a   0d01     xorlw   0x01             	XORLW	0x01
00007b   3103     btfss   0x03, 0x2        	BTFSS	STATUS,2
00007c   2080     goto    0x0080           	GOTO	_00129_DS_
                                           ;;[ICODE] key.c:63: 	if iTemp45 [k61 lr67:68 so:0]{ ia0 a2p0 re0 rm0 nos0 ru0 dp0}{char fixed} == 0 goto __iffalse_10($25)
                                           ;;[ICODE] key.c:65: 	_clink_event [k29 lr0:0 so:0]{ ia1 a2p0 re0 rm0 nos0 ru0 dp0}{unsigned-char fixed} := 0x0 {const-unsigned-char literal}
                                           ;	.line	65; "key.c"	clink_event = 0;
00007d   18b0     clrf    0x30             	CLRF	_clink_event
                                           ;;[ICODE] key.c:68: 	iTemp47 [k64 lr70:70 so:0]{ ia0 a2p0 re0 rm0 nos0 ru0 dp0}{void fixed} = call _MotoSwitch [k63 lr0:0 so:0]{ ia0 a2p0 re0 rm0 nos0 ru0 dp0}{void function ( ) fixed}
                                           ;	.line	68; "key.c"	MotoSwitch();
00007e   2a0a     call    0x020a           	CALL	_MotoSwitch
                                           ;;[ICODE] key.c:68: 	 goto __ifend_10($26)
00007f   2090     goto    0x0090           	GOTO	_00130_DS_
                                           ;;[ICODE] key.c:68:  __iffalse_10($25) :
                                           ;;[ICODE] key.c:69: 	iTemp48 [k65 lr73:74 so:0]{ ia0 a2p0 re0 rm0 nos0 ru0 dp0}{char fixed} = _clink_event [k29 lr0:0 so:0]{ ia0 a2p0 re0 rm0 nos0 ru0 dp0}{unsigned-char fixed} == 0x2 {const-unsigned-char literal}
                                           _00129_DS_:
                                           ;	.line	69; "key.c"	} else if(clink_event == 2){
000080   1130     movf    0x30, 0x0        	MOVF	_clink_event,W
000081   0d02     xorlw   0x02             	XORLW	0x02
000082   3103     btfss   0x03, 0x2        	BTFSS	STATUS,2
000083   2087     goto    0x0087           	GOTO	_00126_DS_
                                           ;;[ICODE] key.c:69: 	if iTemp48 [k65 lr73:74 so:0]{ ia0 a2p0 re0 rm0 nos0 ru0 dp0}{char fixed} == 0 goto __iffalse_9($22)
                                           ;;[ICODE] key.c:70: 	_clink_event [k29 lr0:0 so:0]{ ia1 a2p0 re0 rm0 nos0 ru0 dp0}{unsigned-char fixed} := 0x0 {const-unsigned-char literal}
                                           ;	.line	70; "key.c"	clink_event = 0;
000084   18b0     clrf    0x30             	CLRF	_clink_event
                                           ;;[ICODE] key.c:73: 	iTemp50 [k68 lr76:76 so:0]{ ia0 a2p0 re0 rm0 nos0 ru0 dp0}{void fixed} = call _LedSwitch [k67 lr0:0 so:0]{ ia0 a2p0 re0 rm0 nos0 ru0 dp0}{void function ( ) fixed}
                                           ;	.line	73; "key.c"	LedSwitch();
000085   2a18     call    0x0218           	CALL	_LedSwitch
                                           ;;[ICODE] key.c:73: 	 goto __ifend_10($26)
000086   2090     goto    0x0090           	GOTO	_00130_DS_
                                           ;;[ICODE] key.c:73:  __iffalse_9($22) :
                                           ;;[ICODE] key.c:75: 	iTemp51 [k69 lr79:80 so:0]{ ia0 a2p0 re0 rm0 nos0 ru0 dp0}{char fixed} = _clink_event [k29 lr0:0 so:0]{ ia0 a2p0 re0 rm0 nos0 ru0 dp0}{unsigned-char fixed} == 0x3 {const-unsigned-char literal}
                                           _00126_DS_:
                                           ;	.line	75; "key.c"	} else if(clink_event == 3){
000087   1130     movf    0x30, 0x0        	MOVF	_clink_event,W
000088   0d03     xorlw   0x03             	XORLW	0x03
000089   3103     btfss   0x03, 0x2        	BTFSS	STATUS,2
00008a   2090     goto    0x0090           	GOTO	_00130_DS_
                                           ;;[ICODE] key.c:75: 	if iTemp51 [k69 lr79:80 so:0]{ ia0 a2p0 re0 rm0 nos0 ru0 dp0}{char fixed} == 0 goto __ifend_10($26)
                                           ;;[ICODE] key.c:77: 	_clink_event [k29 lr0:0 so:0]{ ia1 a2p0 re0 rm0 nos0 ru0 dp0}{unsigned-char fixed} := 0x0 {const-unsigned-char literal}
                                           ;	.line	77; "key.c"	clink_event = 0;
00008b   18b0     clrf    0x30             	CLRF	_clink_event
                                           ;;[ICODE] key.c:79: 	iTemp53 [k71 lr82:82 so:0]{ ia0 a2p0 re0 rm0 nos0 ru0 dp0}{void fixed} = call _PowOn [k58 lr0:0 so:0]{ ia0 a2p0 re0 rm0 nos0 ru0 dp0}{void function ( ) fixed}
                                           ;	.line	79; "key.c"	PowOn();
00008c   2aa0     call    0x02a0           	CALL	_PowOn
                                           ;;[ICODE] key.c:80: 	_g_ucTimerWorkCount [k53 lr0:0 so:0]{ ia1 a2p0 re0 rm0 nos0 ru0 dp0}{unsigned-char fixed} = _g_ucTimerWorkCount [k53 lr0:0 so:0]{ ia1 a2p0 re0 rm0 nos0 ru0 dp0}{unsigned-char fixed} + 0x1 {const-unsigned-char literal}
                                           ;	.line	80; "key.c"	g_ucTimerWorkCount++;  //10ms
00008d   13b5     incf    0x35, 0x1        	INCF	_g_ucTimerWorkCount,F
                                           ;;[ICODE] key.c:81: 	_holdOn_f [k75 lr0:0 so:0]{ ia1 a2p0 re0 rm0 nos0 ru0 dp0}{unsigned-char fixed} := 0x1 {const-unsigned-char literal}
                                           ;	.line	81; "key.c"	holdOn_f = 1;
00008e   0401     movlw   0x01             	MOVLW	0x01
00008f   19b2     movwf   0x32             	MOVWF	_holdOn_f
                                           ;;[ICODE] key.c:81:  __ifend_10($26) :
                                           ;;[ICODE] key.c:87: 	if _holdOn_f [k75 lr0:0 so:0]{ ia0 a2p0 re0 rm0 nos0 ru0 dp0}{unsigned-char fixed} == 0 goto __iffalse_12($31)
                                           _00130_DS_:
                                           ;	.line	87; "key.c"	if(holdOn_f) {
000090   0400     movlw   0x00             	MOVLW	0x00
000091   1d32     iorwf   0x32, 0x0        	IORWF	_holdOn_f,W
000092   3503     btfsc   0x03, 0x2        	BTFSC	STATUS,2
000093   209d     goto    0x009d           	GOTO	_00135_DS_
                                           ;;[ICODE] key.c:89: 	iTemp58 [k77 lr88:89 so:0]{ ia0 a2p0 re0 rm0 nos0 ru0 dp0}{char fixed} = _g_ucTimerWorkCount [k53 lr0:0 so:0]{ ia0 a2p0 re0 rm0 nos0 ru0 dp0}{unsigned-char fixed} < 0x3c {const-unsigned-char literal}
                                           ;;unsigned compare: left < lit(0x3C=60), size=1
                                           ;	.line	89; "key.c"	if(g_ucTimerWorkCount <  60) {
000094   043c     movlw   0x3c             	MOVLW	0x3c
000095   1b35     subwf   0x35, 0x0        	SUBWF	_g_ucTimerWorkCount,W
000096   3403     btfsc   0x03, 0x0        	BTFSC	STATUS,0
000097   209a     goto    0x009a           	GOTO	_00132_DS_
                                           ;;genSkipc:3257: created from rifx:0x782c44
                                           ;;[ICODE] key.c:89: 	if iTemp58 [k77 lr88:89 so:0]{ ia0 a2p0 re0 rm0 nos0 ru0 dp0}{char fixed} == 0 goto __iffalse_11($28)
                                           ;;[ICODE] key.c:90: 	_g_ucTimerWorkCount [k53 lr0:0 so:0]{ ia1 a2p0 re0 rm0 nos0 ru0 dp0}{unsigned-char fixed} = _g_ucTimerWorkCount [k53 lr0:0 so:0]{ ia1 a2p0 re0 rm0 nos0 ru0 dp0}{unsigned-char fixed} + 0x1 {const-unsigned-char literal}
                                           ;	.line	90; "key.c"	g_ucTimerWorkCount++;
000098   13b5     incf    0x35, 0x1        	INCF	_g_ucTimerWorkCount,F
                                           ;;[ICODE] key.c:90: 	 goto __iffalse_12($31)
000099   209d     goto    0x009d           	GOTO	_00135_DS_
                                           ;;[ICODE] key.c:90:  __iffalse_11($28) :
                                           ;;[ICODE] key.c:92: 	_holdOn_f [k75 lr0:0 so:0]{ ia1 a2p0 re0 rm0 nos0 ru0 dp0}{unsigned-char fixed} := 0x0 {const-unsigned-char literal}
                                           _00132_DS_:
                                           ;	.line	92; "key.c"	holdOn_f = 0;
00009a   18b2     clrf    0x32             	CLRF	_holdOn_f
                                           ;;[ICODE] key.c:93: 	_g_ucTimerWorkCount [k53 lr0:0 so:0]{ ia1 a2p0 re0 rm0 nos0 ru0 dp0}{unsigned-char fixed} := 0x0 {const-unsigned-char literal}
                                           ;	.line	93; "key.c"	g_ucTimerWorkCount = 0;
00009b   18b5     clrf    0x35             	CLRF	_g_ucTimerWorkCount
                                           ;;[ICODE] key.c:94: 	iTemp64 [k84 lr96:96 so:0]{ ia0 a2p0 re0 rm0 nos0 ru0 dp0}{void fixed} = call _PowOff [k83 lr0:0 so:0]{ ia0 a2p0 re0 rm0 nos0 ru0 dp0}{void function ( ) fixed}
                                           ;	.line	94; "key.c"	PowOff();
00009c   2a9e     call    0x029e           	CALL	_PowOff
                                           ;;[ICODE] key.c:94:  __iffalse_12($31) :
                                           ;;[ICODE] key.c:102: 	if _long_f [k51 lr0:0 so:0]{ ia0 a2p0 re0 rm0 nos0 ru0 dp0}{unsigned-char fixed} == 0 goto _return($42)
                                           _00135_DS_:
                                           ;	.line	102; "key.c"	if(long_f){
00009d   0400     movlw   0x00             	MOVLW	0x00
00009e   1d31     iorwf   0x31, 0x0        	IORWF	_long_f,W
00009f   3503     btfsc   0x03, 0x2        	BTFSC	STATUS,2
0000a0   20aa     goto    0x00aa           	GOTO	_00146_DS_
                                           ;;[ICODE] key.c:104: 	iTemp65 [k85 lr99:100 so:0]{ ia0 a2p0 re0 rm0 nos0 ru0 dp0}{char fixed} = _g_ucTimerWorkCount [k53 lr0:0 so:0]{ ia0 a2p0 re0 rm0 nos0 ru0 dp0}{unsigned-char fixed} < 0x3c {const-unsigned-char literal}
                                           ;;unsigned compare: left < lit(0x3C=60), size=1
                                           ;	.line	104; "key.c"	if(g_ucTimerWorkCount <  60) {
0000a1   043c     movlw   0x3c             	MOVLW	0x3c
0000a2   1b35     subwf   0x35, 0x0        	SUBWF	_g_ucTimerWorkCount,W
0000a3   3403     btfsc   0x03, 0x0        	BTFSC	STATUS,0
0000a4   20a7     goto    0x00a7           	GOTO	_00137_DS_
                                           ;;genSkipc:3257: created from rifx:0x782c44
                                           ;;[ICODE] key.c:104: 	if iTemp65 [k85 lr99:100 so:0]{ ia0 a2p0 re0 rm0 nos0 ru0 dp0}{char fixed} == 0 goto __iffalse_13($33)
                                           ;;[ICODE] key.c:106: 	_g_ucTimerWorkCount [k53 lr0:0 so:0]{ ia1 a2p0 re0 rm0 nos0 ru0 dp0}{unsigned-char fixed} = _g_ucTimerWorkCount [k53 lr0:0 so:0]{ ia1 a2p0 re0 rm0 nos0 ru0 dp0}{unsigned-char fixed} + 0x1 {const-unsigned-char literal}
                                           ;	.line	106; "key.c"	g_ucTimerWorkCount++;
0000a5   13b5     incf    0x35, 0x1        	INCF	_g_ucTimerWorkCount,F
                                           ;;[ICODE] key.c:106: 	 goto _return($42)
0000a6   20aa     goto    0x00aa           	GOTO	_00146_DS_
                                           ;;[ICODE] key.c:106:  __iffalse_13($33) :
                                           ;;[ICODE] key.c:110: 	_long_f [k51 lr0:0 so:0]{ ia1 a2p0 re0 rm0 nos0 ru0 dp0}{unsigned-char fixed} := 0x0 {const-unsigned-char literal}
                                           _00137_DS_:
                                           ;	.line	110; "key.c"	long_f = 0;
0000a7   18b1     clrf    0x31             	CLRF	_long_f
                                           ;;[ICODE] key.c:111: 	_g_ucTimerWorkCount [k53 lr0:0 so:0]{ ia1 a2p0 re0 rm0 nos0 ru0 dp0}{unsigned-char fixed} := 0x0 {const-unsigned-char literal}
                                           ;	.line	111; "key.c"	g_ucTimerWorkCount = 0;
0000a8   18b5     clrf    0x35             	CLRF	_g_ucTimerWorkCount
                                           ;;[ICODE] key.c:112: 	iTemp71 [k91 lr107:107 so:0]{ ia0 a2p0 re0 rm0 nos0 ru0 dp0}{void fixed} = call _PowOff [k83 lr0:0 so:0]{ ia0 a2p0 re0 rm0 nos0 ru0 dp0}{void function ( ) fixed}
                                           ;	.line	112; "key.c"	PowOff();
0000a9   2a9e     call    0x029e           	CALL	_PowOff
                                           ;;[ICODE] key.c:112:  _return($42) :
                                           ;;[ICODE] key.c:112: 	eproc _ScanKey [k1 lr0:0 so:0]{ ia0 a2p0 re0 rm0 nos0 ru0 dp0}{void function ( ) fixed}
                                           _00146_DS_:
0000aa   0002     return                   	RETURN	
                                           ; exit point of _ScanKey


                                           ;	code size estimation:
                                           ;	  130+    0 =   130 instructions (  260 byte)

                                           	end
                                           ;--------------------------------------------------------
                                           ; File Created by SDCC : free open source ANSI-C Compiler
                                           ; Version 3.6.0 #9615 (CYGWIN)
                                           ;--------------------------------------------------------
                                           ; PIC port for the 14-bit core
                                           ;--------------------------------------------------------
                                           ;	.file	"led.c"
                                           	list	p=18p018a0
                                           	radix dec
                                           	include "p18p018a0.inc"
                                                  LIST

                                           ;==========================================================================
                                           ; Build date : Jun 02 2017
                                           ;  HCIDE HC18P018A0 processor include
                                           ; 
                                           ;  (c) Copyright 2012-2021 Holychip Technology, All rights reserved
                                           ;==========================================================================

                                                   NOLIST
                                           ;--------------------------------------------------------
                                           ; external declarations
                                           ;--------------------------------------------------------
                                           	extern	_InitPort
                                           	extern	_InitSystem
                                           	extern	_InitPwm
                                           	extern	_InitRam
                                           	extern	_STATUSbits
                                           	extern	_PORTBbits
                                           	extern	_PCONbits
                                           	extern	_IOCBbits
                                           	extern	_PDCONbits
                                           	extern	_ODCONbits
                                           	extern	_PHCONbits
                                           	extern	_INTECONbits
                                           	extern	_INTFLAGbits
                                           	extern	_OPTIONbits
                                           	extern	_TRISBbits
                                           	extern	_PWMCONbits
                                           	extern	_T0CRbits
                                           	extern	_T1CONbits
                                           	extern	_OSCCONbits
                                           	extern	_CMPCRbits
                                           	extern	_PDCON1bits
                                           	extern	_CHARGE0bits
                                           	extern	_CHARGE1bits
                                           	extern	_RAMPbits
                                           	extern	_AUXRbits
                                           	extern	_BITS_DATA0
                                           	extern	_BITS_DATA1
                                           	extern	_g_ucTimer10msCount
                                           	extern	_g_ucTimerWorkCount
                                           	extern	_TempCount
                                           	extern	_TempFlag
                                           	extern	_SleepCount
                                           	extern	_SleepFlag
                                           	extern	_MaxLight
                                           	extern	_INDF
                                           	extern	_T0
                                           	extern	_PCL
                                           	extern	_STATUS
                                           	extern	_FSR
                                           	extern	_PORTB
                                           	extern	_GPR
                                           	extern	_PCON
                                           	extern	_IOCB
                                           	extern	_PCLATH
                                           	extern	_PDCON
                                           	extern	_ODCON
                                           	extern	_PHCON
                                           	extern	_INTECON
                                           	extern	_INTFLAG
                                           	extern	_OPTION
                                           	extern	_TRISB
                                           	extern	_PWMCON
                                           	extern	_PWM1P
                                           	extern	_PWM2P
                                           	extern	_T0CR
                                           	extern	_T1CON
                                           	extern	_T1
                                           	extern	_T1LOAD
                                           	extern	_PWM0P
                                           	extern	_OSCCON
                                           	extern	_CMPCR
                                           	extern	_PDCON1
                                           	extern	_CHARGE0
                                           	extern	_CHARGE1
                                           	extern	_RAMP
                                           	extern	_AUXR
                                           	extern	_HIRCTRM

                                           	extern PSAVE
                                           	extern SSAVE
                                           	extern WSAVE
                                           	extern STK12
                                           	extern STK11
                                           	extern STK10
                                           	extern STK09
                                           	extern STK08
                                           	extern STK07
                                           	extern STK06
                                           	extern STK05
                                           	extern STK04
                                           	extern STK03
                                           	extern STK02
                                           	extern STK01
                                           	extern STK00
                                           ;--------------------------------------------------------
                                           ; global declarations
                                           ;--------------------------------------------------------
                                           	global	_CountdownDisplay
                                           	global	_PowOff
                                           	global	_PowOn
                                           	global	_MotoDisplay
                                           	global	_MotoSwitch
                                           	global	_LedOff
                                           	global	_LedOn
                                           	global	_LedDisplay
                                           	global	_LedSwitch
                                           	global	_MotoOn
                                           	global	_MotoOff
                                           	global	_lampTiming
                                           	global	_motoTiming

                                           ;--------------------------------------------------------
                                           ; global definitions
                                           ;--------------------------------------------------------
                                           ;--------------------------------------------------------
                                           ; absolute symbol definitions
                                           ;--------------------------------------------------------
                                           ;--------------------------------------------------------
                                           ; compiler-defined variables
                                           ;--------------------------------------------------------
                                           UDL_led_0	udata
                                           r0x1011	res	1
                                           r0x100F	res	1
                                           r0x100D	res	1
                                           r0x100B	res	1
                                           r0x1009	res	1
                                           r0x100A	res	1
                                           ;--------------------------------------------------------
                                           ; initialized data
                                           ;--------------------------------------------------------

                                           ID_led_0	idata
                                           _lampTiming
                                           	db	0x00, 0x00, 0x00, 0x00


                                           ID_led_1	idata
                                           _motoTiming
                                           	db	0x00, 0x00, 0x00, 0x00

                                           ;--------------------------------------------------------
                                           ; overlayable items in internal ram 
                                           ;--------------------------------------------------------
                                           ;	udata_ovr
                                           ;--------------------------------------------------------
                                           ; code
                                           ;--------------------------------------------------------
                                           code_led	code
                                           ;***
                                           ;  pBlock Stats: dbName = C
                                           ;***
                                           ;has an exit
                                           ;2 compiler assigned registers:
                                           ;   r0x1009
                                           ;   r0x100A
                                           ;; Starting pCode block
                                           ;;[ICODE] led.c:149:  _entry($12) :
                                           ;;[ICODE] led.c:149: 	proc _CountdownDisplay [k1 lr0:0 so:0]{ ia0 a2p0 re0 rm0 nos0 ru0 dp0}{void function ( ) fixed}
                                           S_led__CountdownDisplay	code
                                           _CountdownDisplay:
                                           ; 2 exit points
                                           ;;[ICODE] led.c:153: 	iTemp0 [k3 lr3:13 so:0]{ ia0 a2p0 re0 rm1 nos0 ru0 dp0}{unsigned-bitfield {5,1} near* fixed}[remat] = &[_BITS_DATA0 [k2 lr0:0 so:0]{ ia0 a2p0 re0 rm0 nos0 ru0 dp0}{struct __bits8_t fixed} , 0x0 {const-unsigned-char literal}]
                                           ;;[ICODE] led.c:153: 	iTemp1 [k5 lr4:5 so:0]{ ia0 a2p0 re0 rm1 nos0 ru0 dp0}{unsigned-bitfield {5,1} near* fixed}[remat] := iTemp0 [k3 lr3:13 so:0]{ ia0 a2p0 re0 rm1 nos0 ru0 dp0}{unsigned-bitfield {5,1} near* fixed}[remat]
                                           ;;[ICODE] led.c:153: 	iTemp2 [k6 lr5:6 so:0]{ ia0 a2p0 re0 rm0 nos0 ru0 dp0}{unsigned-bitfield {5,1} fixed}[r0x1050 ] = @[iTemp1 [k5 lr4:5 so:0]{ ia1 a2p0 re0 rm1 nos0 ru0 dp0}{unsigned-bitfield {5,1} near* fixed}[remat] + 0x0 {const-unsigned-char literal}]
                                           ;	.line	153; "led.c"	if(IsLight == 1) {
00014c   18e4     clrf    0x64             	CLRF	r0x1009
00014d   36b3     btfsc   0x33, 0x5        	BTFSC	_BITS_DATA0,5
00014e   13e4     incf    0x64, 0x1        	INCF	r0x1009,F
                                           ;;[ICODE] led.c:153: 	iTemp3 [k7 lr6:7 so:0]{ ia0 a2p0 re0 rm0 nos0 ru0 dp0}{char fixed}[r0x1051 ] = (char register)iTemp2 [k6 lr5:6 so:0]{ ia0 a2p0 re0 rm0 nos0 ru0 dp0}{unsigned-bitfield {5,1} fixed}[r0x1050 ]
00014f   1164     movf    0x64, 0x0        	MOVF	r0x1009,W
000150   19e5     movwf   0x65             	MOVWF	r0x100A
000151   0d01     xorlw   0x01             	XORLW	0x01
000152   3103     btfss   0x03, 0x2        	BTFSS	STATUS,2
000153   216d     goto    0x016d           	GOTO	_00156_DS_
                                           ;;[ICODE] led.c:153: 	if iTemp4 [k8 lr7:8 so:0]{ ia0 a2p0 re0 rm0 nos0 ru0 dp0}{char fixed} == 0 goto __iffalse_3($4)
                                           ;;[ICODE] led.c:155: 	_lampTiming [k9 lr0:0 so:0]{ ia1 a2p0 re0 rm0 nos0 ru0 dp0}{unsigned-long-int fixed} = _lampTiming [k9 lr0:0 so:0]{ ia1 a2p0 re0 rm0 nos0 ru0 dp0}{unsigned-long-int fixed} + 0x1 {const-unsigned-char literal}
                                           ;	.line	155; "led.c"	lampTiming++;
000154   13e6     incf    0x66, 0x1        	INCF	_lampTiming,F
000155   3503     btfsc   0x03, 0x2        	BTFSC	STATUS,2
000156   13e7     incf    0x67, 0x1        	INCF	(_lampTiming + 1),F
000157   3503     btfsc   0x03, 0x2        	BTFSC	STATUS,2
000158   13e8     incf    0x68, 0x1        	INCF	(_lampTiming + 2),F
000159   3503     btfsc   0x03, 0x2        	BTFSC	STATUS,2
00015a   13e9     incf    0x69, 0x1        	INCF	(_lampTiming + 3),F
                                           ;;[ICODE] led.c:157: 	iTemp8 [k13 lr11:12 so:0]{ ia0 a2p0 re0 rm0 nos0 ru0 dp0}{char fixed} = _lampTiming [k9 lr0:0 so:0]{ ia0 a2p0 re0 rm0 nos0 ru0 dp0}{unsigned-long-int fixed} > 0x1e460 {unsigned-long-int literal}
                                           ;;swapping arguments (AOP_TYPEs 1/3)
                                           ;;unsigned compare: left >= lit(0x1E461=124001), size=4
                                           ;	.line	157; "led.c"	if(lampTiming > 124000) {    //20
00015b   0400     movlw   0x00             	MOVLW	0x00
00015c   1b69     subwf   0x69, 0x0        	SUBWF	(_lampTiming + 3),W
00015d   3103     btfss   0x03, 0x2        	BTFSS	STATUS,2
00015e   2169     goto    0x0169           	GOTO	_00177_DS_
00015f   0401     movlw   0x01             	MOVLW	0x01
000160   1b68     subwf   0x68, 0x0        	SUBWF	(_lampTiming + 2),W
000161   3103     btfss   0x03, 0x2        	BTFSS	STATUS,2
000162   2169     goto    0x0169           	GOTO	_00177_DS_
000163   04e4     movlw   0xe4             	MOVLW	0xe4
000164   1b67     subwf   0x67, 0x0        	SUBWF	(_lampTiming + 1),W
000165   3103     btfss   0x03, 0x2        	BTFSS	STATUS,2
000166   2169     goto    0x0169           	GOTO	_00177_DS_
000167   0461     movlw   0x61             	MOVLW	0x61
000168   1b66     subwf   0x66, 0x0        	SUBWF	_lampTiming,W
                                           _00177_DS_:
000169   3003     btfss   0x03, 0x0        	BTFSS	STATUS,0
00016a   2171     goto    0x0171           	GOTO	_00157_DS_
                                           ;;genSkipc:3257: created from rifx:0x782c44
                                           ;;[ICODE] led.c:157: 	if iTemp8 [k13 lr11:12 so:0]{ ia0 a2p0 re0 rm0 nos0 ru0 dp0}{char fixed} == 0 goto __ifend_3($5)
                                           ;;[ICODE] led.c:158: 	iTemp10 [k16 lr13:14 so:0]{ ia0 a2p0 re0 rm1 nos0 ru0 dp0}{unsigned-bitfield {5,1} near* fixed}[remat] := iTemp0 [k3 lr3:13 so:0]{ ia0 a2p0 re0 rm1 nos0 ru0 dp0}{unsigned-bitfield {5,1} near* fixed}[remat]
                                           ;;[ICODE] led.c:158: 	*(iTemp10 [k16 lr13:14 so:0]{ ia1 a2p0 re0 rm1 nos0 ru0 dp0}{unsigned-bitfield {5,1} near* fixed}[remat]) := 0x0 {const-unsigned-char literal}
                                           ;	.line	158; "led.c"	IsLight = 0;
00016b   3eb3     bcf     0x33, 0x5        	BCF	_BITS_DATA0,5
                                           ;;[ICODE] led.c:158: 	 goto __ifend_3($5)
00016c   2171     goto    0x0171           	GOTO	_00157_DS_
                                           ;;[ICODE] led.c:158:  __iffalse_3($4) :
                                           ;;[ICODE] led.c:169: 	_lampTiming [k9 lr0:0 so:0]{ ia1 a2p0 re0 rm0 nos0 ru0 dp0}{unsigned-long-int fixed} := 0x0 {unsigned-long-int literal}
                                           _00156_DS_:
                                           ;	.line	169; "led.c"	lampTiming = 0;
00016d   18e6     clrf    0x66             	CLRF	_lampTiming
00016e   18e7     clrf    0x67             	CLRF	(_lampTiming + 1)
00016f   18e8     clrf    0x68             	CLRF	(_lampTiming + 2)
000170   18e9     clrf    0x69             	CLRF	(_lampTiming + 3)
                                           ;;[ICODE] led.c:169:  __ifend_3($5) :
                                           ;;[ICODE] led.c:174: 	iTemp12 [k18 lr19:29 so:0]{ ia0 a2p0 re0 rm1 nos0 ru0 dp0}{unsigned-bitfield {6,1} near* fixed}[remat] = &[_BITS_DATA0 [k2 lr0:0 so:0]{ ia0 a2p0 re0 rm0 nos0 ru0 dp0}{struct __bits8_t fixed} , 0x0 {const-unsigned-char literal}]
                                           ;;[ICODE] led.c:174: 	iTemp13 [k20 lr20:21 so:0]{ ia0 a2p0 re0 rm1 nos0 ru0 dp0}{unsigned-bitfield {6,1} near* fixed}[remat] := iTemp12 [k18 lr19:29 so:0]{ ia0 a2p0 re0 rm1 nos0 ru0 dp0}{unsigned-bitfield {6,1} near* fixed}[remat]
                                           ;;[ICODE] led.c:174: 	iTemp14 [k21 lr21:22 so:0]{ ia0 a2p0 re0 rm0 nos0 ru0 dp0}{unsigned-bitfield {6,1} fixed}[r0x1050 ] = @[iTemp13 [k20 lr20:21 so:0]{ ia1 a2p0 re0 rm1 nos0 ru0 dp0}{unsigned-bitfield {6,1} near* fixed}[remat] + 0x0 {const-unsigned-char literal}]
                                           _00157_DS_:
                                           ;	.line	174; "led.c"	if(IsMotor == 1){
000171   18e4     clrf    0x64             	CLRF	r0x1009
000172   3733     btfsc   0x33, 0x6        	BTFSC	_BITS_DATA0,6
000173   13e4     incf    0x64, 0x1        	INCF	r0x1009,F
                                           ;;[ICODE] led.c:174: 	iTemp15 [k22 lr22:23 so:0]{ ia0 a2p0 re0 rm0 nos0 ru0 dp0}{char fixed}[r0x1051 ] = (char register)iTemp14 [k21 lr21:22 so:0]{ ia0 a2p0 re0 rm0 nos0 ru0 dp0}{unsigned-bitfield {6,1} fixed}[r0x1050 ]
000174   1164     movf    0x64, 0x0        	MOVF	r0x1009,W
000175   19e5     movwf   0x65             	MOVWF	r0x100A
000176   0d01     xorlw   0x01             	XORLW	0x01
000177   3103     btfss   0x03, 0x2        	BTFSS	STATUS,2
000178   2192     goto    0x0192           	GOTO	_00161_DS_
                                           ;;[ICODE] led.c:174: 	if iTemp16 [k23 lr23:24 so:0]{ ia0 a2p0 re0 rm0 nos0 ru0 dp0}{char fixed} == 0 goto __iffalse_5($9)
                                           ;;[ICODE] led.c:175: 	_motoTiming [k24 lr0:0 so:0]{ ia1 a2p0 re0 rm0 nos0 ru0 dp0}{unsigned-long-int fixed} = _motoTiming [k24 lr0:0 so:0]{ ia1 a2p0 re0 rm0 nos0 ru0 dp0}{unsigned-long-int fixed} + 0x1 {const-unsigned-char literal}
                                           ;	.line	175; "led.c"	motoTiming++;
000179   13ea     incf    0x6a, 0x1        	INCF	_motoTiming,F
00017a   3503     btfsc   0x03, 0x2        	BTFSC	STATUS,2
00017b   13eb     incf    0x6b, 0x1        	INCF	(_motoTiming + 1),F
00017c   3503     btfsc   0x03, 0x2        	BTFSC	STATUS,2
00017d   13ec     incf    0x6c, 0x1        	INCF	(_motoTiming + 2),F
00017e   3503     btfsc   0x03, 0x2        	BTFSC	STATUS,2
00017f   13ed     incf    0x6d, 0x1        	INCF	(_motoTiming + 3),F
                                           ;;[ICODE] led.c:177: 	iTemp20 [k28 lr27:28 so:0]{ ia0 a2p0 re0 rm0 nos0 ru0 dp0}{char fixed} = _motoTiming [k24 lr0:0 so:0]{ ia0 a2p0 re0 rm0 nos0 ru0 dp0}{unsigned-long-int fixed} > 0x1e460 {unsigned-long-int literal}
                                           ;;swapping arguments (AOP_TYPEs 1/3)
                                           ;;unsigned compare: left >= lit(0x1E461=124001), size=4
                                           ;	.line	177; "led.c"	if(motoTiming > 124000) {    //20
000180   0400     movlw   0x00             	MOVLW	0x00
000181   1b6d     subwf   0x6d, 0x0        	SUBWF	(_motoTiming + 3),W
000182   3103     btfss   0x03, 0x2        	BTFSS	STATUS,2
000183   218e     goto    0x018e           	GOTO	_00178_DS_
000184   0401     movlw   0x01             	MOVLW	0x01
000185   1b6c     subwf   0x6c, 0x0        	SUBWF	(_motoTiming + 2),W
000186   3103     btfss   0x03, 0x2        	BTFSS	STATUS,2
000187   218e     goto    0x018e           	GOTO	_00178_DS_
000188   04e4     movlw   0xe4             	MOVLW	0xe4
000189   1b6b     subwf   0x6b, 0x0        	SUBWF	(_motoTiming + 1),W
00018a   3103     btfss   0x03, 0x2        	BTFSS	STATUS,2
00018b   218e     goto    0x018e           	GOTO	_00178_DS_
00018c   0461     movlw   0x61             	MOVLW	0x61
00018d   1b6a     subwf   0x6a, 0x0        	SUBWF	_motoTiming,W
                                           _00178_DS_:
00018e   3003     btfss   0x03, 0x0        	BTFSS	STATUS,0
00018f   2196     goto    0x0196           	GOTO	_00163_DS_
                                           ;;genSkipc:3257: created from rifx:0x782c44
                                           ;;[ICODE] led.c:177: 	if iTemp20 [k28 lr27:28 so:0]{ ia0 a2p0 re0 rm0 nos0 ru0 dp0}{char fixed} == 0 goto _return($11)
                                           ;;[ICODE] led.c:178: 	iTemp22 [k31 lr29:30 so:0]{ ia0 a2p0 re0 rm1 nos0 ru0 dp0}{unsigned-bitfield {6,1} near* fixed}[remat] := iTemp12 [k18 lr19:29 so:0]{ ia0 a2p0 re0 rm1 nos0 ru0 dp0}{unsigned-bitfield {6,1} near* fixed}[remat]
                                           ;;[ICODE] led.c:178: 	*(iTemp22 [k31 lr29:30 so:0]{ ia1 a2p0 re0 rm1 nos0 ru0 dp0}{unsigned-bitfield {6,1} near* fixed}[remat]) := 0x0 {const-unsigned-char literal}
                                           ;	.line	178; "led.c"	IsMotor = 0;
000190   3f33     bcf     0x33, 0x6        	BCF	_BITS_DATA0,6
                                           ;;[ICODE] led.c:178: 	 goto _return($11)
000191   2196     goto    0x0196           	GOTO	_00163_DS_
                                           ;;[ICODE] led.c:178:  __iffalse_5($9) :
                                           ;;[ICODE] led.c:189: 	_motoTiming [k24 lr0:0 so:0]{ ia1 a2p0 re0 rm0 nos0 ru0 dp0}{unsigned-long-int fixed} := 0x0 {unsigned-long-int literal}
                                           _00161_DS_:
                                           ;	.line	189; "led.c"	motoTiming = 0;
000192   18ea     clrf    0x6a             	CLRF	_motoTiming
000193   18eb     clrf    0x6b             	CLRF	(_motoTiming + 1)
000194   18ec     clrf    0x6c             	CLRF	(_motoTiming + 2)
000195   18ed     clrf    0x6d             	CLRF	(_motoTiming + 3)
                                           ;;[ICODE] led.c:189:  _return($11) :
                                           ;;[ICODE] led.c:189: 	eproc _CountdownDisplay [k1 lr0:0 so:0]{ ia0 a2p0 re0 rm0 nos0 ru0 dp0}{void function ( ) fixed}
                                           _00163_DS_:
000196   0002     return                   	RETURN	
                                           ; exit point of _CountdownDisplay

                                           ;***
                                           ;  pBlock Stats: dbName = C
                                           ;***
                                           ;has an exit
                                           ;; Starting pCode block
                                           ;;[ICODE] led.c:102:  _entry($2) :
                                           ;;[ICODE] led.c:102: 	proc _PowOff [k1 lr0:0 so:0]{ ia0 a2p0 re0 rm0 nos0 ru0 dp0}{void function ( ) fixed}
                                           S_led__PowOff	code
                                           _PowOff:
                                           ; 2 exit points
                                           ;;[ICODE] led.c:114: 	_PHCON [k2 lr0:0 so:0]{ ia1 a2p0 re0 rm0 nos0 ru0 dp0}{volatile-unsigned-char sfr} = _PHCON [k2 lr0:0 so:0]{ ia0 a2p0 re0 rm0 nos0 ru0 dp0}{volatile-unsigned-char sfr} | 0x8 {const-unsigned-char literal}
                                           ;	.line	114; "led.c"	PHCON |= DEF_SET_BIT3;   //close high pull
00029e   398d     bsf     0x0d, 0x3        	BSF	_PHCON,3
                                           ;;[ICODE] led.c:114:  _return($1) :
                                           ;;[ICODE] led.c:114: 	eproc _PowOff [k1 lr0:0 so:0]{ ia0 a2p0 re0 rm0 nos0 ru0 dp0}{void function ( ) fixed}
00029f   0002     return                   	RETURN	
                                           ; exit point of _PowOff

                                           ;***
                                           ;  pBlock Stats: dbName = C
                                           ;***
                                           ;has an exit
                                           ;; Starting pCode block
                                           ;;[ICODE] led.c:72:  _entry($2) :
                                           ;;[ICODE] led.c:72: 	proc _PowOn [k1 lr0:0 so:0]{ ia0 a2p0 re0 rm0 nos0 ru0 dp0}{void function ( ) fixed}
                                           S_led__PowOn	code
                                           _PowOn:
                                           ; 2 exit points
                                           ;;[ICODE] led.c:93: 	_PHCON [k2 lr0:0 so:0]{ ia1 a2p0 re0 rm0 nos0 ru0 dp0}{volatile-unsigned-char sfr} = _PHCON [k2 lr0:0 so:0]{ ia0 a2p0 re0 rm0 nos0 ru0 dp0}{volatile-unsigned-char sfr} & 0xf7 {const-unsigned-char literal}
                                           ;	.line	93; "led.c"	PHCON &= DEF_CLR_BIT3;
0002a0   3d8d     bcf     0x0d, 0x3        	BCF	_PHCON,3
                                           ;;[ICODE] led.c:93:  _return($1) :
                                           ;;[ICODE] led.c:93: 	eproc _PowOn [k1 lr0:0 so:0]{ ia0 a2p0 re0 rm0 nos0 ru0 dp0}{void function ( ) fixed}
0002a1   0002     return                   	RETURN	
                                           ; exit point of _PowOn

                                           ;***
                                           ;  pBlock Stats: dbName = C
                                           ;***
                                           ;has an exit
                                           ;functions called:
                                           ;   _MotoOn
                                           ;   _MotoOff
                                           ;   _MotoOn
                                           ;   _MotoOff
                                           ;2 compiler assigned registers:
                                           ;   r0x100B
                                           ;   r0x100C
                                           ;; Starting pCode block
                                           ;;[ICODE] led.c:61:  _entry($5) :
                                           ;;[ICODE] led.c:61: 	proc _MotoDisplay [k1 lr0:0 so:0]{ ia0 a2p0 re0 rm0 nos0 ru0 dp0}{void function ( ) fixed}
                                           S_led__MotoDisplay	code
                                           _MotoDisplay:
                                           ; 2 exit points
                                           ;;[ICODE] led.c:63: 	iTemp1 [k5 lr3:5 so:0]{ ia0 a2p0 re0 rm1 nos0 ru0 dp0}{unsigned-bitfield {6,1} near* fixed}[remat] = &[_BITS_DATA0 [k2 lr0:0 so:0]{ ia0 a2p0 re0 rm0 nos0 ru0 dp0}{struct __bits8_t fixed} , 0x0 {const-unsigned-char literal}]
                                           ;;[ICODE] led.c:63: 	iTemp2 [k6 lr5:6 so:0]{ ia0 a2p0 re0 rm0 nos0 ru0 dp0}{unsigned-bitfield {6,1} fixed}[r0x104C ] = @[iTemp1 [k5 lr3:5 so:0]{ ia1 a2p0 re0 rm1 nos0 ru0 dp0}{unsigned-bitfield {6,1} near* fixed}[remat] + 0x0 {const-unsigned-char literal}]
                                           ;	.line	63; "led.c"	if(IsMotor == 1)
000233   18e3     clrf    0x63             	CLRF	r0x100B
000234   3733     btfsc   0x33, 0x6        	BTFSC	_BITS_DATA0,6
000235   13e3     incf    0x63, 0x1        	INCF	r0x100B,F
                                           ;;[ICODE] led.c:63: 	iTemp3 [k7 lr6:7 so:0]{ ia0 a2p0 re0 rm0 nos0 ru0 dp0}{char fixed}[r0x104D ] = (char register)iTemp2 [k6 lr5:6 so:0]{ ia0 a2p0 re0 rm0 nos0 ru0 dp0}{unsigned-bitfield {6,1} fixed}[r0x104C ]
000236   1163     movf    0x63, 0x0        	MOVF	r0x100B,W
                                           ;;1	MOVWF	r0x100C
000237   0d01     xorlw   0x01             	XORLW	0x01
000238   3103     btfss   0x03, 0x2        	BTFSS	STATUS,2
000239   223c     goto    0x023c           	GOTO	_00138_DS_
                                           ;;[ICODE] led.c:63: 	if iTemp4 [k8 lr7:8 so:0]{ ia0 a2p0 re0 rm0 nos0 ru0 dp0}{char fixed} == 0 goto __iffalse_1($2)
                                           ;;[ICODE] led.c:65: 	iTemp5 [k10 lr9:9 so:0]{ ia0 a2p0 re0 rm0 nos0 ru0 dp0}{void fixed} = call _MotoOn [k9 lr0:0 so:0]{ ia0 a2p0 re0 rm0 nos0 ru0 dp0}{void function ( ) fixed}
                                           ;	.line	65; "led.c"	MotoOn();
00023a   2a93     call    0x0293           	CALL	_MotoOn
                                           ;;[ICODE] led.c:65: 	 goto _return($4)
00023b   223d     goto    0x023d           	GOTO	_00140_DS_
                                           ;;[ICODE] led.c:65:  __iffalse_1($2) :
                                           ;;[ICODE] led.c:69: 	iTemp6 [k12 lr12:12 so:0]{ ia0 a2p0 re0 rm0 nos0 ru0 dp0}{void fixed} = call _MotoOff [k11 lr0:0 so:0]{ ia0 a2p0 re0 rm0 nos0 ru0 dp0}{void function ( ) fixed}
                                           _00138_DS_:
                                           ;	.line	69; "led.c"	MotoOff();
00023c   2a90     call    0x0290           	CALL	_MotoOff
                                           ;;[ICODE] led.c:69:  _return($4) :
                                           ;;[ICODE] led.c:69: 	eproc _MotoDisplay [k1 lr0:0 so:0]{ ia0 a2p0 re0 rm0 nos0 ru0 dp0}{void function ( ) fixed}
                                           _00140_DS_:
00023d   0002     return                   	RETURN	
                                           ; exit point of _MotoDisplay

                                           ;***
                                           ;  pBlock Stats: dbName = C
                                           ;***
                                           ;has an exit
                                           ;; Starting pCode block
                                           ;;[ICODE] led.c:55:  _entry($2) :
                                           ;;[ICODE] led.c:55: 	proc _MotoOff [k1 lr0:0 so:0]{ ia0 a2p0 re0 rm0 nos0 ru0 dp0}{void function ( ) fixed}
                                           S_led__MotoOff	code
                                           _MotoOff:
                                           ; 2 exit points
                                           ;;[ICODE] led.c:57: 	iTemp1 [k5 lr3:5 so:0]{ ia0 a2p0 re0 rm1 nos0 ru0 dp0}{volatile-unsigned-bitfield {0,1} near* fixed}[remat] = &[_PORTBbits [k2 lr0:0 so:0]{ ia0 a2p0 re0 rm0 nos0 ru0 dp0}{volatile-struct __00000005 fixed} , 0x0 {const-unsigned-char literal}]
                                           ;;[ICODE] led.c:57: 	*(iTemp1 [k5 lr3:5 so:0]{ ia1 a2p0 re0 rm1 nos0 ru0 dp0}{volatile-unsigned-bitfield {0,1} near* fixed}[remat]) := 0x1 {const-unsigned-char literal}
                                           ;	.line	57; "led.c"	PORT_LED2 = 1;
000290   3806     bsf     0x06, 0x0        	BSF	_PORTBbits,0
                                           ;;[ICODE] led.c:58: 	iTemp3 [k9 lr6:8 so:0]{ ia0 a2p0 re0 rm1 nos0 ru0 dp0}{volatile-unsigned-bitfield {7,1} near* fixed}[remat] = &[_RAMPbits [k6 lr0:0 so:0]{ ia0 a2p0 re0 rm0 nos0 ru0 dp0}{volatile-struct __00000070 fixed} , 0x0 {const-unsigned-char literal}]
                                           ;;[ICODE] led.c:58: 	*(iTemp3 [k9 lr6:8 so:0]{ ia1 a2p0 re0 rm1 nos0 ru0 dp0}{volatile-unsigned-bitfield {7,1} near* fixed}[remat]) := 0x1 {const-unsigned-char literal}
                                           ;	.line	58; "led.c"	MODSEL = 1;
000291   3bd5     bsf     0x55, 0x7        	BSF	_RAMPbits,7
                                           ;;[ICODE] led.c:58:  _return($1) :
                                           ;;[ICODE] led.c:58: 	eproc _MotoOff [k1 lr0:0 so:0]{ ia0 a2p0 re0 rm0 nos0 ru0 dp0}{void function ( ) fixed}
000292   0002     return                   	RETURN	
                                           ; exit point of _MotoOff

                                           ;***
                                           ;  pBlock Stats: dbName = C
                                           ;***
                                           ;has an exit
                                           ;; Starting pCode block
                                           ;;[ICODE] led.c:49:  _entry($2) :
                                           ;;[ICODE] led.c:49: 	proc _MotoOn [k1 lr0:0 so:0]{ ia0 a2p0 re0 rm0 nos0 ru0 dp0}{void function ( ) fixed}
                                           S_led__MotoOn	code
                                           _MotoOn:
                                           ; 2 exit points
                                           ;;[ICODE] led.c:51: 	iTemp1 [k5 lr3:5 so:0]{ ia0 a2p0 re0 rm1 nos0 ru0 dp0}{volatile-unsigned-bitfield {0,1} near* fixed}[remat] = &[_PORTBbits [k2 lr0:0 so:0]{ ia0 a2p0 re0 rm0 nos0 ru0 dp0}{volatile-struct __00000005 fixed} , 0x0 {const-unsigned-char literal}]
                                           ;;[ICODE] led.c:51: 	*(iTemp1 [k5 lr3:5 so:0]{ ia1 a2p0 re0 rm1 nos0 ru0 dp0}{volatile-unsigned-bitfield {0,1} near* fixed}[remat]) := 0x0 {const-unsigned-char literal}
                                           ;	.line	51; "led.c"	PORT_LED2 = 0;
000293   3c06     bcf     0x06, 0x0        	BCF	_PORTBbits,0
                                           ;;[ICODE] led.c:52: 	iTemp3 [k9 lr6:8 so:0]{ ia0 a2p0 re0 rm1 nos0 ru0 dp0}{volatile-unsigned-bitfield {7,1} near* fixed}[remat] = &[_RAMPbits [k6 lr0:0 so:0]{ ia0 a2p0 re0 rm0 nos0 ru0 dp0}{volatile-struct __00000070 fixed} , 0x0 {const-unsigned-char literal}]
                                           ;;[ICODE] led.c:52: 	*(iTemp3 [k9 lr6:8 so:0]{ ia1 a2p0 re0 rm1 nos0 ru0 dp0}{volatile-unsigned-bitfield {7,1} near* fixed}[remat]) := 0x1 {const-unsigned-char literal}
                                           ;	.line	52; "led.c"	MODSEL = 1;	
000294   3bd5     bsf     0x55, 0x7        	BSF	_RAMPbits,7
                                           ;;[ICODE] led.c:52:  _return($1) :
                                           ;;[ICODE] led.c:52: 	eproc _MotoOn [k1 lr0:0 so:0]{ ia0 a2p0 re0 rm0 nos0 ru0 dp0}{void function ( ) fixed}
000295   0002     return                   	RETURN	
                                           ; exit point of _MotoOn

                                           ;***
                                           ;  pBlock Stats: dbName = C
                                           ;***
                                           ;has an exit
                                           ;2 compiler assigned registers:
                                           ;   r0x100D
                                           ;   r0x100E
                                           ;; Starting pCode block
                                           ;;[ICODE] led.c:41:  _entry($2) :
                                           ;;[ICODE] led.c:41: 	proc _MotoSwitch [k1 lr0:0 so:0]{ ia0 a2p0 re0 rm0 nos0 ru0 dp0}{void function ( ) fixed}
                                           S_led__MotoSwitch	code
                                           _MotoSwitch:
                                           ; 2 exit points
                                           ;;[ICODE] led.c:43: 	iTemp0 [k3 lr3:5 so:0]{ ia0 a2p0 re0 rm1 nos0 ru0 dp0}{unsigned-bitfield {6,1} near* fixed}[remat] = &[_BITS_DATA0 [k2 lr0:0 so:0]{ ia0 a2p0 re0 rm0 nos0 ru0 dp0}{struct __bits8_t fixed} , 0x0 {const-unsigned-char literal}]
                                           ;;[ICODE] led.c:43: 	iTemp1 [k5 lr4:9 so:0]{ ia0 a2p0 re0 rm1 nos0 ru0 dp0}{unsigned-bitfield {6,1} near* fixed}[remat] := iTemp0 [k3 lr3:5 so:0]{ ia0 a2p0 re0 rm1 nos0 ru0 dp0}{unsigned-bitfield {6,1} near* fixed}[remat]
                                           ;;[ICODE] led.c:43: 	iTemp3 [k8 lr5:6 so:0]{ ia0 a2p0 re0 rm1 nos0 ru0 dp0}{unsigned-bitfield {6,1} near* fixed}[remat] := iTemp0 [k3 lr3:5 so:0]{ ia0 a2p0 re0 rm1 nos0 ru0 dp0}{unsigned-bitfield {6,1} near* fixed}[remat]
                                           ;;[ICODE] led.c:43: 	iTemp4 [k9 lr6:7 so:0]{ ia0 a2p0 re0 rm0 nos0 ru0 dp0}{unsigned-bitfield {6,1} fixed}[r0x104A ] = @[iTemp3 [k8 lr5:6 so:0]{ ia1 a2p0 re0 rm1 nos0 ru0 dp0}{unsigned-bitfield {6,1} near* fixed}[remat] + 0x0 {const-unsigned-char literal}]
                                           ;	.line	43; "led.c"	IsMotor =!IsMotor;
00020a   18e2     clrf    0x62             	CLRF	r0x100D
00020b   3733     btfsc   0x33, 0x6        	BTFSC	_BITS_DATA0,6
00020c   13e2     incf    0x62, 0x1        	INCF	r0x100D,F
                                           ;;[ICODE] led.c:43: 	iTemp5 [k10 lr7:8 so:0]{ ia0 a2p0 re0 rm0 nos0 ru0 dp0}{bit fixed}[r0x104B ] = not iTemp4 [k9 lr6:7 so:0]{ ia0 a2p0 re0 rm0 nos0 ru0 dp0}{unsigned-bitfield {6,1} fixed}[r0x104A ]
00020d   1162     movf    0x62, 0x0        	MOVF	r0x100D,W
00020e   0400     movlw   0x00             	MOVLW	0x00
00020f   3503     btfsc   0x03, 0x2        	BTFSC	STATUS,2
000210   0401     movlw   0x01             	MOVLW	0x01
                                           ;;1	MOVWF	r0x100E
000211   19e2     movwf   0x62             	MOVWF	r0x100D
                                           ;;[ICODE] led.c:43: 	*(iTemp1 [k5 lr4:9 so:0]{ ia1 a2p0 re0 rm1 nos0 ru0 dp0}{unsigned-bitfield {6,1} near* fixed}[remat]) := iTemp6 [k11 lr8:9 so:0]{ ia0 a2p0 re0 rm0 nos0 ru0 dp0}{unsigned-bitfield {6,1} fixed}[r0x104A ]
000212   1562     rrf     0x62, 0x0        	RRF	r0x100D,W
000213   3003     btfss   0x03, 0x0        	BTFSS	STATUS,0
000214   3f33     bcf     0x33, 0x6        	BCF	_BITS_DATA0,6
000215   3403     btfsc   0x03, 0x0        	BTFSC	STATUS,0
000216   3b33     bsf     0x33, 0x6        	BSF	_BITS_DATA0,6
                                           ;;[ICODE] led.c:43:  _return($1) :
                                           ;;[ICODE] led.c:43: 	eproc _MotoSwitch [k1 lr0:0 so:0]{ ia0 a2p0 re0 rm0 nos0 ru0 dp0}{void function ( ) fixed}
000217   0002     return                   	RETURN	
                                           ; exit point of _MotoSwitch

                                           ;***
                                           ;  pBlock Stats: dbName = C
                                           ;***
                                           ;has an exit
                                           ;; Starting pCode block
                                           ;;[ICODE] led.c:35:  _entry($2) :
                                           ;;[ICODE] led.c:35: 	proc _LedOff [k1 lr0:0 so:0]{ ia0 a2p0 re0 rm0 nos0 ru0 dp0}{void function ( ) fixed}
                                           S_led__LedOff	code
                                           _LedOff:
                                           ; 2 exit points
                                           ;;[ICODE] led.c:37: 	iTemp1 [k5 lr3:5 so:0]{ ia0 a2p0 re0 rm1 nos0 ru0 dp0}{volatile-unsigned-bitfield {1,1} near* fixed}[remat] = &[_PORTBbits [k2 lr0:0 so:0]{ ia0 a2p0 re0 rm0 nos0 ru0 dp0}{volatile-struct __00000005 fixed} , 0x0 {const-unsigned-char literal}]
                                           ;;[ICODE] led.c:37: 	*(iTemp1 [k5 lr3:5 so:0]{ ia1 a2p0 re0 rm1 nos0 ru0 dp0}{volatile-unsigned-bitfield {1,1} near* fixed}[remat]) := 0x1 {const-unsigned-char literal}
                                           ;	.line	37; "led.c"	PORT_LED1 = 1;
000296   3886     bsf     0x06, 0x1        	BSF	_PORTBbits,1
                                           ;;[ICODE] led.c:38: 	iTemp3 [k9 lr6:8 so:0]{ ia0 a2p0 re0 rm1 nos0 ru0 dp0}{volatile-unsigned-bitfield {7,1} near* fixed}[remat] = &[_RAMPbits [k6 lr0:0 so:0]{ ia0 a2p0 re0 rm0 nos0 ru0 dp0}{volatile-struct __00000070 fixed} , 0x0 {const-unsigned-char literal}]
                                           ;;[ICODE] led.c:38: 	*(iTemp3 [k9 lr6:8 so:0]{ ia1 a2p0 re0 rm1 nos0 ru0 dp0}{volatile-unsigned-bitfield {7,1} near* fixed}[remat]) := 0x1 {const-unsigned-char literal}
                                           ;	.line	38; "led.c"	MODSEL = 1;
000297   3bd5     bsf     0x55, 0x7        	BSF	_RAMPbits,7
                                           ;;[ICODE] led.c:38:  _return($1) :
                                           ;;[ICODE] led.c:38: 	eproc _LedOff [k1 lr0:0 so:0]{ ia0 a2p0 re0 rm0 nos0 ru0 dp0}{void function ( ) fixed}
000298   0002     return                   	RETURN	
                                           ; exit point of _LedOff

                                           ;***
                                           ;  pBlock Stats: dbName = C
                                           ;***
                                           ;has an exit
                                           ;; Starting pCode block
                                           ;;[ICODE] led.c:29:  _entry($2) :
                                           ;;[ICODE] led.c:29: 	proc _LedOn [k1 lr0:0 so:0]{ ia0 a2p0 re0 rm0 nos0 ru0 dp0}{void function ( ) fixed}
                                           S_led__LedOn	code
                                           _LedOn:
                                           ; 2 exit points
                                           ;;[ICODE] led.c:31: 	iTemp1 [k5 lr3:5 so:0]{ ia0 a2p0 re0 rm1 nos0 ru0 dp0}{volatile-unsigned-bitfield {1,1} near* fixed}[remat] = &[_PORTBbits [k2 lr0:0 so:0]{ ia0 a2p0 re0 rm0 nos0 ru0 dp0}{volatile-struct __00000005 fixed} , 0x0 {const-unsigned-char literal}]
                                           ;;[ICODE] led.c:31: 	*(iTemp1 [k5 lr3:5 so:0]{ ia1 a2p0 re0 rm1 nos0 ru0 dp0}{volatile-unsigned-bitfield {1,1} near* fixed}[remat]) := 0x0 {const-unsigned-char literal}
                                           ;	.line	31; "led.c"	PORT_LED1 = 0;
000299   3c86     bcf     0x06, 0x1        	BCF	_PORTBbits,1
                                           ;;[ICODE] led.c:32: 	iTemp3 [k9 lr6:8 so:0]{ ia0 a2p0 re0 rm1 nos0 ru0 dp0}{volatile-unsigned-bitfield {7,1} near* fixed}[remat] = &[_RAMPbits [k6 lr0:0 so:0]{ ia0 a2p0 re0 rm0 nos0 ru0 dp0}{volatile-struct __00000070 fixed} , 0x0 {const-unsigned-char literal}]
                                           ;;[ICODE] led.c:32: 	*(iTemp3 [k9 lr6:8 so:0]{ ia1 a2p0 re0 rm1 nos0 ru0 dp0}{volatile-unsigned-bitfield {7,1} near* fixed}[remat]) := 0x1 {const-unsigned-char literal}
                                           ;	.line	32; "led.c"	MODSEL = 1;	   //浣胯藉缃娴甸
00029a   3bd5     bsf     0x55, 0x7        	BSF	_RAMPbits,7
                                           ;;[ICODE] led.c:32:  _return($1) :
                                           ;;[ICODE] led.c:32: 	eproc _LedOn [k1 lr0:0 so:0]{ ia0 a2p0 re0 rm0 nos0 ru0 dp0}{void function ( ) fixed}
00029b   0002     return                   	RETURN	
                                           ; exit point of _LedOn

                                           ;***
                                           ;  pBlock Stats: dbName = C
                                           ;***
                                           ;has an exit
                                           ;functions called:
                                           ;   _LedOn
                                           ;   _LedOff
                                           ;   _LedOn
                                           ;   _LedOff
                                           ;2 compiler assigned registers:
                                           ;   r0x100F
                                           ;   r0x1010
                                           ;; Starting pCode block
                                           ;;[ICODE] led.c:15:  _entry($5) :
                                           ;;[ICODE] led.c:15: 	proc _LedDisplay [k1 lr0:0 so:0]{ ia0 a2p0 re0 rm0 nos0 ru0 dp0}{void function ( ) fixed}
                                           S_led__LedDisplay	code
                                           _LedDisplay:
                                           ; 2 exit points
                                           ;;[ICODE] led.c:17: 	iTemp1 [k5 lr3:5 so:0]{ ia0 a2p0 re0 rm1 nos0 ru0 dp0}{unsigned-bitfield {5,1} near* fixed}[remat] = &[_BITS_DATA0 [k2 lr0:0 so:0]{ ia0 a2p0 re0 rm0 nos0 ru0 dp0}{struct __bits8_t fixed} , 0x0 {const-unsigned-char literal}]
                                           ;;[ICODE] led.c:17: 	iTemp2 [k6 lr5:6 so:0]{ ia0 a2p0 re0 rm0 nos0 ru0 dp0}{unsigned-bitfield {5,1} fixed}[r0x1048 ] = @[iTemp1 [k5 lr3:5 so:0]{ ia1 a2p0 re0 rm1 nos0 ru0 dp0}{unsigned-bitfield {5,1} near* fixed}[remat] + 0x0 {const-unsigned-char literal}]
                                           ;	.line	17; "led.c"	if(IsLight == 1 )
00023e   18e1     clrf    0x61             	CLRF	r0x100F
00023f   36b3     btfsc   0x33, 0x5        	BTFSC	_BITS_DATA0,5
000240   13e1     incf    0x61, 0x1        	INCF	r0x100F,F
                                           ;;[ICODE] led.c:17: 	iTemp3 [k7 lr6:7 so:0]{ ia0 a2p0 re0 rm0 nos0 ru0 dp0}{char fixed}[r0x1049 ] = (char register)iTemp2 [k6 lr5:6 so:0]{ ia0 a2p0 re0 rm0 nos0 ru0 dp0}{unsigned-bitfield {5,1} fixed}[r0x1048 ]
000241   1161     movf    0x61, 0x0        	MOVF	r0x100F,W
                                           ;;1	MOVWF	r0x1010
000242   0d01     xorlw   0x01             	XORLW	0x01
000243   3103     btfss   0x03, 0x2        	BTFSS	STATUS,2
000244   2247     goto    0x0247           	GOTO	_00110_DS_
                                           ;;[ICODE] led.c:17: 	if iTemp4 [k8 lr7:8 so:0]{ ia0 a2p0 re0 rm0 nos0 ru0 dp0}{char fixed} == 0 goto __iffalse_0($2)
                                           ;;[ICODE] led.c:19: 	iTemp5 [k10 lr9:9 so:0]{ ia0 a2p0 re0 rm0 nos0 ru0 dp0}{void fixed} = call _LedOn [k9 lr0:0 so:0]{ ia0 a2p0 re0 rm0 nos0 ru0 dp0}{void function ( ) fixed}
                                           ;	.line	19; "led.c"	LedOn();
000245   2a99     call    0x0299           	CALL	_LedOn
                                           ;;[ICODE] led.c:19: 	 goto _return($4)
000246   2248     goto    0x0248           	GOTO	_00112_DS_
                                           ;;[ICODE] led.c:19:  __iffalse_0($2) :
                                           ;;[ICODE] led.c:23: 	iTemp6 [k12 lr12:12 so:0]{ ia0 a2p0 re0 rm0 nos0 ru0 dp0}{void fixed} = call _LedOff [k11 lr0:0 so:0]{ ia0 a2p0 re0 rm0 nos0 ru0 dp0}{void function ( ) fixed}
                                           _00110_DS_:
                                           ;	.line	23; "led.c"	LedOff();
000247   2a96     call    0x0296           	CALL	_LedOff
                                           ;;[ICODE] led.c:23:  _return($4) :
                                           ;;[ICODE] led.c:23: 	eproc _LedDisplay [k1 lr0:0 so:0]{ ia0 a2p0 re0 rm0 nos0 ru0 dp0}{void function ( ) fixed}
                                           _00112_DS_:
000248   0002     return                   	RETURN	
                                           ; exit point of _LedDisplay

                                           ;***
                                           ;  pBlock Stats: dbName = C
                                           ;***
                                           ;has an exit
                                           ;2 compiler assigned registers:
                                           ;   r0x1011
                                           ;   r0x1012
                                           ;; Starting pCode block
                                           ;;[ICODE] led.c:6:  _entry($2) :
                                           ;;[ICODE] led.c:6: 	proc _LedSwitch [k1 lr0:0 so:0]{ ia0 a2p0 re0 rm0 nos0 ru0 dp0}{void function ( ) fixed}
                                           S_led__LedSwitch	code
                                           _LedSwitch:
                                           ; 2 exit points
                                           ;;[ICODE] led.c:9: 	iTemp0 [k3 lr3:5 so:0]{ ia0 a2p0 re0 rm1 nos0 ru0 dp0}{unsigned-bitfield {5,1} near* fixed}[remat] = &[_BITS_DATA0 [k2 lr0:0 so:0]{ ia0 a2p0 re0 rm0 nos0 ru0 dp0}{struct __bits8_t fixed} , 0x0 {const-unsigned-char literal}]
                                           ;;[ICODE] led.c:9: 	iTemp1 [k5 lr4:9 so:0]{ ia0 a2p0 re0 rm1 nos0 ru0 dp0}{unsigned-bitfield {5,1} near* fixed}[remat] := iTemp0 [k3 lr3:5 so:0]{ ia0 a2p0 re0 rm1 nos0 ru0 dp0}{unsigned-bitfield {5,1} near* fixed}[remat]
                                           ;;[ICODE] led.c:9: 	iTemp3 [k8 lr5:6 so:0]{ ia0 a2p0 re0 rm1 nos0 ru0 dp0}{unsigned-bitfield {5,1} near* fixed}[remat] := iTemp0 [k3 lr3:5 so:0]{ ia0 a2p0 re0 rm1 nos0 ru0 dp0}{unsigned-bitfield {5,1} near* fixed}[remat]
                                           ;;[ICODE] led.c:9: 	iTemp4 [k9 lr6:7 so:0]{ ia0 a2p0 re0 rm0 nos0 ru0 dp0}{unsigned-bitfield {5,1} fixed}[r0x1045 ] = @[iTemp3 [k8 lr5:6 so:0]{ ia1 a2p0 re0 rm1 nos0 ru0 dp0}{unsigned-bitfield {5,1} near* fixed}[remat] + 0x0 {const-unsigned-char literal}]
                                           ;	.line	9; "led.c"	IsLight = !IsLight;
000218   18e0     clrf    0x60             	CLRF	r0x1011
000219   36b3     btfsc   0x33, 0x5        	BTFSC	_BITS_DATA0,5
00021a   13e0     incf    0x60, 0x1        	INCF	r0x1011,F
                                           ;;[ICODE] led.c:9: 	iTemp5 [k10 lr7:8 so:0]{ ia0 a2p0 re0 rm0 nos0 ru0 dp0}{bit fixed}[r0x1046 ] = not iTemp4 [k9 lr6:7 so:0]{ ia0 a2p0 re0 rm0 nos0 ru0 dp0}{unsigned-bitfield {5,1} fixed}[r0x1045 ]
00021b   1160     movf    0x60, 0x0        	MOVF	r0x1011,W
00021c   0400     movlw   0x00             	MOVLW	0x00
00021d   3503     btfsc   0x03, 0x2        	BTFSC	STATUS,2
00021e   0401     movlw   0x01             	MOVLW	0x01
                                           ;;1	MOVWF	r0x1012
00021f   19e0     movwf   0x60             	MOVWF	r0x1011
                                           ;;[ICODE] led.c:9: 	*(iTemp1 [k5 lr4:9 so:0]{ ia1 a2p0 re0 rm1 nos0 ru0 dp0}{unsigned-bitfield {5,1} near* fixed}[remat]) := iTemp6 [k11 lr8:9 so:0]{ ia0 a2p0 re0 rm0 nos0 ru0 dp0}{unsigned-bitfield {5,1} fixed}[r0x1045 ]
000220   1560     rrf     0x60, 0x0        	RRF	r0x1011,W
000221   3003     btfss   0x03, 0x0        	BTFSS	STATUS,0
000222   3eb3     bcf     0x33, 0x5        	BCF	_BITS_DATA0,5
000223   3403     btfsc   0x03, 0x0        	BTFSC	STATUS,0
000224   3ab3     bsf     0x33, 0x5        	BSF	_BITS_DATA0,5
                                           ;;[ICODE] led.c:9:  _return($1) :
                                           ;;[ICODE] led.c:9: 	eproc _LedSwitch [k1 lr0:0 so:0]{ ia0 a2p0 re0 rm0 nos0 ru0 dp0}{void function ( ) fixed}
000225   0002     return                   	RETURN	
                                           ; exit point of _LedSwitch


                                           ;	code size estimation:
                                           ;	  141+    0 =   141 instructions (  282 byte)

                                           	end
                                           ;--------------------------------------------------------
                                           ; File Created by SDCC : free open source ANSI-C Compiler
                                           ; Version 3.6.0 #9615 (CYGWIN)
                                           ;--------------------------------------------------------
                                           ; PIC port for the 14-bit core
                                           ;--------------------------------------------------------
                                           ;	.file	"lvd.c"
                                           	list	p=18p018a0
                                           	radix dec
                                           	include "p18p018a0.inc"
                                                  LIST

                                           ;==========================================================================
                                           ; Build date : Jun 02 2017
                                           ;  HCIDE HC18P018A0 processor include
                                           ; 
                                           ;  (c) Copyright 2012-2021 Holychip Technology, All rights reserved
                                           ;==========================================================================

                                                   NOLIST
                                           ;--------------------------------------------------------
                                           ; external declarations
                                           ;--------------------------------------------------------
                                           	extern	_DelayMs
                                           	extern	_ControlLevelLow
                                           	extern	_ControlLevelHigh
                                           	extern	_ControlLevel
                                           	extern	_ControlFlash
                                           	extern	_ControlSos
                                           	extern	_STATUSbits
                                           	extern	_PORTBbits
                                           	extern	_PCONbits
                                           	extern	_IOCBbits
                                           	extern	_PDCONbits
                                           	extern	_ODCONbits
                                           	extern	_PHCONbits
                                           	extern	_INTECONbits
                                           	extern	_INTFLAGbits
                                           	extern	_OPTIONbits
                                           	extern	_TRISBbits
                                           	extern	_PWMCONbits
                                           	extern	_T0CRbits
                                           	extern	_T1CONbits
                                           	extern	_OSCCONbits
                                           	extern	_CMPCRbits
                                           	extern	_PDCON1bits
                                           	extern	_CHARGE0bits
                                           	extern	_CHARGE1bits
                                           	extern	_RAMPbits
                                           	extern	_AUXRbits
                                           	extern	_BITS_DATA0
                                           	extern	_BITS_DATA1
                                           	extern	_g_ucTimer10msCount
                                           	extern	_g_ucTimerWorkCount
                                           	extern	_TempCount
                                           	extern	_TempFlag
                                           	extern	_SleepCount
                                           	extern	_SleepFlag
                                           	extern	_MaxLight
                                           	extern	_INDF
                                           	extern	_T0
                                           	extern	_PCL
                                           	extern	_STATUS
                                           	extern	_FSR
                                           	extern	_PORTB
                                           	extern	_GPR
                                           	extern	_PCON
                                           	extern	_IOCB
                                           	extern	_PCLATH
                                           	extern	_PDCON
                                           	extern	_ODCON
                                           	extern	_PHCON
                                           	extern	_INTECON
                                           	extern	_INTFLAG
                                           	extern	_OPTION
                                           	extern	_TRISB
                                           	extern	_PWMCON
                                           	extern	_PWM1P
                                           	extern	_PWM2P
                                           	extern	_T0CR
                                           	extern	_T1CON
                                           	extern	_T1
                                           	extern	_T1LOAD
                                           	extern	_PWM0P
                                           	extern	_OSCCON
                                           	extern	_CMPCR
                                           	extern	_PDCON1
                                           	extern	_CHARGE0
                                           	extern	_CHARGE1
                                           	extern	_RAMP
                                           	extern	_AUXR
                                           	extern	_HIRCTRM

                                           	extern PSAVE
                                           	extern SSAVE
                                           	extern WSAVE
                                           	extern STK12
                                           	extern STK11
                                           	extern STK10
                                           	extern STK09
                                           	extern STK08
                                           	extern STK07
                                           	extern STK06
                                           	extern STK05
                                           	extern STK04
                                           	extern STK03
                                           	extern STK02
                                           	extern STK01
                                           	extern STK00
                                           ;--------------------------------------------------------
                                           ; global declarations
                                           ;--------------------------------------------------------
                                           	global	_ControlLvdCfg
                                           	global	_ConfigureLvd
                                           	global	_CheckLvdElectric
                                           	global	_CheckLvd

                                           ;--------------------------------------------------------
                                           ; global definitions
                                           ;--------------------------------------------------------
                                           ;--------------------------------------------------------
                                           ; absolute symbol definitions
                                           ;--------------------------------------------------------
                                           ;--------------------------------------------------------
                                           ; compiler-defined variables
                                           ;--------------------------------------------------------
                                           ;--------------------------------------------------------
                                           ; initialized data
                                           ;--------------------------------------------------------
                                           ;--------------------------------------------------------
                                           ; overlayable items in internal ram 
                                           ;--------------------------------------------------------
                                           ;	udata_ovr
                                           ;--------------------------------------------------------
                                           ; code
                                           ;--------------------------------------------------------
                                           code_lvd	code
                                           ;***
                                           ;  pBlock Stats: dbName = C
                                           ;***
                                           ;has an exit
                                           ;; Starting pCode block
                                           ;;[ICODE] lvd.c:161:  _entry($2) :
                                           ;;[ICODE] lvd.c:161: 	proc _ControlLvdCfg [k1 lr0:0 so:0]{ ia0 a2p0 re0 rm0 nos0 ru0 dp0}{void function ( unsigned-char fixed) fixed}
                                           S_lvd__ControlLvdCfg	code
                                           _ControlLvdCfg:
                                           ; 2 exit points
                                           ;;[ICODE] lvd.c:164:  _return($1) :
                                           ;;[ICODE] lvd.c:164: 	eproc _ControlLvdCfg [k1 lr0:0 so:0]{ ia0 a2p0 re0 rm0 nos0 ru0 dp0}{void function ( unsigned-char fixed) fixed}
                                           ;	.line	164; "lvd.c"	if(num == 1){}
0002ab   0002     return                   	RETURN	
                                           ; exit point of _ControlLvdCfg

                                           ;***
                                           ;  pBlock Stats: dbName = C
                                           ;***
                                           ;has an exit
                                           ;; Starting pCode block
                                           ;;[ICODE] lvd.c:109:  _entry($2) :
                                           ;;[ICODE] lvd.c:109: 	proc _ConfigureLvd [k1 lr0:0 so:0]{ ia0 a2p0 re0 rm0 nos0 ru0 dp0}{void function ( ) fixed}
                                           S_lvd__ConfigureLvd	code
                                           _ConfigureLvd:
                                           ; 2 exit points
                                           ;;[ICODE] lvd.c:159:  _return($1) :
                                           ;;[ICODE] lvd.c:159: 	eproc _ConfigureLvd [k1 lr0:0 so:0]{ ia0 a2p0 re0 rm0 nos0 ru0 dp0}{void function ( ) fixed}
                                           ;	.line	159; "lvd.c"	}
0002ac   0002     return                   	RETURN	
                                           ; exit point of _ConfigureLvd

                                           ;***
                                           ;  pBlock Stats: dbName = C
                                           ;***
                                           ;has an exit
                                           ;; Starting pCode block
                                           ;;[ICODE] lvd.c:35:  _entry($2) :
                                           ;;[ICODE] lvd.c:35: 	proc _CheckLvdElectric [k1 lr0:0 so:0]{ ia0 a2p0 re0 rm0 nos0 ru0 dp0}{void function ( unsigned-char fixed) fixed}
                                           S_lvd__CheckLvdElectric	code
                                           _CheckLvdElectric:
                                           ; 2 exit points
                                           ;;[ICODE] lvd.c:39:  _return($1) :
                                           ;;[ICODE] lvd.c:39: 	eproc _CheckLvdElectric [k1 lr0:0 so:0]{ ia0 a2p0 re0 rm0 nos0 ru0 dp0}{void function ( unsigned-char fixed) fixed}
                                           ;	.line	39; "lvd.c"	if(num == 1){}
0002ad   0002     return                   	RETURN	
                                           ; exit point of _CheckLvdElectric

                                           ;***
                                           ;  pBlock Stats: dbName = C
                                           ;***
                                           ;has an exit
                                           ;; Starting pCode block
                                           ;;[ICODE] lvd.c:9:  _entry($2) :
                                           ;;[ICODE] lvd.c:9: 	proc _CheckLvd [k1 lr0:0 so:0]{ ia0 a2p0 re0 rm0 nos0 ru0 dp0}{void function ( ) fixed}
                                           S_lvd__CheckLvd	code
                                           _CheckLvd:
                                           ; 2 exit points
                                           ;;[ICODE] lvd.c:31:  _return($1) :
                                           ;;[ICODE] lvd.c:31: 	eproc _CheckLvd [k1 lr0:0 so:0]{ ia0 a2p0 re0 rm0 nos0 ru0 dp0}{void function ( ) fixed}
                                           ;	.line	31; "lvd.c"	}
0002ae   0002     return                   	RETURN	
                                           ; exit point of _CheckLvd


                                           ;	code size estimation:
                                           ;	    4+    0 =     4 instructions (    8 byte)

                                           	end
                                           ;--------------------------------------------------------
                                           ; File Created by SDCC : free open source ANSI-C Compiler
                                           ; Version 3.6.0 #9615 (CYGWIN)
                                           ;--------------------------------------------------------
                                           ; PIC port for the 14-bit core
                                           ;--------------------------------------------------------
                                           ;	.file	"main.c"
                                           	list	p=18p018a0
                                           	radix dec
                                           	include "p18p018a0.inc"
                                                  LIST

                                           ;==========================================================================
                                           ; Build date : Jun 02 2017
                                           ;  HCIDE HC18P018A0 processor include
                                           ; 
                                           ;  (c) Copyright 2012-2021 Holychip Technology, All rights reserved
                                           ;==========================================================================

                                                   NOLIST
                                           ;--------------------------------------------------------
                                           ; external declarations
                                           ;--------------------------------------------------------
                                           	extern	_InitPort
                                           	extern	_InitSystem
                                           	extern	_InitPwm
                                           	extern	_InitRam
                                           	extern	_CheckLvd
                                           	extern	_ConfigureLvd
                                           	extern	_Work
                                           	extern	_ScanKey
                                           	extern	_CheckTemp
                                           	extern	_CheckSleep
                                           	extern	_ControlLevelLow
                                           	extern	_ControlLevelHigh
                                           	extern	_ControlLevel
                                           	extern	_ControlFlash
                                           	extern	_ControlSos
                                           	extern	_LedDisplay
                                           	extern	_LedOn
                                           	extern	_LedOff
                                           	extern	_MotoDisplay
                                           	extern	_LedSwitch
                                           	extern	_MotoSwitch
                                           	extern	_PowOn
                                           	extern	_PowOff
                                           	extern	_CountdownDisplay
                                           	extern	_STATUSbits
                                           	extern	_PORTBbits
                                           	extern	_PCONbits
                                           	extern	_IOCBbits
                                           	extern	_PDCONbits
                                           	extern	_ODCONbits
                                           	extern	_PHCONbits
                                           	extern	_INTECONbits
                                           	extern	_INTFLAGbits
                                           	extern	_OPTIONbits
                                           	extern	_TRISBbits
                                           	extern	_PWMCONbits
                                           	extern	_T0CRbits
                                           	extern	_T1CONbits
                                           	extern	_OSCCONbits
                                           	extern	_CMPCRbits
                                           	extern	_PDCON1bits
                                           	extern	_CHARGE0bits
                                           	extern	_CHARGE1bits
                                           	extern	_RAMPbits
                                           	extern	_AUXRbits
                                           	extern	_BITS_DATA0
                                           	extern	_BITS_DATA1
                                           	extern	_g_ucTimer10msCount
                                           	extern	_g_ucTimerWorkCount
                                           	extern	_TempCount
                                           	extern	_TempFlag
                                           	extern	_SleepCount
                                           	extern	_SleepFlag
                                           	extern	_MaxLight
                                           	extern	_INDF
                                           	extern	_T0
                                           	extern	_PCL
                                           	extern	_STATUS
                                           	extern	_FSR
                                           	extern	_PORTB
                                           	extern	_GPR
                                           	extern	_PCON
                                           	extern	_IOCB
                                           	extern	_PCLATH
                                           	extern	_PDCON
                                           	extern	_ODCON
                                           	extern	_PHCON
                                           	extern	_INTECON
                                           	extern	_INTFLAG
                                           	extern	_OPTION
                                           	extern	_TRISB
                                           	extern	_PWMCON
                                           	extern	_PWM1P
                                           	extern	_PWM2P
                                           	extern	_T0CR
                                           	extern	_T1CON
                                           	extern	_T1
                                           	extern	_T1LOAD
                                           	extern	_PWM0P
                                           	extern	_OSCCON
                                           	extern	_CMPCR
                                           	extern	_PDCON1
                                           	extern	_CHARGE0
                                           	extern	_CHARGE1
                                           	extern	_RAMP
                                           	extern	_AUXR
                                           	extern	_HIRCTRM
                                           ;--------------------------------------------------------
                                           ; global declarations
                                           ;--------------------------------------------------------
                                           	global	__sdcc_gsinit_startup
                                           	global	_delay_ms
                                           	global	_main
                                           	global	_VERSION

                                           	global PSAVE
                                           	global SSAVE
                                           	global WSAVE
                                           	global STK12
                                           	global STK11
                                           	global STK10
                                           	global STK09
                                           	global STK08
                                           	global STK07
                                           	global STK06
                                           	global STK05
                                           	global STK04
                                           	global STK03
                                           	global STK02
                                           	global STK01
                                           	global STK00

                                           sharebank udata_ovr 0x0010
                                           PSAVE	res 1
                                           SSAVE	res 1
                                           WSAVE	res 1
                                           STK12	res 1
                                           STK11	res 1
                                           STK10	res 1
                                           STK09	res 1
                                           STK08	res 1
                                           STK07	res 1
                                           STK06	res 1
                                           STK05	res 1
                                           STK04	res 1
                                           STK03	res 1
                                           STK02	res 1
                                           STK01	res 1
                                           STK00	res 1

                                           ;--------------------------------------------------------
                                           ; global definitions
                                           ;--------------------------------------------------------
                                           ;--------------------------------------------------------
                                           ; absolute symbol definitions
                                           ;--------------------------------------------------------
                                           ;--------------------------------------------------------
                                           ; compiler-defined variables
                                           ;--------------------------------------------------------
                                           UDL_main_0	udata
                                           r0x1002	res	1
                                           r0x1001	res	1
                                           r0x1003	res	1
                                           r0x1004	res	1
                                           ;--------------------------------------------------------
                                           ; initialized data
                                           ;--------------------------------------------------------

                                           ID_main_0	code
                                           _VERSION
000253   0100     retlw   0x00             	retlw 0x00
000254   0100     retlw   0x00             	retlw 0x00
000255   0100     retlw   0x00             	retlw 0x00
000256   0100     retlw   0x00             	retlw 0x00
000257   0100     retlw   0x00             	retlw 0x00
000258   0100     retlw   0x00             	retlw 0x00
000259   0100     retlw   0x00             	retlw 0x00
00025a   0100     retlw   0x00             	retlw 0x00
00025b   0100     retlw   0x00             	retlw 0x00
00025c   0100     retlw   0x00             	retlw 0x00


                                           ID_main_1	code
                                           ___str_0
00025d   0148     retlw   0x48             	retlw 0x48 ; 'H'
00025e   0143     retlw   0x43             	retlw 0x43 ; 'C'
00025f   012d     retlw   0x2d             	retlw 0x2d ; '-'
000260   0156     retlw   0x56             	retlw 0x56 ; 'V'
000261   0153     retlw   0x53             	retlw 0x53 ; 'S'
000262   0120     retlw   0x20             	retlw 0x20 ; ' '
000263   0156     retlw   0x56             	retlw 0x56 ; 'V'
000264   0130     retlw   0x30             	retlw 0x30 ; '0'
000265   0131     retlw   0x31             	retlw 0x31 ; '1'
000266   0100     retlw   0x00             	retlw 0x00 ; '.'
                                           ;--------------------------------------------------------
                                           ; overlayable items in internal ram 
                                           ;--------------------------------------------------------
                                           ;	udata_ovr
                                           ;--------------------------------------------------------
                                           ; reset vector 
                                           ;--------------------------------------------------------
                                           STARTUP	code 0x0000
000000   0000     nop                      	nop
000001   22a2     goto    0x02a2           	goto	__sdcc_gsinit_startup
                                           ;--------------------------------------------------------
                                           ; code
                                           ;--------------------------------------------------------
                                           code_main	code
                                           ;***
                                           ;  pBlock Stats: dbName = M
                                           ;***
                                           ;has an exit
                                           ;functions called:
                                           ;   _InitPort
                                           ;   _InitSystem
                                           ;   _InitRam
                                           ;   _delay_ms
                                           ;   _ScanKey
                                           ;   _CountdownDisplay
                                           ;   _CheckSleep
                                           ;   _LedDisplay
                                           ;   _MotoDisplay
                                           ;   _InitPort
                                           ;   _InitSystem
                                           ;   _InitRam
                                           ;   _delay_ms
                                           ;   _ScanKey
                                           ;   _CountdownDisplay
                                           ;   _CheckSleep
                                           ;   _LedDisplay
                                           ;   _MotoDisplay
                                           ;1 compiler assigned register :
                                           ;   STK00
                                           ;; Starting pCode block
                                           ;;[ICODE] main.c:35:  _entry($7) :
                                           ;;[ICODE] main.c:35: 	proc _main [k1 lr0:0 so:0]{ ia0 a2p0 re0 rm0 nos0 ru0 dp0}{void function ( ) fixed}
                                           S_main__main	code
                                           _main:
                                           ; 2 exit points
                                           ;;[ICODE] main.c:37: 	iTemp0 [k3 lr3:3 so:0]{ ia0 a2p0 re0 rm0 nos0 ru0 dp0}{void fixed} = call _InitPort [k2 lr0:0 so:0]{ ia0 a2p0 re0 rm0 nos0 ru0 dp0}{void function ( ) fixed}
                                           ;	.line	37; "main.c"	InitPort();
0001d1   2997     call    0x0197           	CALL	_InitPort
                                           ;;[ICODE] main.c:38: 	iTemp1 [k5 lr4:4 so:0]{ ia0 a2p0 re0 rm0 nos0 ru0 dp0}{void fixed} = call _InitSystem [k4 lr0:0 so:0]{ ia0 a2p0 re0 rm0 nos0 ru0 dp0}{void function ( ) fixed}
                                           ;	.line	38; "main.c"	InitSystem();
0001d2   2a49     call    0x0249           	CALL	_InitSystem
                                           ;;[ICODE] main.c:39: 	iTemp2 [k7 lr5:5 so:0]{ ia0 a2p0 re0 rm0 nos0 ru0 dp0}{void fixed} = call _InitRam [k6 lr0:0 so:0]{ ia0 a2p0 re0 rm0 nos0 ru0 dp0}{void function ( ) fixed}
                                           ;	.line	39; "main.c"	InitRam();
0001d3   2802     call    0x0002           	CALL	_InitRam
                                           ;;[ICODE] main.c:40: 	iTemp4 [k11 lr6:8 so:0]{ ia0 a2p0 re0 rm1 nos0 ru0 dp0}{volatile-unsigned-bitfield {0,1} near* fixed}[remat] = &[_INTECONbits [k8 lr0:0 so:0]{ ia0 a2p0 re0 rm0 nos0 ru0 dp0}{volatile-struct __00000024 fixed} , 0x0 {const-unsigned-char literal}]
                                           ;;[ICODE] main.c:40: 	*(iTemp4 [k11 lr6:8 so:0]{ ia1 a2p0 re0 rm1 nos0 ru0 dp0}{volatile-unsigned-bitfield {0,1} near* fixed}[remat]) := 0x1 {const-unsigned-char literal}
                                           ;	.line	40; "main.c"	T0IE = 1;		//使能TMR0溢出中断
0001d4   380e     bsf     0x0e, 0x0        	BSF	_INTECONbits,0
                                           ;;[ICODE] main.c:41: 	iTemp6 [k14 lr9:11 so:0]{ ia0 a2p0 re0 rm1 nos0 ru0 dp0}{volatile-unsigned-bitfield {7,1} near* fixed}[remat] = &[_INTECONbits [k8 lr0:0 so:0]{ ia0 a2p0 re0 rm0 nos0 ru0 dp0}{volatile-struct __00000024 fixed} , 0x0 {const-unsigned-char literal}]
                                           ;;[ICODE] main.c:41: 	*(iTemp6 [k14 lr9:11 so:0]{ ia1 a2p0 re0 rm1 nos0 ru0 dp0}{volatile-unsigned-bitfield {7,1} near* fixed}[remat]) := 0x1 {const-unsigned-char literal}
                                           ;	.line	41; "main.c"	GIE = 1;		//使能所有中断   
0001d5   3b8e     bsf     0x0e, 0x7        	BSF	_INTECONbits,7
                                           ;;[ICODE] main.c:59: inline
0001d6   0004     clrwdt                   	clrwdt
                                           ;;[ICODE] main.c:60: 	send 0x1f4 {const-int literal}{argreg = 1}
                                           ;;[ICODE] main.c:60: 	iTemp7 [k17 lr14:14 so:0]{ ia0 a2p0 re0 rm0 nos0 ru0 dp0}{void fixed} = call _delay_ms [k15 lr0:0 so:0]{ ia0 a2p0 re0 rm0 nos0 ru0 dp0}{void function ( unsigned-int fixed) fixed}
                                           ;	.line	60; "main.c"	delay_ms(500);
0001d7   04f4     movlw   0xf4             	MOVLW	0xf4
0001d8   199f     movwf   0x1f             	MOVWF	STK00
0001d9   0401     movlw   0x01             	MOVLW	0x01
0001da   29b5     call    0x01b5           	CALL	_delay_ms
                                           ;;[ICODE] main.c:61:  _whilebody_2($4) :
                                           ;;[ICODE] main.c:63: inline
                                           _00123_DS_:
0001db   0004     clrwdt                   	clrwdt
                                           ;;[ICODE] main.c:65: 	iTemp8 [k19 lr18:22 so:0]{ ia0 a2p0 re0 rm1 nos0 ru0 dp0}{unsigned-bitfield {0,1} near* fixed}[remat] = &[_BITS_DATA0 [k18 lr0:0 so:0]{ ia0 a2p0 re0 rm0 nos0 ru0 dp0}{struct __bits8_t fixed} , 0x0 {const-unsigned-char literal}]
                                           ;;[ICODE] main.c:65: 	iTemp9 [k21 lr19:20 so:0]{ ia0 a2p0 re0 rm1 nos0 ru0 dp0}{unsigned-bitfield {0,1} near* fixed}[remat] := iTemp8 [k19 lr18:22 so:0]{ ia0 a2p0 re0 rm1 nos0 ru0 dp0}{unsigned-bitfield {0,1} near* fixed}[remat]
                                           ;;[ICODE] main.c:65: 	iTemp10 [k22 lr20:21 so:0]{ ia0 a2p0 re0 rm0 nos0 ru0 dp0}{unsigned-bitfield {0,1} fixed}[r0x1049 ] = @[iTemp9 [k21 lr19:20 so:0]{ ia1 a2p0 re0 rm1 nos0 ru0 dp0}{unsigned-bitfield {0,1} near* fixed}[remat] + 0x0 {const-unsigned-char literal}]
                                           ;	.line	65; "main.c"	if (BIT_TIMER_10MS)
0001dc   3033     btfss   0x33, 0x0        	BTFSS	_BITS_DATA0,0
0001dd   21e2     goto    0x01e2           	GOTO	_00121_DS_
                                           ;;[ICODE] main.c:65: 	if iTemp10 [k22 lr20:21 so:0]{ ia0 a2p0 re0 rm0 nos0 ru0 dp0}{unsigned-bitfield {0,1} fixed}[r0x1049 ] == 0 goto __iffalse_0($2)
                                           ;;[ICODE] main.c:67: 	iTemp12 [k25 lr22:23 so:0]{ ia0 a2p0 re0 rm1 nos0 ru0 dp0}{unsigned-bitfield {0,1} near* fixed}[remat] := iTemp8 [k19 lr18:22 so:0]{ ia0 a2p0 re0 rm1 nos0 ru0 dp0}{unsigned-bitfield {0,1} near* fixed}[remat]
                                           ;;[ICODE] main.c:67: 	*(iTemp12 [k25 lr22:23 so:0]{ ia1 a2p0 re0 rm1 nos0 ru0 dp0}{unsigned-bitfield {0,1} near* fixed}[remat]) := 0x0 {const-unsigned-char literal}
                                           ;	.line	67; "main.c"	BIT_TIMER_10MS = 0;
0001de   3c33     bcf     0x33, 0x0        	BCF	_BITS_DATA0,0
                                           ;;[ICODE] main.c:69: 	iTemp13 [k27 lr24:24 so:0]{ ia0 a2p0 re0 rm0 nos0 ru0 dp0}{void fixed} = call _ScanKey [k26 lr0:0 so:0]{ ia0 a2p0 re0 rm0 nos0 ru0 dp0}{void function ( ) fixed}
                                           ;	.line	69; "main.c"	ScanKey();                       //按键检测	
0001df   2829     call    0x0029           	CALL	_ScanKey
                                           ;;[ICODE] main.c:70: 	iTemp14 [k29 lr25:25 so:0]{ ia0 a2p0 re0 rm0 nos0 ru0 dp0}{void fixed} = call _CountdownDisplay [k28 lr0:0 so:0]{ ia0 a2p0 re0 rm0 nos0 ru0 dp0}{void function ( ) fixed}
                                           ;	.line	70; "main.c"	CountdownDisplay();			 //倒计时
0001e0   294c     call    0x014c           	CALL	_CountdownDisplay
                                           ;;[ICODE] main.c:71: 	iTemp15 [k31 lr26:26 so:0]{ ia0 a2p0 re0 rm0 nos0 ru0 dp0}{void fixed} = call _CheckSleep [k30 lr0:0 so:0]{ ia0 a2p0 re0 rm0 nos0 ru0 dp0}{void function ( ) fixed}
                                           ;	.line	71; "main.c"	CheckSleep();						 //休眠--低功耗
0001e1   28ab     call    0x00ab           	CALL	_CheckSleep
                                           ;;[ICODE] main.c:71:  __iffalse_0($2) :
                                           ;;[ICODE] main.c:74: 	iTemp16 [k33 lr28:28 so:0]{ ia0 a2p0 re0 rm0 nos0 ru0 dp0}{void fixed} = call _LedDisplay [k32 lr0:0 so:0]{ ia0 a2p0 re0 rm0 nos0 ru0 dp0}{void function ( ) fixed}
                                           _00121_DS_:
                                           ;	.line	74; "main.c"	LedDisplay();					 //LED指示灯
0001e2   2a3e     call    0x023e           	CALL	_LedDisplay
                                           ;;[ICODE] main.c:75: 	iTemp17 [k35 lr29:29 so:0]{ ia0 a2p0 re0 rm0 nos0 ru0 dp0}{void fixed} = call _MotoDisplay [k34 lr0:0 so:0]{ ia0 a2p0 re0 rm0 nos0 ru0 dp0}{void function ( ) fixed}
                                           ;	.line	75; "main.c"	MotoDisplay();					 //电机控制
0001e3   2a33     call    0x0233           	CALL	_MotoDisplay
                                           ;;[ICODE] main.c:75: 	 goto _whilebody_2($4)
0001e4   21db     goto    0x01db           	GOTO	_00123_DS_
                                           ;;[ICODE] main.c:75:  _return($6) :
                                           ;;[ICODE] main.c:75: 	eproc _main [k1 lr0:0 so:0]{ ia0 a2p0 re0 rm0 nos0 ru0 dp0}{void function ( ) fixed}
0001e5   0002     return                   	RETURN	
                                           ; exit point of _main

                                           ;***
                                           ;  pBlock Stats: dbName = C
                                           ;***
                                           ;has an exit
                                           ;5 compiler assigned registers:
                                           ;   r0x1001
                                           ;   STK00
                                           ;   r0x1002
                                           ;   r0x1003
                                           ;   r0x1004
                                           ;; Starting pCode block
                                           ;;[ICODE] main.c:17:  _entry($8) :
                                           ;;[ICODE] main.c:17: 	proc _delay_ms [k1 lr0:0 so:0]{ ia0 a2p0 re0 rm0 nos0 ru0 dp0}{void function ( unsigned-int fixed) fixed}
                                           S_main__delay_ms	code
                                           _delay_ms:
                                           ; 2 exit points
                                           ;;[ICODE] main.c:17: iTemp5 [k9 lr3:18 so:0]{ ia0 a2p0 re0 rm0 nos0 ru0 dp0}{unsigned-int fixed}[r0x1045 r0x1046 ] = recv _delay_ms [k1 lr0:0 so:0]{ ia0 a2p0 re0 rm0 nos0 ru0 dp0}{void function ( unsigned-int fixed) fixed}
                                           ;	.line	17; "main.c"	void delay_ms(WORD xms)
0001b5   19a1     movwf   0x21             	MOVWF	r0x1001
0001b6   111f     movf    0x1f, 0x0        	MOVF	STK00,W
0001b7   19a0     movwf   0x20             	MOVWF	r0x1002
                                           ;;[ICODE] main.c:19:  _whilecontinue_0($4) :
                                           ;;[ICODE] main.c:19: 	if iTemp5 [k9 lr3:18 so:0]{ ia0 a2p0 re0 rm0 nos0 ru0 dp0}{unsigned-int fixed}[r0x1045 r0x1046 ] == 0 goto _return($7)
                                           _00112_DS_:
                                           ;	.line	19; "main.c"	while (xms)
0001b8   1120     movf    0x20, 0x0        	MOVF	r0x1002,W
0001b9   1d21     iorwf   0x21, 0x0        	IORWF	r0x1001,W
0001ba   3503     btfsc   0x03, 0x2        	BTFSC	STATUS,2
0001bb   21d0     goto    0x01d0           	GOTO	_00115_DS_
                                           ;;[ICODE] main.c:23: 	iTemp3 [k7 lr8:14 so:0]{ ia0 a2p0 re0 rm0 nos0 ru0 dp0}{unsigned-int fixed}{ sir@ _delay_ms_i_2_29}[r0x1047 r0x1048 ] := 0x149 {const-unsigned-int literal}
                                           ;	.line	23; "main.c"	while (i)
0001bc   0449     movlw   0x49             	MOVLW	0x49
0001bd   19a2     movwf   0x22             	MOVWF	r0x1003
0001be   0401     movlw   0x01             	MOVLW	0x01
0001bf   19a3     movwf   0x23             	MOVWF	r0x1004
                                           ;;[ICODE] main.c:23:  _whilecontinue_1($1) :
                                           ;;[ICODE] main.c:23: 	if iTemp3 [k7 lr8:14 so:0]{ ia0 a2p0 re0 rm0 nos0 ru0 dp0}{unsigned-int fixed}{ sir@ _delay_ms_i_2_29}[r0x1047 r0x1048 ] == 0 goto _whilebreak_1($3)
                                           _00109_DS_:
0001c0   1122     movf    0x22, 0x0        	MOVF	r0x1003,W
0001c1   1d23     iorwf   0x23, 0x0        	IORWF	r0x1004,W
0001c2   3503     btfsc   0x03, 0x2        	BTFSC	STATUS,2
0001c3   21ca     goto    0x01ca           	GOTO	_00111_DS_
                                           ;;[ICODE] main.c:26: inline
0001c4   0000     nop                      	nop
                                           ;;[ICODE] main.c:27: 	iTemp3 [k7 lr8:14 so:0]{ ia0 a2p0 re0 rm0 nos0 ru0 dp0}{unsigned-int fixed}{ sir@ _delay_ms_i_2_29}[r0x1047 r0x1048 ] = iTemp3 [k7 lr8:14 so:0]{ ia0 a2p0 re0 rm0 nos0 ru0 dp0}{unsigned-int fixed}{ sir@ _delay_ms_i_2_29}[r0x1047 r0x1048 ] - 0x1 {const-unsigned-char literal}
                                           ;	.line	27; "main.c"	i--;
0001c5   04ff     movlw   0xff             	MOVLW	0xff
0001c6   1ea2     addwf   0x22, 0x1        	ADDWF	r0x1003,F
0001c7   3003     btfss   0x03, 0x0        	BTFSS	STATUS,0
0001c8   1aa3     decf    0x23, 0x1        	DECF	r0x1004,F
                                           ;;[ICODE] main.c:27: 	 goto _whilecontinue_1($1)
0001c9   21c0     goto    0x01c0           	GOTO	_00109_DS_
                                           ;;[ICODE] main.c:27:  _whilebreak_1($3) :
                                           ;;[ICODE] main.c:30: inline
                                           _00111_DS_:
0001ca   0004     clrwdt                   	clrwdt
                                           ;;[ICODE] main.c:31: 	iTemp5 [k9 lr3:18 so:0]{ ia0 a2p0 re0 rm0 nos0 ru0 dp0}{unsigned-int fixed}[r0x1045 r0x1046 ] = iTemp5 [k9 lr3:18 so:0]{ ia0 a2p0 re0 rm0 nos0 ru0 dp0}{unsigned-int fixed}[r0x1045 r0x1046 ] - 0x1 {const-unsigned-char literal}
                                           ;	.line	31; "main.c"	xms--;
0001cb   04ff     movlw   0xff             	MOVLW	0xff
0001cc   1ea0     addwf   0x20, 0x1        	ADDWF	r0x1002,F
0001cd   3003     btfss   0x03, 0x0        	BTFSS	STATUS,0
0001ce   1aa1     decf    0x21, 0x1        	DECF	r0x1001,F
                                           ;;[ICODE] main.c:31: 	 goto _whilecontinue_0($4)
0001cf   21b8     goto    0x01b8           	GOTO	_00112_DS_
                                           ;;[ICODE] main.c:31:  _return($7) :
                                           ;;[ICODE] main.c:31: 	eproc _delay_ms [k1 lr0:0 so:0]{ ia0 a2p0 re0 rm0 nos0 ru0 dp0}{void function ( unsigned-int fixed) fixed}
                                           _00115_DS_:
0001d0   0002     return                   	RETURN	
                                           ; exit point of _delay_ms

                                           ;***
                                           ;  pBlock Stats: dbName = C
                                           ;***
                                           ;has an exit
                                           ;; Starting pCode block
                                           ;;[ICODE] main.c:14:  _entry($2) :
                                           ;;[ICODE] main.c:14: 	proc __sdcc_gsinit_startup [k1 lr0:0 so:0]{ ia0 a2p0 re0 rm0 nos0 ru0 dp0}{void function ( ) fixed}
                                           S_main___sdcc_gsinit_startup	code
                                           __sdcc_gsinit_startup:
                                           ; 2 exit points
                                           ;;[ICODE] main.c:14: inline
                                           	pagesel	_main 
                                           ;;[ICODE] main.c:14: inline
0002a2   21d1     goto    0x01d1           	goto	_main 
                                           ;;[ICODE] main.c:14:  _return($1) :
                                           ;;[ICODE] main.c:14: 	eproc __sdcc_gsinit_startup [k1 lr0:0 so:0]{ ia0 a2p0 re0 rm0 nos0 ru0 dp0}{void function ( ) fixed}
0002a3   0002     return                   	RETURN	
                                           ; exit point of __sdcc_gsinit_startup


                                           ;	code size estimation:
                                           ;	   46+    0 =    46 instructions (   92 byte)

                                           	end
                                           ;--------------------------------------------------------
                                           ; File Created by SDCC : free open source ANSI-C Compiler
                                           ; Version 3.6.0 #9615 (CYGWIN)
                                           ;--------------------------------------------------------
                                           ; PIC port for the 14-bit core
                                           ;--------------------------------------------------------
                                           ;	.file	"temp.c"
                                           	list	p=18p018a0
                                           	radix dec
                                           	include "p18p018a0.inc"
                                                  LIST

                                           ;==========================================================================
                                           ; Build date : Jun 02 2017
                                           ;  HCIDE HC18P018A0 processor include
                                           ; 
                                           ;  (c) Copyright 2012-2021 Holychip Technology, All rights reserved
                                           ;==========================================================================

                                                   NOLIST
                                           ;--------------------------------------------------------
                                           ; external declarations
                                           ;--------------------------------------------------------
                                           	extern	_DelayMs
                                           	extern	_ControlLevelLow
                                           	extern	_ControlLevelHigh
                                           	extern	_ControlLevel
                                           	extern	_ControlFlash
                                           	extern	_ControlSos
                                           	extern	_InitPort
                                           	extern	_InitSystem
                                           	extern	_InitPwm
                                           	extern	_InitRam
                                           	extern	_delay_ms
                                           	extern	_STATUSbits
                                           	extern	_PORTBbits
                                           	extern	_PCONbits
                                           	extern	_IOCBbits
                                           	extern	_PDCONbits
                                           	extern	_ODCONbits
                                           	extern	_PHCONbits
                                           	extern	_INTECONbits
                                           	extern	_INTFLAGbits
                                           	extern	_OPTIONbits
                                           	extern	_TRISBbits
                                           	extern	_PWMCONbits
                                           	extern	_T0CRbits
                                           	extern	_T1CONbits
                                           	extern	_OSCCONbits
                                           	extern	_CMPCRbits
                                           	extern	_PDCON1bits
                                           	extern	_CHARGE0bits
                                           	extern	_CHARGE1bits
                                           	extern	_RAMPbits
                                           	extern	_AUXRbits
                                           	extern	_BITS_DATA0
                                           	extern	_BITS_DATA1
                                           	extern	_g_ucTimer10msCount
                                           	extern	_g_ucTimerWorkCount
                                           	extern	_TempCount
                                           	extern	_TempFlag
                                           	extern	_SleepCount
                                           	extern	_SleepFlag
                                           	extern	_MaxLight
                                           	extern	_INDF
                                           	extern	_T0
                                           	extern	_PCL
                                           	extern	_STATUS
                                           	extern	_FSR
                                           	extern	_PORTB
                                           	extern	_GPR
                                           	extern	_PCON
                                           	extern	_IOCB
                                           	extern	_PCLATH
                                           	extern	_PDCON
                                           	extern	_ODCON
                                           	extern	_PHCON
                                           	extern	_INTECON
                                           	extern	_INTFLAG
                                           	extern	_OPTION
                                           	extern	_TRISB
                                           	extern	_PWMCON
                                           	extern	_PWM1P
                                           	extern	_PWM2P
                                           	extern	_T0CR
                                           	extern	_T1CON
                                           	extern	_T1
                                           	extern	_T1LOAD
                                           	extern	_PWM0P
                                           	extern	_OSCCON
                                           	extern	_CMPCR
                                           	extern	_PDCON1
                                           	extern	_CHARGE0
                                           	extern	_CHARGE1
                                           	extern	_RAMP
                                           	extern	_AUXR
                                           	extern	_HIRCTRM

                                           	extern PSAVE
                                           	extern SSAVE
                                           	extern WSAVE
                                           	extern STK12
                                           	extern STK11
                                           	extern STK10
                                           	extern STK09
                                           	extern STK08
                                           	extern STK07
                                           	extern STK06
                                           	extern STK05
                                           	extern STK04
                                           	extern STK03
                                           	extern STK02
                                           	extern STK01
                                           	extern STK00
                                           ;--------------------------------------------------------
                                           ; global declarations
                                           ;--------------------------------------------------------
                                           	global	_CheckSleep
                                           	global	_CheckTemp

                                           ;--------------------------------------------------------
                                           ; global definitions
                                           ;--------------------------------------------------------
                                           ;--------------------------------------------------------
                                           ; absolute symbol definitions
                                           ;--------------------------------------------------------
                                           ;--------------------------------------------------------
                                           ; compiler-defined variables
                                           ;--------------------------------------------------------
                                           UDL_temp_0	udata
                                           r0x1005	res	1
                                           r0x1006	res	1
                                           ;--------------------------------------------------------
                                           ; initialized data
                                           ;--------------------------------------------------------
                                           ;--------------------------------------------------------
                                           ; overlayable items in internal ram 
                                           ;--------------------------------------------------------
                                           ;	udata_ovr
                                           ;--------------------------------------------------------
                                           ; code
                                           ;--------------------------------------------------------
                                           code_temp	code
                                           ;***
                                           ;  pBlock Stats: dbName = C
                                           ;***
                                           ;has an exit
                                           ;functions called:
                                           ;   _InitPort
                                           ;   _InitPort
                                           ;2 compiler assigned registers:
                                           ;   r0x1005
                                           ;   r0x1006
                                           ;; Starting pCode block
                                           ;;[ICODE] temp.c:33:  _entry($7) :
                                           ;;[ICODE] temp.c:33: 	proc _CheckSleep [k1 lr0:0 so:0]{ ia0 a2p0 re0 rm0 nos0 ru0 dp0}{void function ( ) fixed}
                                           S_temp__CheckSleep	code
                                           _CheckSleep:
                                           ; 2 exit points
                                           ;;[ICODE] temp.c:35: 	iTemp1 [k5 lr3:5 so:0]{ ia0 a2p0 re0 rm1 nos0 ru0 dp0}{unsigned-bitfield {5,1} near* fixed}[remat] = &[_BITS_DATA0 [k2 lr0:0 so:0]{ ia0 a2p0 re0 rm0 nos0 ru0 dp0}{struct __bits8_t fixed} , 0x0 {const-unsigned-char literal}]
                                           ;;[ICODE] temp.c:35: 	iTemp2 [k6 lr5:6 so:0]{ ia0 a2p0 re0 rm0 nos0 ru0 dp0}{unsigned-bitfield {5,1} fixed}[r0x1049 ] = @[iTemp1 [k5 lr3:5 so:0]{ ia1 a2p0 re0 rm1 nos0 ru0 dp0}{unsigned-bitfield {5,1} near* fixed}[remat] + 0x0 {const-unsigned-char literal}]
                                           ;	.line	35; "temp.c"	if(1 == IsLight || 1 == IsMotor)
0000ab   18aa     clrf    0x2a             	CLRF	r0x1005
0000ac   36b3     btfsc   0x33, 0x5        	BTFSC	_BITS_DATA0,5
0000ad   13aa     incf    0x2a, 0x1        	INCF	r0x1005,F
                                           ;;[ICODE] temp.c:35: 	iTemp3 [k7 lr6:7 so:0]{ ia0 a2p0 re0 rm0 nos0 ru0 dp0}{char fixed}[r0x104A ] = (char register)iTemp2 [k6 lr5:6 so:0]{ ia0 a2p0 re0 rm0 nos0 ru0 dp0}{unsigned-bitfield {5,1} fixed}[r0x1049 ]
0000ae   112a     movf    0x2a, 0x0        	MOVF	r0x1005,W
0000af   19ab     movwf   0x2b             	MOVWF	r0x1006
0000b0   0d01     xorlw   0x01             	XORLW	0x01
0000b1   3503     btfsc   0x03, 0x2        	BTFSC	STATUS,2
0000b2   20bb     goto    0x00bb           	GOTO	_00114_DS_
0000b3   18aa     clrf    0x2a             	CLRF	r0x1005
0000b4   3733     btfsc   0x33, 0x6        	BTFSC	_BITS_DATA0,6
0000b5   13aa     incf    0x2a, 0x1        	INCF	r0x1005,F
                                           ;;[ICODE] temp.c:35: 	iTemp8 [k13 lr12:13 so:0]{ ia0 a2p0 re0 rm0 nos0 ru0 dp0}{char fixed}[r0x104A ] = (char register)iTemp7 [k12 lr11:12 so:0]{ ia0 a2p0 re0 rm0 nos0 ru0 dp0}{unsigned-bitfield {6,1} fixed}[r0x1049 ]
0000b6   112a     movf    0x2a, 0x0        	MOVF	r0x1005,W
0000b7   19ab     movwf   0x2b             	MOVWF	r0x1006
0000b8   0d01     xorlw   0x01             	XORLW	0x01
0000b9   3103     btfss   0x03, 0x2        	BTFSS	STATUS,2
0000ba   20bd     goto    0x00bd           	GOTO	_00115_DS_
                                           ;;[ICODE] temp.c:35: 	if iTemp9 [k14 lr13:14 so:0]{ ia0 a2p0 re0 rm0 nos0 ru0 dp0}{char fixed} == 0 goto __iffalse_2($2)
                                           ;;[ICODE] temp.c:35:  __iftrue_2($1) :
                                           ;;[ICODE] temp.c:37: 	_SleepCount [k15 lr0:0 so:0]{ ia1 a2p0 re0 rm0 nos0 ru0 dp0}{unsigned-int fixed} := 0x0 {unsigned-int literal}
                                           _00114_DS_:
                                           ;	.line	37; "temp.c"	SleepCount = 0;
0000bb   18ae     clrf    0x2e             	CLRF	_SleepCount
0000bc   18af     clrf    0x2f             	CLRF	(_SleepCount + 1)
                                           ;;[ICODE] temp.c:37:  __iffalse_2($2) :
                                           ;;[ICODE] temp.c:42: 	iTemp11 [k17 lr18:19 so:0]{ ia0 a2p0 re0 rm0 nos0 ru0 dp0}{char fixed} = _SleepCount [k15 lr0:0 so:0]{ ia0 a2p0 re0 rm0 nos0 ru0 dp0}{unsigned-int fixed} < 0x3e8 {unsigned-int literal}
                                           ;;unsigned compare: left < lit(0x3E8=1000), size=2
                                           _00115_DS_:
                                           ;	.line	42; "temp.c"	if(SleepCount < 1000)
0000bd   0403     movlw   0x03             	MOVLW	0x03
0000be   1b2f     subwf   0x2f, 0x0        	SUBWF	(_SleepCount + 1),W
0000bf   3103     btfss   0x03, 0x2        	BTFSS	STATUS,2
0000c0   20c3     goto    0x00c3           	GOTO	_00128_DS_
0000c1   04e8     movlw   0xe8             	MOVLW	0xe8
0000c2   1b2e     subwf   0x2e, 0x0        	SUBWF	_SleepCount,W
                                           _00128_DS_:
0000c3   3403     btfsc   0x03, 0x0        	BTFSC	STATUS,0
0000c4   20c9     goto    0x00c9           	GOTO	_00118_DS_
                                           ;;genSkipc:3257: created from rifx:0x782c44
                                           ;;[ICODE] temp.c:42: 	if iTemp11 [k17 lr18:19 so:0]{ ia0 a2p0 re0 rm0 nos0 ru0 dp0}{char fixed} == 0 goto __iffalse_3($5)
                                           ;;[ICODE] temp.c:45: 	_SleepCount [k15 lr0:0 so:0]{ ia1 a2p0 re0 rm0 nos0 ru0 dp0}{unsigned-int fixed} = _SleepCount [k15 lr0:0 so:0]{ ia1 a2p0 re0 rm0 nos0 ru0 dp0}{unsigned-int fixed} + 0x1 {const-unsigned-char literal}
                                           ;	.line	45; "temp.c"	SleepCount++;
0000c5   13ae     incf    0x2e, 0x1        	INCF	_SleepCount,F
0000c6   3503     btfsc   0x03, 0x2        	BTFSC	STATUS,2
0000c7   13af     incf    0x2f, 0x1        	INCF	(_SleepCount + 1),F
                                           ;;[ICODE] temp.c:46: 	ret
                                           ;	.line	46; "temp.c"	return;
0000c8   20fb     goto    0x00fb           	GOTO	_00119_DS_
                                           ;;[ICODE] temp.c:46:  __iffalse_3($5) :
                                           ;;[ICODE] temp.c:49: 	_RAMP [k21 lr0:0 so:0]{ ia1 a2p0 re0 rm0 nos0 ru0 dp0}{volatile-unsigned-char sfr} := 0x0 {const-unsigned-char literal}
                                           _00118_DS_:
                                           ;	.line	49; "temp.c"	RAMP = 0;
0000c9   18d5     clrf    0x55             	CLRF	_RAMP
                                           ;;[ICODE] temp.c:50: 	_T1CON [k22 lr0:0 so:0]{ ia1 a2p0 re0 rm0 nos0 ru0 dp0}{volatile-unsigned-char sfr} := 0x0 {const-unsigned-char literal}
                                           ;	.line	50; "temp.c"	T1CON = 0;
0000ca   18cc     clrf    0x4c             	CLRF	_T1CON
                                           ;;[ICODE] temp.c:51: 	_CHARGE1 [k23 lr0:0 so:0]{ ia1 a2p0 re0 rm0 nos0 ru0 dp0}{volatile-unsigned-char sfr} := 0x0 {const-unsigned-char literal}
                                           ;	.line	51; "temp.c"	CHARGE1 = 0;
0000cb   18d4     clrf    0x54             	CLRF	_CHARGE1
                                           ;;[ICODE] temp.c:52: 	_CHARGE0 [k24 lr0:0 so:0]{ ia1 a2p0 re0 rm0 nos0 ru0 dp0}{volatile-unsigned-char sfr} := 0x0 {const-unsigned-char literal}
                                           ;	.line	52; "temp.c"	CHARGE0 = 0;
0000cc   18d3     clrf    0x53             	CLRF	_CHARGE0
                                           ;;[ICODE] temp.c:53: 	_PCON [k25 lr0:0 so:0]{ ia1 a2p0 re0 rm0 nos0 ru0 dp0}{volatile-unsigned-char sfr} := 0x0 {const-unsigned-char literal}
                                           ;	.line	53; "temp.c"	PCON = 0;
0000cd   1888     clrf    0x08             	CLRF	_PCON
                                           ;;[ICODE] temp.c:54: 	_CMPCR [k26 lr0:0 so:0]{ ia1 a2p0 re0 rm0 nos0 ru0 dp0}{volatile-unsigned-char sfr} := 0x0 {const-unsigned-char literal}
                                           ;	.line	54; "temp.c"	CMPCR = 0;
0000ce   18d1     clrf    0x51             	CLRF	_CMPCR
                                           ;;[ICODE] temp.c:57: 	iTemp16 [k30 lr30:32 so:0]{ ia0 a2p0 re0 rm1 nos0 ru0 dp0}{volatile-unsigned-bitfield {4,1} near* fixed}[remat] = &[_CMPCRbits [k27 lr0:0 so:0]{ ia0 a2p0 re0 rm0 nos0 ru0 dp0}{volatile-struct __00000056 fixed} , 0x0 {const-unsigned-char literal}]
                                           ;;[ICODE] temp.c:57: 	*(iTemp16 [k30 lr30:32 so:0]{ ia1 a2p0 re0 rm1 nos0 ru0 dp0}{volatile-unsigned-bitfield {4,1} near* fixed}[remat]) := 0x0 {const-unsigned-char literal}
                                           ;	.line	57; "temp.c"	LVDM = 0;		
0000cf   3e51     bcf     0x51, 0x4        	BCF	_CMPCRbits,4
                                           ;;[ICODE] temp.c:58: 	iTemp18 [k34 lr33:35 so:0]{ ia0 a2p0 re0 rm1 nos0 ru0 dp0}{volatile-unsigned-bitfield {0,1} near* fixed}[remat] = &[_PCONbits [k31 lr0:0 so:0]{ ia0 a2p0 re0 rm0 nos0 ru0 dp0}{volatile-struct __00000006 fixed} , 0x0 {const-unsigned-char literal}]
                                           ;;[ICODE] temp.c:58: 	*(iTemp18 [k34 lr33:35 so:0]{ ia1 a2p0 re0 rm1 nos0 ru0 dp0}{volatile-unsigned-bitfield {0,1} near* fixed}[remat]) := 0x0 {const-unsigned-char literal}
                                           ;	.line	58; "temp.c"	CMPEN = 0;
0000d0   3c08     bcf     0x08, 0x0        	BCF	_PCONbits,0
                                           ;;[ICODE] temp.c:59: 	iTemp20 [k37 lr36:38 so:0]{ ia0 a2p0 re0 rm1 nos0 ru0 dp0}{volatile-unsigned-bitfield {5,1} near* fixed}[remat] = &[_PCONbits [k31 lr0:0 so:0]{ ia0 a2p0 re0 rm0 nos0 ru0 dp0}{volatile-struct __00000006 fixed} , 0x0 {const-unsigned-char literal}]
                                           ;;[ICODE] temp.c:59: 	*(iTemp20 [k37 lr36:38 so:0]{ ia1 a2p0 re0 rm1 nos0 ru0 dp0}{volatile-unsigned-bitfield {5,1} near* fixed}[remat]) := 0x0 {const-unsigned-char literal}
                                           ;	.line	59; "temp.c"	CMPOF = 0;
0000d1   3e88     bcf     0x08, 0x5        	BCF	_PCONbits,5
                                           ;;[ICODE] temp.c:60: 	iTemp22 [k41 lr39:41 so:0]{ ia0 a2p0 re0 rm1 nos0 ru0 dp0}{volatile-unsigned-bitfield {6,1} near* fixed}[remat] = &[_CHARGE1bits [k38 lr0:0 so:0]{ ia0 a2p0 re0 rm0 nos0 ru0 dp0}{volatile-struct __00000065 fixed} , 0x0 {const-unsigned-char literal}]
                                           ;;[ICODE] temp.c:60: 	*(iTemp22 [k41 lr39:41 so:0]{ ia1 a2p0 re0 rm1 nos0 ru0 dp0}{volatile-unsigned-bitfield {6,1} near* fixed}[remat]) := 0x0 {const-unsigned-char literal}
                                           ;	.line	60; "temp.c"	TEMPEN = 0;
0000d2   3f54     bcf     0x54, 0x6        	BCF	_CHARGE1bits,6
                                           ;;[ICODE] temp.c:61: 	iTemp24 [k45 lr42:44 so:0]{ ia0 a2p0 re0 rm1 nos0 ru0 dp0}{volatile-unsigned-bitfield {4,1} near* fixed}[remat] = &[_INTFLAGbits [k42 lr0:0 so:0]{ ia0 a2p0 re0 rm0 nos0 ru0 dp0}{volatile-struct __00000027 fixed} , 0x0 {const-unsigned-char literal}]
                                           ;;[ICODE] temp.c:61: 	*(iTemp24 [k45 lr42:44 so:0]{ ia1 a2p0 re0 rm1 nos0 ru0 dp0}{volatile-unsigned-bitfield {4,1} near* fixed}[remat]) := 0x0 {const-unsigned-char literal}
                                           ;	.line	61; "temp.c"	TMPF = 0;
0000d3   3e0f     bcf     0x0f, 0x4        	BCF	_INTFLAGbits,4
                                           ;;[ICODE] temp.c:62: 	iTemp26 [k49 lr45:47 so:0]{ ia0 a2p0 re0 rm1 nos0 ru0 dp0}{volatile-unsigned-bitfield {7,1} near* fixed}[remat] = &[_RAMPbits [k46 lr0:0 so:0]{ ia0 a2p0 re0 rm0 nos0 ru0 dp0}{volatile-struct __00000070 fixed} , 0x0 {const-unsigned-char literal}]
                                           ;;[ICODE] temp.c:62: 	*(iTemp26 [k49 lr45:47 so:0]{ ia1 a2p0 re0 rm1 nos0 ru0 dp0}{volatile-unsigned-bitfield {7,1} near* fixed}[remat]) := 0x0 {const-unsigned-char literal}
                                           ;	.line	62; "temp.c"	MODSEL = 0;
0000d4   3fd5     bcf     0x55, 0x7        	BCF	_RAMPbits,7
                                           ;;[ICODE] temp.c:64: 	iTemp28 [k52 lr48:50 so:0]{ ia0 a2p0 re0 rm1 nos0 ru0 dp0}{volatile-unsigned-bitfield {7,1} near* fixed}[remat] = &[_PCONbits [k31 lr0:0 so:0]{ ia0 a2p0 re0 rm0 nos0 ru0 dp0}{volatile-struct __00000006 fixed} , 0x0 {const-unsigned-char literal}]
                                           ;;[ICODE] temp.c:64: 	*(iTemp28 [k52 lr48:50 so:0]{ ia1 a2p0 re0 rm1 nos0 ru0 dp0}{volatile-unsigned-bitfield {7,1} near* fixed}[remat]) := 0x0 {const-unsigned-char literal}
                                           ;	.line	64; "temp.c"	WDTEN = 0;
0000d5   3f88     bcf     0x08, 0x7        	BCF	_PCONbits,7
                                           ;;[ICODE] temp.c:65: 	iTemp30 [k56 lr51:53 so:0]{ ia0 a2p0 re0 rm1 nos0 ru0 dp0}{volatile-unsigned-bitfield {0,1} near* fixed}[remat] = &[_INTECONbits [k53 lr0:0 so:0]{ ia0 a2p0 re0 rm0 nos0 ru0 dp0}{volatile-struct __00000024 fixed} , 0x0 {const-unsigned-char literal}]
                                           ;;[ICODE] temp.c:65: 	*(iTemp30 [k56 lr51:53 so:0]{ ia1 a2p0 re0 rm1 nos0 ru0 dp0}{volatile-unsigned-bitfield {0,1} near* fixed}[remat]) := 0x0 {const-unsigned-char literal}
                                           ;	.line	65; "temp.c"	T0IE = 0;
0000d6   3c0e     bcf     0x0e, 0x0        	BCF	_INTECONbits,0
                                           ;;[ICODE] temp.c:67: 	_INTECON [k57 lr0:0 so:0]{ ia1 a2p0 re0 rm0 nos0 ru0 dp0}{volatile-unsigned-char sfr} := 0x0 {const-unsigned-char literal}
                                           ;	.line	67; "temp.c"	INTECON = 0;
0000d7   188e     clrf    0x0e             	CLRF	_INTECON
                                           ;;[ICODE] temp.c:69: 	_PORTB [k58 lr0:0 so:0]{ ia1 a2p0 re0 rm0 nos0 ru0 dp0}{volatile-unsigned-char sfr} := 0x0 {const-unsigned-char literal}
                                           ;	.line	69; "temp.c"	PORTB = 0;  // 0 disenable output, 1 enable output
0000d8   1886     clrf    0x06             	CLRF	_PORTB
                                           ;;[ICODE] temp.c:70: 	_TRISB [k59 lr0:0 so:0]{ ia1 a2p0 re0 rm0 nos0 ru0 dp0}{volatile-unsigned-char sfr} := 0xff {const-unsigned-char literal}
                                           ;	.line	70; "temp.c"	TRISB = 0xff;    //1锛input  0:output
0000d9   04ff     movlw   0xff             	MOVLW	0xff
0000da   19c6     movwf   0x46             	MOVWF	_TRISB
                                           ;;[ICODE] temp.c:73: 	_PDCON [k60 lr0:0 so:0]{ ia1 a2p0 re0 rm0 nos0 ru0 dp0}{volatile-unsigned-char sfr} := 0xff {const-unsigned-char literal}
                                           ;	.line	73; "temp.c"	PDCON = 0xFF;  // 1 disenable down pull ,0 enable down pull
0000db   04ff     movlw   0xff             	MOVLW	0xff
0000dc   198b     movwf   0x0b             	MOVWF	_PDCON
                                           ;;[ICODE] temp.c:74: 	_PDCON1 [k61 lr0:0 so:0]{ ia1 a2p0 re0 rm0 nos0 ru0 dp0}{volatile-unsigned-char sfr} := 0xff {const-unsigned-char literal}
                                           ;	.line	74; "temp.c"	PDCON1 = 0xFF; // 1 disenable down pull ,0 enable down pull
0000dd   04ff     movlw   0xff             	MOVLW	0xff
0000de   19d2     movwf   0x52             	MOVWF	_PDCON1
                                           ;;[ICODE] temp.c:77: 	_PHCON [k62 lr0:0 so:0]{ ia1 a2p0 re0 rm0 nos0 ru0 dp0}{volatile-unsigned-char sfr} := 0xff {const-unsigned-char literal}
                                           ;	.line	77; "temp.c"	PHCON = 0XFF;  // 1 disenable high pull ,0 enable high pull
0000df   04ff     movlw   0xff             	MOVLW	0xff
0000e0   198d     movwf   0x0d             	MOVWF	_PHCON
                                           ;;[ICODE] temp.c:79: 	_PHCON [k62 lr0:0 so:0]{ ia1 a2p0 re0 rm0 nos0 ru0 dp0}{volatile-unsigned-char sfr} = _PHCON [k62 lr0:0 so:0]{ ia0 a2p0 re0 rm0 nos0 ru0 dp0}{volatile-unsigned-char sfr} & 0xfb {const-unsigned-char literal}
                                           ;	.line	79; "temp.c"	PHCON &= DEF_CLR_BIT2;
0000e1   3d0d     bcf     0x0d, 0x2        	BCF	_PHCON,2
                                           ;;[ICODE] temp.c:80: 	_PHCON [k62 lr0:0 so:0]{ ia1 a2p0 re0 rm0 nos0 ru0 dp0}{volatile-unsigned-char sfr} = _PHCON [k62 lr0:0 so:0]{ ia0 a2p0 re0 rm0 nos0 ru0 dp0}{volatile-unsigned-char sfr} & 0xef {const-unsigned-char literal}
                                           ;	.line	80; "temp.c"	PHCON &= DEF_CLR_BIT4;
0000e2   3e0d     bcf     0x0d, 0x4        	BCF	_PHCON,4
                                           ;;[ICODE] temp.c:82: 	_IOCB [k65 lr0:0 so:0]{ ia1 a2p0 re0 rm0 nos0 ru0 dp0}{volatile-unsigned-char sfr} := 0x0 {const-unsigned-char literal}
                                           ;	.line	82; "temp.c"	IOCB = 0X00; // 0 disenable weak up 	,1 enable weak up
0000e3   1889     clrf    0x09             	CLRF	_IOCB
                                           ;;[ICODE] temp.c:83: 	_IOCB [k65 lr0:0 so:0]{ ia1 a2p0 re0 rm0 nos0 ru0 dp0}{volatile-unsigned-char sfr} = _IOCB [k65 lr0:0 so:0]{ ia0 a2p0 re0 rm0 nos0 ru0 dp0}{volatile-unsigned-char sfr} | 0x4 {const-unsigned-char literal}
                                           ;	.line	83; "temp.c"	IOCB |= DEF_SET_BIT2;
0000e4   3909     bsf     0x09, 0x2        	BSF	_IOCB,2
                                           ;;[ICODE] temp.c:84: 	_IOCB [k65 lr0:0 so:0]{ ia1 a2p0 re0 rm0 nos0 ru0 dp0}{volatile-unsigned-char sfr} = _IOCB [k65 lr0:0 so:0]{ ia0 a2p0 re0 rm0 nos0 ru0 dp0}{volatile-unsigned-char sfr} | 0x10 {const-unsigned-char literal}
                                           ;	.line	84; "temp.c"	IOCB |= DEF_SET_BIT4;
0000e5   3a09     bsf     0x09, 0x4        	BSF	_IOCB,4
                                           ;;[ICODE] temp.c:90: inline
0000e6   1106     movf    0x06, 0x0        	movf	PORTB,W
                                           	
                                           ;;[ICODE] temp.c:92: 	iTemp36 [k70 lr70:72 so:0]{ ia0 a2p0 re0 rm1 nos0 ru0 dp0}{volatile-unsigned-bitfield {1,1} near* fixed}[remat] = &[_INTFLAGbits [k42 lr0:0 so:0]{ ia0 a2p0 re0 rm0 nos0 ru0 dp0}{volatile-struct __00000027 fixed} , 0x0 {const-unsigned-char literal}]
                                           ;;[ICODE] temp.c:92: 	*(iTemp36 [k70 lr70:72 so:0]{ ia1 a2p0 re0 rm1 nos0 ru0 dp0}{volatile-unsigned-bitfield {1,1} near* fixed}[remat]) := 0x0 {const-unsigned-char literal}
                                           ;	.line	92; "temp.c"	PBIF = 0;
0000e7   3c8f     bcf     0x0f, 0x1        	BCF	_INTFLAGbits,1
                                           ;;[ICODE] temp.c:93: 	iTemp38 [k73 lr73:75 so:0]{ ia0 a2p0 re0 rm1 nos0 ru0 dp0}{volatile-unsigned-bitfield {1,1} near* fixed}[remat] = &[_INTECONbits [k53 lr0:0 so:0]{ ia0 a2p0 re0 rm0 nos0 ru0 dp0}{volatile-struct __00000024 fixed} , 0x0 {const-unsigned-char literal}]
                                           ;;[ICODE] temp.c:93: 	*(iTemp38 [k73 lr73:75 so:0]{ ia1 a2p0 re0 rm1 nos0 ru0 dp0}{volatile-unsigned-bitfield {1,1} near* fixed}[remat]) := 0x1 {const-unsigned-char literal}
                                           ;	.line	93; "temp.c"	PBIE = 1;// 0	disenable Port level change interrupt , 1 enable Port level change interrupt
0000e8   388e     bsf     0x0e, 0x1        	BSF	_INTECONbits,1
                                           ;;[ICODE] temp.c:94: 	iTemp40 [k76 lr76:78 so:0]{ ia0 a2p0 re0 rm1 nos0 ru0 dp0}{volatile-unsigned-bitfield {7,1} near* fixed}[remat] = &[_INTECONbits [k53 lr0:0 so:0]{ ia0 a2p0 re0 rm0 nos0 ru0 dp0}{volatile-struct __00000024 fixed} , 0x0 {const-unsigned-char literal}]
                                           ;;[ICODE] temp.c:94: 	*(iTemp40 [k76 lr76:78 so:0]{ ia1 a2p0 re0 rm1 nos0 ru0 dp0}{volatile-unsigned-bitfield {7,1} near* fixed}[remat]) := 0x0 {const-unsigned-char literal}
                                           ;	.line	94; "temp.c"	GIE = 0;
0000e9   3f8e     bcf     0x0e, 0x7        	BCF	_INTECONbits,7
                                           ;;[ICODE] temp.c:102: inline
0000ea   0003     sleep                    	SLEEP
0000eb   0000     nop                      	nop
0000ec   0000     nop                      	nop
0000ed   0000     nop                      	nop
0000ee   0000     nop                      	nop
                                           	
                                           ;;[ICODE] temp.c:106: inline
0000ef   1106     movf    0x06, 0x0        	movf	PORTB,W
                                           	
                                           ;;[ICODE] temp.c:108: 	iTemp42 [k79 lr81:83 so:0]{ ia0 a2p0 re0 rm1 nos0 ru0 dp0}{volatile-unsigned-bitfield {1,1} near* fixed}[remat] = &[_INTECONbits [k53 lr0:0 so:0]{ ia0 a2p0 re0 rm0 nos0 ru0 dp0}{volatile-struct __00000024 fixed} , 0x0 {const-unsigned-char literal}]
                                           ;;[ICODE] temp.c:108: 	*(iTemp42 [k79 lr81:83 so:0]{ ia1 a2p0 re0 rm1 nos0 ru0 dp0}{volatile-unsigned-bitfield {1,1} near* fixed}[remat]) := 0x0 {const-unsigned-char literal}
                                           ;	.line	108; "temp.c"	PBIE = 0;
0000f0   3c8e     bcf     0x0e, 0x1        	BCF	_INTECONbits,1
                                           ;;[ICODE] temp.c:109: 	_IOCB [k65 lr0:0 so:0]{ ia1 a2p0 re0 rm0 nos0 ru0 dp0}{volatile-unsigned-char sfr} := 0x0 {const-unsigned-char literal}
                                           ;	.line	109; "temp.c"	IOCB = 0;
0000f1   1889     clrf    0x09             	CLRF	_IOCB
                                           ;;[ICODE] temp.c:110: 	iTemp44 [k82 lr85:87 so:0]{ ia0 a2p0 re0 rm1 nos0 ru0 dp0}{volatile-unsigned-bitfield {4,1} near* fixed}[remat] = &[_CMPCRbits [k27 lr0:0 so:0]{ ia0 a2p0 re0 rm0 nos0 ru0 dp0}{volatile-struct __00000056 fixed} , 0x0 {const-unsigned-char literal}]
                                           ;;[ICODE] temp.c:110: 	*(iTemp44 [k82 lr85:87 so:0]{ ia1 a2p0 re0 rm1 nos0 ru0 dp0}{volatile-unsigned-bitfield {4,1} near* fixed}[remat]) := 0x1 {const-unsigned-char literal}
                                           ;	.line	110; "temp.c"	LVDM = 1;
0000f2   3a51     bsf     0x51, 0x4        	BSF	_CMPCRbits,4
                                           ;;[ICODE] temp.c:111: inline
0000f3   0004     clrwdt                   	clrwdt
                                           ;;[ICODE] temp.c:112: 	iTemp46 [k85 lr89:91 so:0]{ ia0 a2p0 re0 rm1 nos0 ru0 dp0}{volatile-unsigned-bitfield {7,1} near* fixed}[remat] = &[_PCONbits [k31 lr0:0 so:0]{ ia0 a2p0 re0 rm0 nos0 ru0 dp0}{volatile-struct __00000006 fixed} , 0x0 {const-unsigned-char literal}]
                                           ;;[ICODE] temp.c:112: 	*(iTemp46 [k85 lr89:91 so:0]{ ia1 a2p0 re0 rm1 nos0 ru0 dp0}{volatile-unsigned-bitfield {7,1} near* fixed}[remat]) := 0x1 {const-unsigned-char literal}
                                           ;	.line	112; "temp.c"	WDTEN = 1;
0000f4   3b88     bsf     0x08, 0x7        	BSF	_PCONbits,7
                                           ;;[ICODE] temp.c:113: 	iTemp48 [k88 lr92:94 so:0]{ ia0 a2p0 re0 rm1 nos0 ru0 dp0}{volatile-unsigned-bitfield {7,1} near* fixed}[remat] = &[_INTECONbits [k53 lr0:0 so:0]{ ia0 a2p0 re0 rm0 nos0 ru0 dp0}{volatile-struct __00000024 fixed} , 0x0 {const-unsigned-char literal}]
                                           ;;[ICODE] temp.c:113: 	*(iTemp48 [k88 lr92:94 so:0]{ ia1 a2p0 re0 rm1 nos0 ru0 dp0}{volatile-unsigned-bitfield {7,1} near* fixed}[remat]) := 0x1 {const-unsigned-char literal}
                                           ;	.line	113; "temp.c"	GIE = 1;
0000f5   3b8e     bsf     0x0e, 0x7        	BSF	_INTECONbits,7
                                           ;;[ICODE] temp.c:114: 	iTemp50 [k91 lr95:97 so:0]{ ia0 a2p0 re0 rm1 nos0 ru0 dp0}{volatile-unsigned-bitfield {0,1} near* fixed}[remat] = &[_INTECONbits [k53 lr0:0 so:0]{ ia0 a2p0 re0 rm0 nos0 ru0 dp0}{volatile-struct __00000024 fixed} , 0x0 {const-unsigned-char literal}]
                                           ;;[ICODE] temp.c:114: 	*(iTemp50 [k91 lr95:97 so:0]{ ia1 a2p0 re0 rm1 nos0 ru0 dp0}{volatile-unsigned-bitfield {0,1} near* fixed}[remat]) := 0x1 {const-unsigned-char literal}
                                           ;	.line	114; "temp.c"	T0IE = 1;
0000f6   380e     bsf     0x0e, 0x0        	BSF	_INTECONbits,0
                                           ;;[ICODE] temp.c:116: 	iTemp51 [k93 lr98:98 so:0]{ ia0 a2p0 re0 rm0 nos0 ru0 dp0}{void fixed} = call _InitPort [k92 lr0:0 so:0]{ ia0 a2p0 re0 rm0 nos0 ru0 dp0}{void function ( ) fixed}
                                           ;	.line	116; "temp.c"	InitPort();
0000f7   2997     call    0x0197           	CALL	_InitPort
                                           ;;[ICODE] temp.c:136: 	iTemp53 [k96 lr99:101 so:0]{ ia0 a2p0 re0 rm1 nos0 ru0 dp0}{volatile-unsigned-bitfield {7,1} near* fixed}[remat] = &[_RAMPbits [k46 lr0:0 so:0]{ ia0 a2p0 re0 rm0 nos0 ru0 dp0}{volatile-struct __00000070 fixed} , 0x0 {const-unsigned-char literal}]
                                           ;;[ICODE] temp.c:136: 	*(iTemp53 [k96 lr99:101 so:0]{ ia1 a2p0 re0 rm1 nos0 ru0 dp0}{volatile-unsigned-bitfield {7,1} near* fixed}[remat]) := 0x1 {const-unsigned-char literal}
                                           ;	.line	136; "temp.c"	MODSEL = 1;
0000f8   3bd5     bsf     0x55, 0x7        	BSF	_RAMPbits,7
                                           ;;[ICODE] temp.c:137: 	_SleepCount [k15 lr0:0 so:0]{ ia1 a2p0 re0 rm0 nos0 ru0 dp0}{unsigned-int fixed} := 0x0 {unsigned-int literal}
                                           ;	.line	137; "temp.c"	SleepCount = 0;
0000f9   18ae     clrf    0x2e             	CLRF	_SleepCount
0000fa   18af     clrf    0x2f             	CLRF	(_SleepCount + 1)
                                           ;;[ICODE] temp.c:137:  _return($6) :
                                           ;;[ICODE] temp.c:137: 	eproc _CheckSleep [k1 lr0:0 so:0]{ ia0 a2p0 re0 rm0 nos0 ru0 dp0}{void function ( ) fixed}
                                           _00119_DS_:
0000fb   0002     return                   	RETURN	
                                           ; exit point of _CheckSleep

                                           ;***
                                           ;  pBlock Stats: dbName = C
                                           ;***
                                           ;has an exit
                                           ;functions called:
                                           ;   _DelayMs
                                           ;   _DelayMs
                                           ;; Starting pCode block
                                           ;;[ICODE] temp.c:7:  _entry($7) :
                                           ;;[ICODE] temp.c:7: 	proc _CheckTemp [k1 lr0:0 so:0]{ ia0 a2p0 re0 rm0 nos0 ru0 dp0}{void function ( ) fixed}
                                           S_temp__CheckTemp	code
                                           _CheckTemp:
                                           ; 2 exit points
                                           ;;[ICODE] temp.c:9: 	iTemp1 [k5 lr3:5 so:0]{ ia0 a2p0 re0 rm1 nos0 ru0 dp0}{volatile-unsigned-bitfield {6,1} near* fixed}[remat] = &[_CHARGE1bits [k2 lr0:0 so:0]{ ia0 a2p0 re0 rm0 nos0 ru0 dp0}{volatile-struct __00000065 fixed} , 0x0 {const-unsigned-char literal}]
                                           ;;[ICODE] temp.c:9: 	*(iTemp1 [k5 lr3:5 so:0]{ ia1 a2p0 re0 rm1 nos0 ru0 dp0}{volatile-unsigned-bitfield {6,1} near* fixed}[remat]) := 0x1 {const-unsigned-char literal}
                                           ;	.line	9; "temp.c"	TEMPEN = 1;
0001f9   3b54     bsf     0x54, 0x6        	BSF	_CHARGE1bits,6
                                           ;;[ICODE] temp.c:10: 	iTemp2 [k7 lr6:6 so:0]{ ia0 a2p0 re0 rm0 nos0 ru0 dp0}{void fixed} = call _DelayMs [k6 lr0:0 so:0]{ ia0 a2p0 re0 rm0 nos0 ru0 dp0}{void function ( ) fixed}
                                           ;	.line	10; "temp.c"	DelayMs();
0001fa   2a71     call    0x0271           	CALL	_DelayMs
                                           ;;[ICODE] temp.c:11: 	iTemp4 [k11 lr7:9 so:0]{ ia0 a2p0 re0 rm1 nos0 ru0 dp0}{volatile-unsigned-bitfield {4,1} near* fixed}[remat] = &[_INTFLAGbits [k8 lr0:0 so:0]{ ia0 a2p0 re0 rm0 nos0 ru0 dp0}{volatile-struct __00000027 fixed} , 0x0 {const-unsigned-char literal}]
                                           ;;[ICODE] temp.c:11: 	iTemp5 [k12 lr9:10 so:0]{ ia0 a2p0 re0 rm0 nos0 ru0 dp0}{volatile-unsigned-bitfield {4,1} fixed}[r0x1047 ] = @[iTemp4 [k11 lr7:9 so:0]{ ia1 a2p0 re0 rm1 nos0 ru0 dp0}{volatile-unsigned-bitfield {4,1} near* fixed}[remat] + 0x0 {const-unsigned-char literal}]
                                           ;	.line	11; "temp.c"	if(TMPF == 0)
0001fb   360f     btfsc   0x0f, 0x4        	BTFSC	_INTFLAGbits,4
0001fc   2200     goto    0x0200           	GOTO	_00106_DS_
                                           ;;[ICODE] temp.c:11: 	if iTemp5 [k12 lr9:10 so:0]{ ia0 a2p0 re0 rm0 nos0 ru0 dp0}{volatile-unsigned-bitfield {4,1} fixed}[r0x1047 ] != 0 goto __iffalse_0($2)
                                           ;;[ICODE] temp.c:13: 	_TempCount [k13 lr0:0 so:0]{ ia1 a2p0 re0 rm0 nos0 ru0 dp0}{unsigned-char fixed} := 0x0 {const-unsigned-char literal}
                                           ;	.line	13; "temp.c"	TempCount = 0;
0001fd   18b6     clrf    0x36             	CLRF	_TempCount
                                           ;;[ICODE] temp.c:14: 	_TempFlag [k15 lr0:0 so:0]{ ia1 a2p0 re0 rm0 nos0 ru0 dp0}{unsigned-char fixed} := 0x0 {const-unsigned-char literal}
                                           ;	.line	14; "temp.c"	TempFlag = 0;
0001fe   18b7     clrf    0x37             	CLRF	_TempFlag
                                           ;;[ICODE] temp.c:14: 	 goto __ifend_0($3)
0001ff   2201     goto    0x0201           	GOTO	_00107_DS_
                                           ;;[ICODE] temp.c:14:  __iffalse_0($2) :
                                           ;;[ICODE] temp.c:18: 	_TempCount [k13 lr0:0 so:0]{ ia1 a2p0 re0 rm0 nos0 ru0 dp0}{unsigned-char fixed} = _TempCount [k13 lr0:0 so:0]{ ia1 a2p0 re0 rm0 nos0 ru0 dp0}{unsigned-char fixed} + 0x1 {const-unsigned-char literal}
                                           _00106_DS_:
                                           ;	.line	18; "temp.c"	TempCount++;
000200   13b6     incf    0x36, 0x1        	INCF	_TempCount,F
                                           ;;[ICODE] temp.c:18:  __ifend_0($3) :
                                           ;;[ICODE] temp.c:21: 	iTemp11 [k20 lr18:19 so:0]{ ia0 a2p0 re0 rm0 nos0 ru0 dp0}{char fixed} = 0x5 {const-unsigned-char literal} == _TempCount [k13 lr0:0 so:0]{ ia0 a2p0 re0 rm0 nos0 ru0 dp0}{unsigned-char fixed}
                                           _00107_DS_:
                                           ;	.line	21; "temp.c"	if(5 == TempCount)
000201   1136     movf    0x36, 0x0        	MOVF	_TempCount,W
000202   0d05     xorlw   0x05             	XORLW	0x05
000203   3103     btfss   0x03, 0x2        	BTFSS	STATUS,2
000204   2207     goto    0x0207           	GOTO	_00109_DS_
                                           ;;[ICODE] temp.c:21: 	if iTemp11 [k20 lr18:19 so:0]{ ia0 a2p0 re0 rm0 nos0 ru0 dp0}{char fixed} == 0 goto __iffalse_1($5)
                                           ;;[ICODE] temp.c:23: 	_TempFlag [k15 lr0:0 so:0]{ ia1 a2p0 re0 rm0 nos0 ru0 dp0}{unsigned-char fixed} := 0x1 {const-unsigned-char literal}
                                           ;	.line	23; "temp.c"	TempFlag = 1;
000205   0401     movlw   0x01             	MOVLW	0x01
000206   19b7     movwf   0x37             	MOVWF	_TempFlag
                                           ;;[ICODE] temp.c:23:  __iffalse_1($5) :
                                           ;;[ICODE] temp.c:26: 	iTemp14 [k24 lr22:24 so:0]{ ia0 a2p0 re0 rm1 nos0 ru0 dp0}{volatile-unsigned-bitfield {6,1} near* fixed}[remat] = &[_CHARGE1bits [k2 lr0:0 so:0]{ ia0 a2p0 re0 rm0 nos0 ru0 dp0}{volatile-struct __00000065 fixed} , 0x0 {const-unsigned-char literal}]
                                           ;;[ICODE] temp.c:26: 	*(iTemp14 [k24 lr22:24 so:0]{ ia1 a2p0 re0 rm1 nos0 ru0 dp0}{volatile-unsigned-bitfield {6,1} near* fixed}[remat]) := 0x0 {const-unsigned-char literal}
                                           _00109_DS_:
                                           ;	.line	26; "temp.c"	TEMPEN = 0;
000207   3f54     bcf     0x54, 0x6        	BCF	_CHARGE1bits,6
                                           ;;[ICODE] temp.c:27: 	iTemp16 [k27 lr25:27 so:0]{ ia0 a2p0 re0 rm1 nos0 ru0 dp0}{volatile-unsigned-bitfield {4,1} near* fixed}[remat] = &[_INTFLAGbits [k8 lr0:0 so:0]{ ia0 a2p0 re0 rm0 nos0 ru0 dp0}{volatile-struct __00000027 fixed} , 0x0 {const-unsigned-char literal}]
                                           ;;[ICODE] temp.c:27: 	*(iTemp16 [k27 lr25:27 so:0]{ ia1 a2p0 re0 rm1 nos0 ru0 dp0}{volatile-unsigned-bitfield {4,1} near* fixed}[remat]) := 0x0 {const-unsigned-char literal}
                                           ;	.line	27; "temp.c"	TMPF = 0;
000208   3e0f     bcf     0x0f, 0x4        	BCF	_INTFLAGbits,4
                                           ;;[ICODE] temp.c:27:  _return($6) :
                                           ;;[ICODE] temp.c:27: 	eproc _CheckTemp [k1 lr0:0 so:0]{ ia0 a2p0 re0 rm0 nos0 ru0 dp0}{void function ( ) fixed}
000209   0002     return                   	RETURN	
                                           ; exit point of _CheckTemp


                                           ;	code size estimation:
                                           ;	   90+    0 =    90 instructions (  180 byte)

                                           	end
                                           ;--------------------------------------------------------
                                           ; File Created by SDCC : free open source ANSI-C Compiler
                                           ; Version 3.6.0 #9615 (CYGWIN)
                                           ;--------------------------------------------------------
                                           ; PIC port for the 14-bit core
                                           ;--------------------------------------------------------
                                           ;	.file	"variable.c"
                                           	list	p=18p018a0
                                           	radix dec
                                           	include "p18p018a0.inc"
                                                  LIST

                                           ;==========================================================================
                                           ; Build date : Jun 02 2017
                                           ;  HCIDE HC18P018A0 processor include
                                           ; 
                                           ;  (c) Copyright 2012-2021 Holychip Technology, All rights reserved
                                           ;==========================================================================

                                                   NOLIST
                                           ;--------------------------------------------------------
                                           ; external declarations
                                           ;--------------------------------------------------------
                                           	extern	_STATUSbits
                                           	extern	_PORTBbits
                                           	extern	_PCONbits
                                           	extern	_IOCBbits
                                           	extern	_PDCONbits
                                           	extern	_ODCONbits
                                           	extern	_PHCONbits
                                           	extern	_INTECONbits
                                           	extern	_INTFLAGbits
                                           	extern	_OPTIONbits
                                           	extern	_TRISBbits
                                           	extern	_PWMCONbits
                                           	extern	_T0CRbits
                                           	extern	_T1CONbits
                                           	extern	_OSCCONbits
                                           	extern	_CMPCRbits
                                           	extern	_PDCON1bits
                                           	extern	_CHARGE0bits
                                           	extern	_CHARGE1bits
                                           	extern	_RAMPbits
                                           	extern	_AUXRbits
                                           	extern	_INDF
                                           	extern	_T0
                                           	extern	_PCL
                                           	extern	_STATUS
                                           	extern	_FSR
                                           	extern	_PORTB
                                           	extern	_GPR
                                           	extern	_PCON
                                           	extern	_IOCB
                                           	extern	_PCLATH
                                           	extern	_PDCON
                                           	extern	_ODCON
                                           	extern	_PHCON
                                           	extern	_INTECON
                                           	extern	_INTFLAG
                                           	extern	_OPTION
                                           	extern	_TRISB
                                           	extern	_PWMCON
                                           	extern	_PWM1P
                                           	extern	_PWM2P
                                           	extern	_T0CR
                                           	extern	_T1CON
                                           	extern	_T1
                                           	extern	_T1LOAD
                                           	extern	_PWM0P
                                           	extern	_OSCCON
                                           	extern	_CMPCR
                                           	extern	_PDCON1
                                           	extern	_CHARGE0
                                           	extern	_CHARGE1
                                           	extern	_RAMP
                                           	extern	_AUXR
                                           	extern	_HIRCTRM

                                           	extern PSAVE
                                           	extern SSAVE
                                           	extern WSAVE
                                           	extern STK12
                                           	extern STK11
                                           	extern STK10
                                           	extern STK09
                                           	extern STK08
                                           	extern STK07
                                           	extern STK06
                                           	extern STK05
                                           	extern STK04
                                           	extern STK03
                                           	extern STK02
                                           	extern STK01
                                           	extern STK00
                                           ;--------------------------------------------------------
                                           ; global declarations
                                           ;--------------------------------------------------------
                                           	global	_BITS_DATA0
                                           	global	_BITS_DATA1
                                           	global	_g_ucTimer10msCount
                                           	global	_g_ucTimerWorkCount
                                           	global	_TempCount
                                           	global	_TempFlag
                                           	global	_SleepCount
                                           	global	_SleepFlag
                                           	global	_MaxLight
                                           	global	_g_cucTIMER_COUNT_STATE

                                           ;--------------------------------------------------------
                                           ; global definitions
                                           ;--------------------------------------------------------
                                           UD_variable_0	udata
                                           _BITS_DATA0	res	1

                                           UD_variable_1	udata
                                           _BITS_DATA1	res	2

                                           ;--------------------------------------------------------
                                           ; absolute symbol definitions
                                           ;--------------------------------------------------------
                                           ;--------------------------------------------------------
                                           ; compiler-defined variables
                                           ;--------------------------------------------------------
                                           ;--------------------------------------------------------
                                           ; initialized data
                                           ;--------------------------------------------------------

                                           ID_variable_0	idata
                                           _g_ucTimer10msCount
                                           	db	0x00


                                           ID_variable_1	idata
                                           _g_ucTimerWorkCount
                                           	db	0x00


                                           ID_variable_2	idata
                                           _TempCount
                                           	db	0x00


                                           ID_variable_3	idata
                                           _TempFlag
                                           	db	0x00


                                           ID_variable_4	idata
                                           _SleepCount
                                           	db	0x00, 0x00


                                           ID_variable_5	idata
                                           _SleepFlag
                                           	db	0x00


                                           ID_variable_6	idata
                                           _MaxLight
                                           	db	0x00


                                           ID_variable_7	code
                                           _g_cucTIMER_COUNT_STATE
000267   0101     retlw   0x01             	retlw 0x01
000268   0101     retlw   0x01             	retlw 0x01
000269   0101     retlw   0x01             	retlw 0x01
00026a   0101     retlw   0x01             	retlw 0x01
00026b   0104     retlw   0x04             	retlw 0x04
00026c   0104     retlw   0x04             	retlw 0x04
00026d   0101     retlw   0x01             	retlw 0x01
00026e   0104     retlw   0x04             	retlw 0x04
00026f   0101     retlw   0x01             	retlw 0x01
000270   0101     retlw   0x01             	retlw 0x01

                                           ;--------------------------------------------------------
                                           ; overlayable items in internal ram 
                                           ;--------------------------------------------------------
                                           ;	udata_ovr
                                           ;--------------------------------------------------------
                                           ; code
                                           ;--------------------------------------------------------
                                           code_variable	code

                                           ;	code size estimation:
                                           ;	    0+    0 =     0 instructions (    0 byte)

                                           	end
                                           ;--------------------------------------------------------
                                           ; File Created by SDCC : free open source ANSI-C Compiler
                                           ; Version 3.6.0 #9615 (CYGWIN)
                                           ;--------------------------------------------------------
                                           ; PIC port for the 14-bit core
                                           ;--------------------------------------------------------
                                           ;	.file	"work.c"
                                           	list	p=18p018a0
                                           	radix dec
                                           	include "p18p018a0.inc"
                                                  LIST

                                           ;==========================================================================
                                           ; Build date : Jun 02 2017
                                           ;  HCIDE HC18P018A0 processor include
                                           ; 
                                           ;  (c) Copyright 2012-2021 Holychip Technology, All rights reserved
                                           ;==========================================================================

                                                   NOLIST
                                           ;--------------------------------------------------------
                                           ; external declarations
                                           ;--------------------------------------------------------
                                           	extern	_ControlLevelLow
                                           	extern	_ControlLevelHigh
                                           	extern	_ControlLevel
                                           	extern	_ControlFlash
                                           	extern	_ControlSos
                                           	extern	_STATUSbits
                                           	extern	_PORTBbits
                                           	extern	_PCONbits
                                           	extern	_IOCBbits
                                           	extern	_PDCONbits
                                           	extern	_ODCONbits
                                           	extern	_PHCONbits
                                           	extern	_INTECONbits
                                           	extern	_INTFLAGbits
                                           	extern	_OPTIONbits
                                           	extern	_TRISBbits
                                           	extern	_PWMCONbits
                                           	extern	_T0CRbits
                                           	extern	_T1CONbits
                                           	extern	_OSCCONbits
                                           	extern	_CMPCRbits
                                           	extern	_PDCON1bits
                                           	extern	_CHARGE0bits
                                           	extern	_CHARGE1bits
                                           	extern	_RAMPbits
                                           	extern	_AUXRbits
                                           	extern	_BITS_DATA0
                                           	extern	_BITS_DATA1
                                           	extern	_g_ucTimer10msCount
                                           	extern	_g_ucTimerWorkCount
                                           	extern	_TempCount
                                           	extern	_TempFlag
                                           	extern	_SleepCount
                                           	extern	_SleepFlag
                                           	extern	_MaxLight
                                           	extern	_INDF
                                           	extern	_T0
                                           	extern	_PCL
                                           	extern	_STATUS
                                           	extern	_FSR
                                           	extern	_PORTB
                                           	extern	_GPR
                                           	extern	_PCON
                                           	extern	_IOCB
                                           	extern	_PCLATH
                                           	extern	_PDCON
                                           	extern	_ODCON
                                           	extern	_PHCON
                                           	extern	_INTECON
                                           	extern	_INTFLAG
                                           	extern	_OPTION
                                           	extern	_TRISB
                                           	extern	_PWMCON
                                           	extern	_PWM1P
                                           	extern	_PWM2P
                                           	extern	_T0CR
                                           	extern	_T1CON
                                           	extern	_T1
                                           	extern	_T1LOAD
                                           	extern	_PWM0P
                                           	extern	_OSCCON
                                           	extern	_CMPCR
                                           	extern	_PDCON1
                                           	extern	_CHARGE0
                                           	extern	_CHARGE1
                                           	extern	_RAMP
                                           	extern	_AUXR
                                           	extern	_HIRCTRM

                                           	extern PSAVE
                                           	extern SSAVE
                                           	extern WSAVE
                                           	extern STK12
                                           	extern STK11
                                           	extern STK10
                                           	extern STK09
                                           	extern STK08
                                           	extern STK07
                                           	extern STK06
                                           	extern STK05
                                           	extern STK04
                                           	extern STK03
                                           	extern STK02
                                           	extern STK01
                                           	extern STK00
                                           ;--------------------------------------------------------
                                           ; global declarations
                                           ;--------------------------------------------------------
                                           	global	_Work

                                           ;--------------------------------------------------------
                                           ; global definitions
                                           ;--------------------------------------------------------
                                           ;--------------------------------------------------------
                                           ; absolute symbol definitions
                                           ;--------------------------------------------------------
                                           ;--------------------------------------------------------
                                           ; compiler-defined variables
                                           ;--------------------------------------------------------
                                           ;--------------------------------------------------------
                                           ; initialized data
                                           ;--------------------------------------------------------
                                           ;--------------------------------------------------------
                                           ; overlayable items in internal ram 
                                           ;--------------------------------------------------------
                                           ;	udata_ovr
                                           ;--------------------------------------------------------
                                           ; code
                                           ;--------------------------------------------------------
                                           code_work	code
                                           ;***
                                           ;  pBlock Stats: dbName = C
                                           ;***
                                           ;has an exit
                                           ;; Starting pCode block
                                           ;;[ICODE] work.c:5:  _entry($2) :
                                           ;;[ICODE] work.c:5: 	proc _Work [k1 lr0:0 so:0]{ ia0 a2p0 re0 rm0 nos0 ru0 dp0}{void function ( ) fixed}
                                           S_work__Work	code
                                           _Work:
                                           ; 2 exit points
                                           ;;[ICODE] work.c:21:  _return($1) :
                                           ;;[ICODE] work.c:21: 	eproc _Work [k1 lr0:0 so:0]{ ia0 a2p0 re0 rm0 nos0 ru0 dp0}{void function ( ) fixed}
                                           ;	.line	21; "work.c"	}
0002b5   0002     return                   	RETURN	
                                           ; exit point of _Work


                                           ;	code size estimation:
                                           ;	    1+    0 =     1 instructions (    2 byte)

                                           	end
                                                  LIST

                                           ;==========================================================================
                                           ; Build date : Jun 02 2017
                                           ;  HCIDE HC18P018A0 processor include
                                           ; 
                                           ;  (c) Copyright 2012-2021 Holychip Technology, All rights reserved
                                           ;==========================================================================

                                                   NOLIST
