gplink-1.5.0 #1284 (Oct 14 2022)
Copyright (c) 1998-2016 gputils project
Listing File Generated: 04/30/25  10:45:53


Address  Value    Disassembly              Source
-------  -----    -----------              ------
                                           ;--------------------------------------------------------
                                           ; File Created by SDCC : free open source ANSI-C Compiler
                                           ; Version 3.6.0 #9615 (CYGWIN)
                                           ;--------------------------------------------------------
                                           ; PIC port for the 14-bit core
                                           ;--------------------------------------------------------
                                           ;	.file	"delay.c"
                                           	list	p=18p018a0
                                           	radix dec
                                           	include "p18p018a0.inc"
                                                  LIST

                                           ;==========================================================================
                                           ; Build date : Jun 02 2017
                                           ;  HCIDE HC18P018A0 processor include
                                           ; 
                                           ;  (c) Copyright 2012-2021 Holychip Technology, All rights reserved
                                           ;==========================================================================

                                                   NOLIST
                                           ;--------------------------------------------------------
                                           ; external declarations
                                           ;--------------------------------------------------------
                                           	extern	_STATUSbits
                                           	extern	_PORTBbits
                                           	extern	_PCONbits
                                           	extern	_IOCBbits
                                           	extern	_PDCONbits
                                           	extern	_ODCONbits
                                           	extern	_PHCONbits
                                           	extern	_INTECONbits
                                           	extern	_INTFLAGbits
                                           	extern	_OPTIONbits
                                           	extern	_TRISBbits
                                           	extern	_PWMCONbits
                                           	extern	_T0CRbits
                                           	extern	_T1CONbits
                                           	extern	_OSCCONbits
                                           	extern	_CMPCRbits
                                           	extern	_PDCON1bits
                                           	extern	_CHARGE0bits
                                           	extern	_CHARGE1bits
                                           	extern	_RAMPbits
                                           	extern	_AUXRbits
                                           	extern	_INDF
                                           	extern	_T0
                                           	extern	_PCL
                                           	extern	_STATUS
                                           	extern	_FSR
                                           	extern	_PORTB
                                           	extern	_GPR
                                           	extern	_PCON
                                           	extern	_IOCB
                                           	extern	_PCLATH
                                           	extern	_PDCON
                                           	extern	_ODCON
                                           	extern	_PHCON
                                           	extern	_INTECON
                                           	extern	_INTFLAG
                                           	extern	_OPTION
                                           	extern	_TRISB
                                           	extern	_PWMCON
                                           	extern	_PWM1P
                                           	extern	_PWM2P
                                           	extern	_T0CR
                                           	extern	_T1CON
                                           	extern	_T1
                                           	extern	_T1LOAD
                                           	extern	_PWM0P
                                           	extern	_OSCCON
                                           	extern	_CMPCR
                                           	extern	_PDCON1
                                           	extern	_CHARGE0
                                           	extern	_CHARGE1
                                           	extern	_RAMP
                                           	extern	_AUXR
                                           	extern	_HIRCTRM

                                           	extern PSAVE
                                           	extern SSAVE
                                           	extern WSAVE
                                           	extern STK12
                                           	extern STK11
                                           	extern STK10
                                           	extern STK09
                                           	extern STK08
                                           	extern STK07
                                           	extern STK06
                                           	extern STK05
                                           	extern STK04
                                           	extern STK03
                                           	extern STK02
                                           	extern STK01
                                           	extern STK00
                                           ;--------------------------------------------------------
                                           ; global declarations
                                           ;--------------------------------------------------------
                                           	global	_DelayMs

                                           ;--------------------------------------------------------
                                           ; global definitions
                                           ;--------------------------------------------------------
                                           ;--------------------------------------------------------
                                           ; absolute symbol definitions
                                           ;--------------------------------------------------------
                                           ;--------------------------------------------------------
                                           ; compiler-defined variables
                                           ;--------------------------------------------------------
                                           UDL_delay_0	udata
                                           r0x1000	res	1
                                           r0x1001	res	1
                                           ;--------------------------------------------------------
                                           ; initialized data
                                           ;--------------------------------------------------------
                                           ;--------------------------------------------------------
                                           ; overlayable items in internal ram 
                                           ;--------------------------------------------------------
                                           ;	udata_ovr
                                           ;--------------------------------------------------------
                                           ; code
                                           ;--------------------------------------------------------
                                           code_delay	code
                                           ;***
                                           ;  pBlock Stats: dbName = C
                                           ;***
                                           ;has an exit
                                           ;2 compiler assigned registers:
                                           ;   r0x1000
                                           ;   r0x1001
                                           ;; Starting pCode block
                                           ;;[ICODE] delay.c:8:  _entry($5) :
                                           ;;[ICODE] delay.c:8: 	proc _DelayMs [k1 lr0:0 so:0]{ ia0 a2p0 re0 rm0 nos0 ru0 dp0}{void function ( ) fixed}
                                           S_delay__DelayMs	code
                                           _DelayMs:
                                           ; 2 exit points
                                           ;;[ICODE] delay.c:11: 	iTemp2 [k5 lr3:8 so:0]{ ia0 a2p0 re0 rm0 nos0 ru0 dp0}{unsigned-char fixed}{ sir@ _DelayMs_byTimer_1_1}[r0x1045 ] := 0xfa {const-unsigned-char literal}
                                           ;	.line	11; "delay.c"	while(byTimer--)   //1ms
0002cd   04fa     movlw   0xfa             	MOVLW	0xfa
0002ce   19ea     movwf   0x6a             	MOVWF	r0x1000
                                           ;;[ICODE] delay.c:11:  _whilecontinue_0($1) :
                                           ;;[ICODE] delay.c:11: 	iTemp1 [k4 lr6:8 so:0]{ ia0 a2p0 re0 rm0 nos1 ru0 dp0}{unsigned-char fixed}[r0x1046 ] := iTemp2 [k5 lr3:8 so:0]{ ia0 a2p0 re0 rm0 nos0 ru0 dp0}{unsigned-char fixed}{ sir@ _DelayMs_byTimer_1_1}[r0x1045 ]
                                           _00105_DS_:
0002cf   116a     movf    0x6a, 0x0        	MOVF	r0x1000,W
0002d0   19eb     movwf   0x6b             	MOVWF	r0x1001
                                           ;;[ICODE] delay.c:11: 	iTemp2 [k5 lr3:8 so:0]{ ia0 a2p0 re0 rm0 nos0 ru0 dp0}{unsigned-char fixed}{ sir@ _DelayMs_byTimer_1_1}[r0x1045 ] = iTemp2 [k5 lr3:8 so:0]{ ia0 a2p0 re0 rm0 nos0 ru0 dp0}{unsigned-char fixed}{ sir@ _DelayMs_byTimer_1_1}[r0x1045 ] - 0x1 {const-unsigned-char literal}
0002d1   1aea     decf    0x6a, 0x1        	DECF	r0x1000,F
                                           ;;[ICODE] delay.c:11: 	if iTemp1 [k4 lr6:8 so:0]{ ia0 a2p0 re0 rm0 nos1 ru0 dp0}{unsigned-char fixed}[r0x1046 ] != 0 goto _whilecontinue_0($1)
0002d2   116b     movf    0x6b, 0x0        	MOVF	r0x1001,W
0002d3   3103     btfss   0x03, 0x2        	BTFSS	STATUS,2
0002d4   22cf     goto    0x02cf           	GOTO	_00105_DS_
                                           ;;[ICODE] delay.c:11:  _return($4) :
                                           ;;[ICODE] delay.c:11: 	eproc _DelayMs [k1 lr0:0 so:0]{ ia0 a2p0 re0 rm0 nos0 ru0 dp0}{void function ( ) fixed}
0002d5   0002     return                   	RETURN	
                                           ; exit point of _DelayMs


                                           ;	code size estimation:
                                           ;	    9+    0 =     9 instructions (   18 byte)

                                           	end
                                           ;--------------------------------------------------------
                                           ; File Created by SDCC : free open source ANSI-C Compiler
                                           ; Version 3.6.0 #9615 (CYGWIN)
                                           ;--------------------------------------------------------
                                           ; PIC port for the 14-bit core
                                           ;--------------------------------------------------------
                                           ;	.file	"function.c"
                                           	list	p=18p018a0
                                           	radix dec
                                           	include "p18p018a0.inc"
                                                  LIST

                                           ;==========================================================================
                                           ; Build date : Jun 02 2017
                                           ;  HCIDE HC18P018A0 processor include
                                           ; 
                                           ;  (c) Copyright 2012-2021 Holychip Technology, All rights reserved
                                           ;==========================================================================

                                                   NOLIST
                                           ;--------------------------------------------------------
                                           ; external declarations
                                           ;--------------------------------------------------------
                                           	extern	_ScanKey
                                           	extern	_STATUSbits
                                           	extern	_PORTBbits
                                           	extern	_PCONbits
                                           	extern	_IOCBbits
                                           	extern	_PDCONbits
                                           	extern	_ODCONbits
                                           	extern	_PHCONbits
                                           	extern	_INTECONbits
                                           	extern	_INTFLAGbits
                                           	extern	_OPTIONbits
                                           	extern	_TRISBbits
                                           	extern	_PWMCONbits
                                           	extern	_T0CRbits
                                           	extern	_T1CONbits
                                           	extern	_OSCCONbits
                                           	extern	_CMPCRbits
                                           	extern	_PDCON1bits
                                           	extern	_CHARGE0bits
                                           	extern	_CHARGE1bits
                                           	extern	_RAMPbits
                                           	extern	_AUXRbits
                                           	extern	_BITS_DATA0
                                           	extern	_BITS_DATA1
                                           	extern	_g_ucTimer10msCount
                                           	extern	_g_ucTimerWorkCount
                                           	extern	_g_ucFlashTimeHigh
                                           	extern	_g_ucFlashTimeLow
                                           	extern	_g_ucFlashTimeHigh1
                                           	extern	_g_ucFlashTimeLow1
                                           	extern	_g_ucFlashTimeHigh2
                                           	extern	_g_ucFlashTimeLow2
                                           	extern	_LvdModel
                                           	extern	_LvdDebounceNew
                                           	extern	_LvdDebounceOld
                                           	extern	_LvdModelCount
                                           	extern	_LvdLightCount
                                           	extern	_TempCount
                                           	extern	_TempFlag
                                           	extern	_SleepCount
                                           	extern	_SleepFlag
                                           	extern	_MaxLight
                                           	extern	_g_cucTIMER_COUNT_STATE
                                           	extern	_INDF
                                           	extern	_T0
                                           	extern	_PCL
                                           	extern	_STATUS
                                           	extern	_FSR
                                           	extern	_PORTB
                                           	extern	_GPR
                                           	extern	_PCON
                                           	extern	_IOCB
                                           	extern	_PCLATH
                                           	extern	_PDCON
                                           	extern	_ODCON
                                           	extern	_PHCON
                                           	extern	_INTECON
                                           	extern	_INTFLAG
                                           	extern	_OPTION
                                           	extern	_TRISB
                                           	extern	_PWMCON
                                           	extern	_PWM1P
                                           	extern	_PWM2P
                                           	extern	_T0CR
                                           	extern	_T1CON
                                           	extern	_T1
                                           	extern	_T1LOAD
                                           	extern	_PWM0P
                                           	extern	_OSCCON
                                           	extern	_CMPCR
                                           	extern	_PDCON1
                                           	extern	_CHARGE0
                                           	extern	_CHARGE1
                                           	extern	_RAMP
                                           	extern	_AUXR
                                           	extern	_HIRCTRM

                                           	extern PSAVE
                                           	extern SSAVE
                                           	extern WSAVE
                                           	extern STK12
                                           	extern STK11
                                           	extern STK10
                                           	extern STK09
                                           	extern STK08
                                           	extern STK07
                                           	extern STK06
                                           	extern STK05
                                           	extern STK04
                                           	extern STK03
                                           	extern STK02
                                           	extern STK01
                                           	extern STK00
                                           ;--------------------------------------------------------
                                           ; global declarations
                                           ;--------------------------------------------------------
                                           	global	_ControlSos
                                           	global	_ControlFlash
                                           	global	_ControlLevel
                                           	global	_ControlLevelHigh
                                           	global	_ControlLevelLow

                                           ;--------------------------------------------------------
                                           ; global definitions
                                           ;--------------------------------------------------------
                                           ;--------------------------------------------------------
                                           ; absolute symbol definitions
                                           ;--------------------------------------------------------
                                           ;--------------------------------------------------------
                                           ; compiler-defined variables
                                           ;--------------------------------------------------------
                                           UDL_function_0	udata
                                           r0x1002	res	1
                                           r0x1003	res	1
                                           r0x1004	res	1
                                           ;--------------------------------------------------------
                                           ; initialized data
                                           ;--------------------------------------------------------
                                           ;--------------------------------------------------------
                                           ; overlayable items in internal ram 
                                           ;--------------------------------------------------------
                                           ;	udata_ovr
                                           ;--------------------------------------------------------
                                           ; code
                                           ;--------------------------------------------------------
                                           code_function	code
                                           ;***
                                           ;  pBlock Stats: dbName = C
                                           ;***
                                           ;has an exit
                                           ;; Starting pCode block
                                           ;;[ICODE] function.c:103:  _entry($2) :
                                           ;;[ICODE] function.c:103: 	proc _ControlSos [k1 lr0:0 so:0]{ ia0 a2p0 re0 rm0 nos0 ru0 dp0}{void function ( ) fixed}
                                           S_function__ControlSos	code
                                           _ControlSos:
                                           ; 2 exit points
                                           ;;[ICODE] function.c:171:  _return($1) :
                                           ;;[ICODE] function.c:171: 	eproc _ControlSos [k1 lr0:0 so:0]{ ia0 a2p0 re0 rm0 nos0 ru0 dp0}{void function ( ) fixed}
                                           ;	.line	171; "function.c"	}
0002fb   0002     return                   	RETURN	
                                           ; exit point of _ControlSos

                                           ;***
                                           ;  pBlock Stats: dbName = C
                                           ;***
                                           ;has an exit
                                           ;; Starting pCode block
                                           ;;[ICODE] function.c:39:  _entry($2) :
                                           ;;[ICODE] function.c:39: 	proc _ControlFlash [k1 lr0:0 so:0]{ ia0 a2p0 re0 rm0 nos0 ru0 dp0}{void function ( ) fixed}
                                           S_function__ControlFlash	code
                                           _ControlFlash:
                                           ; 2 exit points
                                           ;;[ICODE] function.c:101:  _return($1) :
                                           ;;[ICODE] function.c:101: 	eproc _ControlFlash [k1 lr0:0 so:0]{ ia0 a2p0 re0 rm0 nos0 ru0 dp0}{void function ( ) fixed}
                                           ;	.line	101; "function.c"	}
0002fc   0002     return                   	RETURN	
                                           ; exit point of _ControlFlash

                                           ;***
                                           ;  pBlock Stats: dbName = C
                                           ;***
                                           ;has an exit
                                           ;5 compiler assigned registers:
                                           ;   r0x1002
                                           ;   STK00
                                           ;   r0x1003
                                           ;   STK01
                                           ;   r0x1004
                                           ;; Starting pCode block
                                           ;;[ICODE] function.c:26:  _entry($2) :
                                           ;;[ICODE] function.c:26: 	proc _ControlLevel [k1 lr0:0 so:0]{ ia0 a2p0 re0 rm0 nos0 ru0 dp0}{void function ( unsigned-char fixed, unsigned-char fixed, unsigned-char fixed) fixed}
                                           S_function__ControlLevel	code
                                           _ControlLevel:
                                           ; 2 exit points
                                           ;;[ICODE] function.c:26: iTemp0 [k2 lr3:17 so:0]{ ia0 a2p0 re1 rm0 nos0 ru0 dp0}{unsigned-char fixed}{ sir@ _ControlLevel_lightnum1_1_11}[r0x1047 ] = recv _ControlLevel [k1 lr0:0 so:0]{ ia0 a2p0 re0 rm0 nos0 ru0 dp0}{void function ( unsigned-char fixed, unsigned-char fixed, unsigned-char fixed) fixed}
                                           ;	.line	26; "function.c"	void ControlLevel(BYTE lightnum1, BYTE lightnum2, BYTE lightnum3)
000227   19e4     movwf   0x64             	MOVWF	r0x1002
                                           ;;[ICODE] function.c:26: iTemp1 [k4 lr4:18 so:0]{ ia0 a2p0 re1 rm0 nos0 ru0 dp0}{unsigned-char fixed}{ sir@ _ControlLevel_lightnum2_1_11}[r0x1048 ] = recv _ControlLevel [k1 lr0:0 so:0]{ ia0 a2p0 re0 rm0 nos0 ru0 dp0}{void function ( unsigned-char fixed, unsigned-char fixed, unsigned-char fixed) fixed}
000228   111f     movf    0x1f, 0x0        	MOVF	STK00,W
000229   19e5     movwf   0x65             	MOVWF	r0x1003
                                           ;;[ICODE] function.c:26: iTemp2 [k6 lr5:19 so:0]{ ia0 a2p0 re1 rm0 nos0 ru0 dp0}{unsigned-char fixed}{ sir@ _ControlLevel_lightnum3_1_11}[r0x1049 ] = recv _ControlLevel [k1 lr0:0 so:0]{ ia0 a2p0 re0 rm0 nos0 ru0 dp0}{void function ( unsigned-char fixed, unsigned-char fixed, unsigned-char fixed) fixed}
00022a   111e     movf    0x1e, 0x0        	MOVF	STK01,W
00022b   19e6     movwf   0x66             	MOVWF	r0x1004
                                           ;;[ICODE] function.c:28: 	iTemp4 [k11 lr6:8 so:0]{ ia0 a2p0 re0 rm1 nos0 ru0 dp0}{unsigned-bitfield {2,1} near* fixed}[remat] = &[_BITS_DATA0 [k8 lr0:0 so:0]{ ia0 a2p0 re0 rm0 nos0 ru0 dp0}{struct __bits8_t fixed} , 0x0 {const-unsigned-char literal}]
                                           ;;[ICODE] function.c:28: 	*(iTemp4 [k11 lr6:8 so:0]{ ia1 a2p0 re0 rm1 nos0 ru0 dp0}{unsigned-bitfield {2,1} near* fixed}[remat]) := 0x0 {const-unsigned-char literal}
                                           ;	.line	28; "function.c"	g_ucPWM_KeyChange = 0;
00022c   3d27     bcf     0x27, 0x2        	BCF	_BITS_DATA0,2
                                           ;;[ICODE] function.c:29: 	_PWMCON [k12 lr0:0 so:0]{ ia1 a2p0 re0 rm0 nos0 ru0 dp0}{volatile-unsigned-char sfr} := 0x63 {const-unsigned-char literal}
                                           ;	.line	29; "function.c"	PWMCON = 0x63;  //01100011
00022d   0463     movlw   0x63             	MOVLW	0x63
00022e   19c8     movwf   0x48             	MOVWF	_PWMCON
                                           ;;[ICODE] function.c:30: 	iTemp6 [k16 lr10:12 so:0]{ ia0 a2p0 re0 rm1 nos0 ru0 dp0}{volatile-unsigned-bitfield {6,1} near* fixed}[remat] = &[_T1CONbits [k13 lr0:0 so:0]{ ia0 a2p0 re0 rm0 nos0 ru0 dp0}{volatile-struct __00000043 fixed} , 0x0 {const-unsigned-char literal}]
                                           ;;[ICODE] function.c:30: 	*(iTemp6 [k16 lr10:12 so:0]{ ia1 a2p0 re0 rm1 nos0 ru0 dp0}{volatile-unsigned-bitfield {6,1} near* fixed}[remat]) := 0x1 {const-unsigned-char literal}
                                           ;	.line	30; "function.c"	PWM0E = 1;
00022f   3b4c     bsf     0x4c, 0x6        	BSF	_T1CONbits,6
                                           ;;[ICODE] function.c:31: 	iTemp8 [k19 lr13:15 so:0]{ ia0 a2p0 re0 rm1 nos0 ru0 dp0}{volatile-unsigned-bitfield {7,1} near* fixed}[remat] = &[_T1CONbits [k13 lr0:0 so:0]{ ia0 a2p0 re0 rm0 nos0 ru0 dp0}{volatile-struct __00000043 fixed} , 0x0 {const-unsigned-char literal}]
                                           ;;[ICODE] function.c:31: 	*(iTemp8 [k19 lr13:15 so:0]{ ia1 a2p0 re0 rm1 nos0 ru0 dp0}{volatile-unsigned-bitfield {7,1} near* fixed}[remat]) := 0x1 {const-unsigned-char literal}
                                           ;	.line	31; "function.c"	T1EN = 1;      //启动 T1
000230   3bcc     bsf     0x4c, 0x7        	BSF	_T1CONbits,7
                                           ;;[ICODE] function.c:32: 	_RAMP [k20 lr0:0 so:0]{ ia1 a2p0 re0 rm0 nos0 ru0 dp0}{volatile-unsigned-char sfr} := 0xc5 {const-unsigned-char literal}
                                           ;	.line	32; "function.c"	RAMP = 0xC5;  //11000101 //禁止内置限流电阻。
000231   04c5     movlw   0xc5             	MOVLW	0xc5
000232   19d5     movwf   0x55             	MOVWF	_RAMP
                                           ;;[ICODE] function.c:34: 	_PWM2P [k21 lr0:0 so:0]{ ia1 a2p0 re0 rm0 nos0 ru0 dp0}{volatile-unsigned-char sfr} := iTemp0 [k2 lr3:17 so:0]{ ia0 a2p0 re1 rm0 nos0 ru0 dp0}{unsigned-char fixed}{ sir@ _ControlLevel_lightnum1_1_11}[r0x1047 ]
                                           ;	.line	34; "function.c"	PWM_LED0 = lightnum1;
000233   1164     movf    0x64, 0x0        	MOVF	r0x1002,W
000234   19ca     movwf   0x4a             	MOVWF	_PWM2P
                                           ;;[ICODE] function.c:35: 	_PWM1P [k22 lr0:0 so:0]{ ia1 a2p0 re0 rm0 nos0 ru0 dp0}{volatile-unsigned-char sfr} := iTemp1 [k4 lr4:18 so:0]{ ia0 a2p0 re1 rm0 nos0 ru0 dp0}{unsigned-char fixed}{ sir@ _ControlLevel_lightnum2_1_11}[r0x1048 ]
                                           ;	.line	35; "function.c"	PWM_LED1 = lightnum2;
000235   1165     movf    0x65, 0x0        	MOVF	r0x1003,W
000236   19c9     movwf   0x49             	MOVWF	_PWM1P
                                           ;;[ICODE] function.c:36: 	_PWM0P [k23 lr0:0 so:0]{ ia1 a2p0 re0 rm0 nos0 ru0 dp0}{volatile-unsigned-char sfr} := iTemp2 [k6 lr5:19 so:0]{ ia0 a2p0 re1 rm0 nos0 ru0 dp0}{unsigned-char fixed}{ sir@ _ControlLevel_lightnum3_1_11}[r0x1049 ]
                                           ;	.line	36; "function.c"	PWM_LED2 = lightnum3;
000237   1166     movf    0x66, 0x0        	MOVF	r0x1004,W
000238   19cf     movwf   0x4f             	MOVWF	_PWM0P
                                           ;;[ICODE] function.c:36:  _return($1) :
                                           ;;[ICODE] function.c:36: 	eproc _ControlLevel [k1 lr0:0 so:0]{ ia0 a2p0 re0 rm0 nos0 ru0 dp0}{void function ( unsigned-char fixed, unsigned-char fixed, unsigned-char fixed) fixed}
000239   0002     return                   	RETURN	
                                           ; exit point of _ControlLevel

                                           ;***
                                           ;  pBlock Stats: dbName = C
                                           ;***
                                           ;has an exit
                                           ;functions called:
                                           ;   _ControlLevel
                                           ;   _ControlLevel
                                           ;2 compiler assigned registers:
                                           ;   STK01
                                           ;   STK00
                                           ;; Starting pCode block
                                           ;;[ICODE] function.c:20:  _entry($2) :
                                           ;;[ICODE] function.c:20: 	proc _ControlLevelHigh [k1 lr0:0 so:0]{ ia0 a2p0 re0 rm0 nos0 ru0 dp0}{void function ( ) fixed}
                                           S_function__ControlLevelHigh	code
                                           _ControlLevelHigh:
                                           ; 2 exit points
                                           ;;[ICODE] function.c:22: 	iTemp1 [k5 lr3:5 so:0]{ ia0 a2p0 re0 rm1 nos0 ru0 dp0}{unsigned-bitfield {2,1} near* fixed}[remat] = &[_BITS_DATA0 [k2 lr0:0 so:0]{ ia0 a2p0 re0 rm0 nos0 ru0 dp0}{struct __bits8_t fixed} , 0x0 {const-unsigned-char literal}]
                                           ;;[ICODE] function.c:22: 	*(iTemp1 [k5 lr3:5 so:0]{ ia1 a2p0 re0 rm1 nos0 ru0 dp0}{unsigned-bitfield {2,1} near* fixed}[remat]) := 0x0 {const-unsigned-char literal}
                                           ;	.line	22; "function.c"	g_ucPWM_KeyChange = 0;
0002d6   3d27     bcf     0x27, 0x2        	BCF	_BITS_DATA0,2
                                           ;;[ICODE] function.c:23: 	send _MaxLight [k7 lr0:0 so:0]{ ia0 a2p0 re0 rm0 nos0 ru0 dp0}{unsigned-char fixed}{argreg = 1}
                                           ;;[ICODE] function.c:23: 	send _MaxLight [k7 lr0:0 so:0]{ ia0 a2p0 re0 rm0 nos0 ru0 dp0}{unsigned-char fixed}{argreg = 1}
                                           ;;[ICODE] function.c:23: 	send _MaxLight [k7 lr0:0 so:0]{ ia0 a2p0 re0 rm0 nos0 ru0 dp0}{unsigned-char fixed}{argreg = 1}
                                           ;;[ICODE] function.c:23: 	iTemp2 [k11 lr9:9 so:0]{ ia0 a2p0 re0 rm0 nos0 ru0 dp0}{void fixed} = call _ControlLevel [k6 lr0:0 so:0]{ ia0 a2p0 re0 rm0 nos0 ru0 dp0}{void function ( unsigned-char fixed, unsigned-char fixed, unsigned-char fixed) fixed}
                                           ;	.line	23; "function.c"	ControlLevel(MaxLight,MaxLight,MaxLight);		
0002d7   1139     movf    0x39, 0x0        	MOVF	_MaxLight,W
0002d8   199e     movwf   0x1e             	MOVWF	STK01
0002d9   1139     movf    0x39, 0x0        	MOVF	_MaxLight,W
0002da   199f     movwf   0x1f             	MOVWF	STK00
0002db   1139     movf    0x39, 0x0        	MOVF	_MaxLight,W
0002dc   2a27     call    0x0227           	CALL	_ControlLevel
                                           ;;[ICODE] function.c:23:  _return($1) :
                                           ;;[ICODE] function.c:23: 	eproc _ControlLevelHigh [k1 lr0:0 so:0]{ ia0 a2p0 re0 rm0 nos0 ru0 dp0}{void function ( ) fixed}
0002dd   0002     return                   	RETURN	
                                           ; exit point of _ControlLevelHigh

                                           ;***
                                           ;  pBlock Stats: dbName = C
                                           ;***
                                           ;has an exit
                                           ;; Starting pCode block
                                           ;;[ICODE] function.c:5:  _entry($2) :
                                           ;;[ICODE] function.c:5: 	proc _ControlLevelLow [k1 lr0:0 so:0]{ ia0 a2p0 re0 rm0 nos0 ru0 dp0}{void function ( ) fixed}
                                           S_function__ControlLevelLow	code
                                           _ControlLevelLow:
                                           ; 2 exit points
                                           ;;[ICODE] function.c:7: 	iTemp1 [k5 lr3:5 so:0]{ ia0 a2p0 re0 rm1 nos0 ru0 dp0}{unsigned-bitfield {2,1} near* fixed}[remat] = &[_BITS_DATA0 [k2 lr0:0 so:0]{ ia0 a2p0 re0 rm0 nos0 ru0 dp0}{struct __bits8_t fixed} , 0x0 {const-unsigned-char literal}]
                                           ;;[ICODE] function.c:7: 	*(iTemp1 [k5 lr3:5 so:0]{ ia1 a2p0 re0 rm1 nos0 ru0 dp0}{unsigned-bitfield {2,1} near* fixed}[remat]) := 0x0 {const-unsigned-char literal}
                                           ;	.line	7; "function.c"	g_ucPWM_KeyChange = 0;
000277   3d27     bcf     0x27, 0x2        	BCF	_BITS_DATA0,2
                                           ;;[ICODE] function.c:8: 	_PWM0P [k8 lr0:0 so:0]{ ia1 a2p0 re0 rm0 nos0 ru0 dp0}{volatile-unsigned-char sfr} := 0x0 {const-unsigned-char literal}
                                           ;	.line	8; "function.c"	PWM_LED0 =  PWM_LED1 = PWM_LED2 = 0;    //用于设置 PWM0 的高电平时间
000278   18cf     clrf    0x4f             	CLRF	_PWM0P
                                           ;;[ICODE] function.c:8: 	_PWM1P [k7 lr0:0 so:0]{ ia1 a2p0 re0 rm0 nos0 ru0 dp0}{volatile-unsigned-char sfr} := 0x0 {const-unsigned-char literal}
000279   18c9     clrf    0x49             	CLRF	_PWM1P
                                           ;;[ICODE] function.c:8: 	_PWM2P [k6 lr0:0 so:0]{ ia1 a2p0 re0 rm0 nos0 ru0 dp0}{volatile-unsigned-char sfr} := 0x0 {const-unsigned-char literal}
00027a   18ca     clrf    0x4a             	CLRF	_PWM2P
                                           ;;[ICODE] function.c:10: 	_PWMCON [k9 lr0:0 so:0]{ ia1 a2p0 re0 rm0 nos0 ru0 dp0}{volatile-unsigned-char sfr} := 0x80 {const-unsigned-char literal}
                                           ;	.line	10; "function.c"	PWMCON = 0x80;     //禁止 PWM0/BUZ 输出，PORTB5 端口作为 I/O 口
00027b   0480     movlw   0x80             	MOVLW	0x80
00027c   19c8     movwf   0x48             	MOVWF	_PWMCON
                                           ;;[ICODE] function.c:11: 	iTemp3 [k13 lr10:12 so:0]{ ia0 a2p0 re0 rm1 nos0 ru0 dp0}{volatile-unsigned-bitfield {6,1} near* fixed}[remat] = &[_T1CONbits [k10 lr0:0 so:0]{ ia0 a2p0 re0 rm0 nos0 ru0 dp0}{volatile-struct __00000043 fixed} , 0x0 {const-unsigned-char literal}]
                                           ;;[ICODE] function.c:11: 	*(iTemp3 [k13 lr10:12 so:0]{ ia1 a2p0 re0 rm1 nos0 ru0 dp0}{volatile-unsigned-bitfield {6,1} near* fixed}[remat]) := 0x0 {const-unsigned-char literal}
                                           ;	.line	11; "function.c"	PWM0E = 0;         //禁止 PWM0 输出，PORTB5 端口作为 I/O 口    T1CON
00027d   3f4c     bcf     0x4c, 0x6        	BCF	_T1CONbits,6
                                           ;;[ICODE] function.c:12: 	iTemp5 [k16 lr13:15 so:0]{ ia0 a2p0 re0 rm1 nos0 ru0 dp0}{volatile-unsigned-bitfield {7,1} near* fixed}[remat] = &[_T1CONbits [k10 lr0:0 so:0]{ ia0 a2p0 re0 rm0 nos0 ru0 dp0}{volatile-struct __00000043 fixed} , 0x0 {const-unsigned-char literal}]
                                           ;;[ICODE] function.c:12: 	*(iTemp5 [k16 lr13:15 so:0]{ ia1 a2p0 re0 rm1 nos0 ru0 dp0}{volatile-unsigned-bitfield {7,1} near* fixed}[remat]) := 0x0 {const-unsigned-char literal}
                                           ;	.line	12; "function.c"	T1EN = 0;
00027e   3fcc     bcf     0x4c, 0x7        	BCF	_T1CONbits,7
                                           ;;[ICODE] function.c:13: 	iTemp7 [k20 lr16:18 so:0]{ ia0 a2p0 re0 rm1 nos0 ru0 dp0}{volatile-unsigned-bitfield {7,1} near* fixed}[remat] = &[_RAMPbits [k17 lr0:0 so:0]{ ia0 a2p0 re0 rm0 nos0 ru0 dp0}{volatile-struct __00000070 fixed} , 0x0 {const-unsigned-char literal}]
                                           ;;[ICODE] function.c:13: 	*(iTemp7 [k20 lr16:18 so:0]{ ia1 a2p0 re0 rm1 nos0 ru0 dp0}{volatile-unsigned-bitfield {7,1} near* fixed}[remat]) := 0x1 {const-unsigned-char literal}
                                           ;	.line	13; "function.c"	MODSEL = 1;			//使能内置限流电阻
00027f   3bd5     bsf     0x55, 0x7        	BSF	_RAMPbits,7
                                           ;;[ICODE] function.c:15: 	iTemp9 [k24 lr19:21 so:0]{ ia0 a2p0 re0 rm1 nos0 ru0 dp0}{volatile-unsigned-bitfield {1,1} near* fixed}[remat] = &[_PORTBbits [k21 lr0:0 so:0]{ ia0 a2p0 re0 rm0 nos0 ru0 dp0}{volatile-struct __00000005 fixed} , 0x0 {const-unsigned-char literal}]
                                           ;;[ICODE] function.c:15: 	*(iTemp9 [k24 lr19:21 so:0]{ ia1 a2p0 re0 rm1 nos0 ru0 dp0}{volatile-unsigned-bitfield {1,1} near* fixed}[remat]) := 0x1 {const-unsigned-char literal}
                                           ;	.line	15; "function.c"	PORT_LED1 = 1;
000280   3886     bsf     0x06, 0x1        	BSF	_PORTBbits,1
                                           ;;[ICODE] function.c:16: 	iTemp11 [k27 lr22:24 so:0]{ ia0 a2p0 re0 rm1 nos0 ru0 dp0}{volatile-unsigned-bitfield {0,1} near* fixed}[remat] = &[_PORTBbits [k21 lr0:0 so:0]{ ia0 a2p0 re0 rm0 nos0 ru0 dp0}{volatile-struct __00000005 fixed} , 0x0 {const-unsigned-char literal}]
                                           ;;[ICODE] function.c:16: 	*(iTemp11 [k27 lr22:24 so:0]{ ia1 a2p0 re0 rm1 nos0 ru0 dp0}{volatile-unsigned-bitfield {0,1} near* fixed}[remat]) := 0x1 {const-unsigned-char literal}
                                           ;	.line	16; "function.c"	PORT_LED2 = 1;
000281   3806     bsf     0x06, 0x0        	BSF	_PORTBbits,0
                                           ;;[ICODE] function.c:17: 	iTemp13 [k30 lr25:27 so:0]{ ia0 a2p0 re0 rm1 nos0 ru0 dp0}{volatile-unsigned-bitfield {3,1} near* fixed}[remat] = &[_PORTBbits [k21 lr0:0 so:0]{ ia0 a2p0 re0 rm0 nos0 ru0 dp0}{volatile-struct __00000005 fixed} , 0x0 {const-unsigned-char literal}]
                                           ;;[ICODE] function.c:17: 	*(iTemp13 [k30 lr25:27 so:0]{ ia1 a2p0 re0 rm1 nos0 ru0 dp0}{volatile-unsigned-bitfield {3,1} near* fixed}[remat]) := 0x1 {const-unsigned-char literal}
                                           ;	.line	17; "function.c"	PORT_LED3 = 1;		
000282   3986     bsf     0x06, 0x3        	BSF	_PORTBbits,3
                                           ;;[ICODE] function.c:17:  _return($1) :
                                           ;;[ICODE] function.c:17: 	eproc _ControlLevelLow [k1 lr0:0 so:0]{ ia0 a2p0 re0 rm0 nos0 ru0 dp0}{void function ( ) fixed}
000283   0002     return                   	RETURN	
                                           ; exit point of _ControlLevelLow


                                           ;	code size estimation:
                                           ;	   42+    0 =    42 instructions (   84 byte)

                                           	end
                                           ;--------------------------------------------------------
                                           ; File Created by SDCC : free open source ANSI-C Compiler
                                           ; Version 3.6.0 #9615 (CYGWIN)
                                           ;--------------------------------------------------------
                                           ; PIC port for the 14-bit core
                                           ;--------------------------------------------------------
                                           ;	.file	"init.c"
                                           	list	p=18p018a0
                                           	radix dec
                                           	include "p18p018a0.inc"
                                                  LIST

                                           ;==========================================================================
                                           ; Build date : Jun 02 2017
                                           ;  HCIDE HC18P018A0 processor include
                                           ; 
                                           ;  (c) Copyright 2012-2021 Holychip Technology, All rights reserved
                                           ;==========================================================================

                                                   NOLIST
                                           ;--------------------------------------------------------
                                           ; external declarations
                                           ;--------------------------------------------------------
                                           	extern	_STATUSbits
                                           	extern	_PORTBbits
                                           	extern	_PCONbits
                                           	extern	_IOCBbits
                                           	extern	_PDCONbits
                                           	extern	_ODCONbits
                                           	extern	_PHCONbits
                                           	extern	_INTECONbits
                                           	extern	_INTFLAGbits
                                           	extern	_OPTIONbits
                                           	extern	_TRISBbits
                                           	extern	_PWMCONbits
                                           	extern	_T0CRbits
                                           	extern	_T1CONbits
                                           	extern	_OSCCONbits
                                           	extern	_CMPCRbits
                                           	extern	_PDCON1bits
                                           	extern	_CHARGE0bits
                                           	extern	_CHARGE1bits
                                           	extern	_RAMPbits
                                           	extern	_AUXRbits
                                           	extern	_BITS_DATA0
                                           	extern	_BITS_DATA1
                                           	extern	_g_ucTimer10msCount
                                           	extern	_g_ucTimerWorkCount
                                           	extern	_g_ucFlashTimeHigh
                                           	extern	_g_ucFlashTimeLow
                                           	extern	_g_ucFlashTimeHigh1
                                           	extern	_g_ucFlashTimeLow1
                                           	extern	_g_ucFlashTimeHigh2
                                           	extern	_g_ucFlashTimeLow2
                                           	extern	_LvdModel
                                           	extern	_LvdDebounceNew
                                           	extern	_LvdDebounceOld
                                           	extern	_LvdModelCount
                                           	extern	_LvdLightCount
                                           	extern	_TempCount
                                           	extern	_TempFlag
                                           	extern	_SleepCount
                                           	extern	_SleepFlag
                                           	extern	_MaxLight
                                           	extern	_g_cucTIMER_COUNT_STATE
                                           	extern	_INDF
                                           	extern	_T0
                                           	extern	_PCL
                                           	extern	_STATUS
                                           	extern	_FSR
                                           	extern	_PORTB
                                           	extern	_GPR
                                           	extern	_PCON
                                           	extern	_IOCB
                                           	extern	_PCLATH
                                           	extern	_PDCON
                                           	extern	_ODCON
                                           	extern	_PHCON
                                           	extern	_INTECON
                                           	extern	_INTFLAG
                                           	extern	_OPTION
                                           	extern	_TRISB
                                           	extern	_PWMCON
                                           	extern	_PWM1P
                                           	extern	_PWM2P
                                           	extern	_T0CR
                                           	extern	_T1CON
                                           	extern	_T1
                                           	extern	_T1LOAD
                                           	extern	_PWM0P
                                           	extern	_OSCCON
                                           	extern	_CMPCR
                                           	extern	_PDCON1
                                           	extern	_CHARGE0
                                           	extern	_CHARGE1
                                           	extern	_RAMP
                                           	extern	_AUXR
                                           	extern	_HIRCTRM

                                           	extern PSAVE
                                           	extern SSAVE
                                           	extern WSAVE
                                           	extern STK12
                                           	extern STK11
                                           	extern STK10
                                           	extern STK09
                                           	extern STK08
                                           	extern STK07
                                           	extern STK06
                                           	extern STK05
                                           	extern STK04
                                           	extern STK03
                                           	extern STK02
                                           	extern STK01
                                           	extern STK00
                                           ;--------------------------------------------------------
                                           ; global declarations
                                           ;--------------------------------------------------------
                                           	global	_InitRam
                                           	global	_InitPwm
                                           	global	_InitSystem
                                           	global	_InitPort

                                           ;--------------------------------------------------------
                                           ; global definitions
                                           ;--------------------------------------------------------
                                           ;--------------------------------------------------------
                                           ; absolute symbol definitions
                                           ;--------------------------------------------------------
                                           ;--------------------------------------------------------
                                           ; compiler-defined variables
                                           ;--------------------------------------------------------
                                           ;--------------------------------------------------------
                                           ; initialized data
                                           ;--------------------------------------------------------
                                           ;--------------------------------------------------------
                                           ; overlayable items in internal ram 
                                           ;--------------------------------------------------------
                                           ;	udata_ovr
                                           ;--------------------------------------------------------
                                           ; code
                                           ;--------------------------------------------------------
                                           code_init	code
                                           ;***
                                           ;  pBlock Stats: dbName = C
                                           ;***
                                           ;has an exit
                                           ;; Starting pCode block
                                           ;;[ICODE] init.c:66:  _entry($2) :
                                           ;;[ICODE] init.c:66: 	proc _InitRam [k1 lr0:0 so:0]{ ia0 a2p0 re0 rm0 nos0 ru0 dp0}{void function ( ) fixed}
                                           S_init__InitRam	code
                                           _InitRam:
                                           ; 2 exit points
                                           ;;[ICODE] init.c:68: 	iTemp1 [k5 lr3:5 so:0]{ ia0 a2p0 re0 rm1 nos0 ru0 dp0}{unsigned-bitfield {0,1} near* fixed}[remat] = &[_BITS_DATA0 [k2 lr0:0 so:0]{ ia0 a2p0 re0 rm0 nos0 ru0 dp0}{struct __bits8_t fixed} , 0x0 {const-unsigned-char literal}]
                                           ;;[ICODE] init.c:68: 	*(iTemp1 [k5 lr3:5 so:0]{ ia1 a2p0 re0 rm1 nos0 ru0 dp0}{unsigned-bitfield {0,1} near* fixed}[remat]) := 0x0 {const-unsigned-char literal}
                                           ;	.line	68; "init.c"	BIT_TIMER_10MS = 0;
0002de   3c27     bcf     0x27, 0x0        	BCF	_BITS_DATA0,0
                                           ;;[ICODE] init.c:69: 	iTemp3 [k8 lr6:8 so:0]{ ia0 a2p0 re0 rm1 nos0 ru0 dp0}{unsigned-bitfield {5,1} near* fixed}[remat] = &[_BITS_DATA0 [k2 lr0:0 so:0]{ ia0 a2p0 re0 rm0 nos0 ru0 dp0}{struct __bits8_t fixed} , 0x0 {const-unsigned-char literal}]
                                           ;;[ICODE] init.c:69: 	*(iTemp3 [k8 lr6:8 so:0]{ ia1 a2p0 re0 rm1 nos0 ru0 dp0}{unsigned-bitfield {5,1} near* fixed}[remat]) := 0x0 {const-unsigned-char literal}
                                           ;	.line	69; "init.c"	IsLight = 0;
0002df   3ea7     bcf     0x27, 0x5        	BCF	_BITS_DATA0,5
                                           ;;[ICODE] init.c:71: 	_TempCount [k9 lr0:0 so:0]{ ia1 a2p0 re0 rm0 nos0 ru0 dp0}{unsigned-char fixed} := 0x0 {const-unsigned-char literal}
                                           ;	.line	71; "init.c"	TempCount = 0;
0002e0   18b5     clrf    0x35             	CLRF	_TempCount
                                           ;;[ICODE] init.c:72: 	_TempFlag [k11 lr0:0 so:0]{ ia1 a2p0 re0 rm0 nos0 ru0 dp0}{unsigned-char fixed} := 0x0 {const-unsigned-char literal}
                                           ;	.line	72; "init.c"	TempFlag = 0;
0002e1   18b6     clrf    0x36             	CLRF	_TempFlag
                                           ;;[ICODE] init.c:74: 	_SleepCount [k13 lr0:0 so:0]{ ia1 a2p0 re0 rm0 nos0 ru0 dp0}{unsigned-char fixed} := 0x0 {const-unsigned-char literal}
                                           ;	.line	74; "init.c"	SleepCount = 0;
0002e2   18b7     clrf    0x37             	CLRF	_SleepCount
                                           ;;[ICODE] init.c:75: 	_SleepFlag [k15 lr0:0 so:0]{ ia1 a2p0 re0 rm0 nos0 ru0 dp0}{unsigned-char fixed} := 0x0 {const-unsigned-char literal}
                                           ;	.line	75; "init.c"	SleepFlag = 0;
0002e3   18b8     clrf    0x38             	CLRF	_SleepFlag
                                           ;;[ICODE] init.c:75:  _return($1) :
                                           ;;[ICODE] init.c:75: 	eproc _InitRam [k1 lr0:0 so:0]{ ia0 a2p0 re0 rm0 nos0 ru0 dp0}{void function ( ) fixed}
0002e4   0002     return                   	RETURN	
                                           ; exit point of _InitRam

                                           ;***
                                           ;  pBlock Stats: dbName = C
                                           ;***
                                           ;has an exit
                                           ;; Starting pCode block
                                           ;;[ICODE] init.c:59:  _entry($2) :
                                           ;;[ICODE] init.c:59: 	proc _InitPwm [k1 lr0:0 so:0]{ ia0 a2p0 re0 rm0 nos0 ru0 dp0}{void function ( ) fixed}
                                           S_init__InitPwm	code
                                           _InitPwm:
                                           ; 2 exit points
                                           ;;[ICODE] init.c:61: 	_AUXR [k2 lr0:0 so:0]{ ia1 a2p0 re0 rm0 nos0 ru0 dp0}{volatile-unsigned-char sfr} := 0x0 {const-unsigned-char literal}
                                           ;	.line	61; "init.c"	AUXR = 0;
000002   18d9     clrf    0x59             	CLRF	_AUXR
                                           ;;[ICODE] init.c:62: 	_T1 [k3 lr0:0 so:0]{ ia1 a2p0 re0 rm0 nos0 ru0 dp0}{volatile-unsigned-char sfr} := 0xfe {const-unsigned-char literal}
                                           ;	.line	62; "init.c"	T1 = 0XFE;     //TI计数器
000003   04fe     movlw   0xfe             	MOVLW	0xfe
000004   19cd     movwf   0x4d             	MOVWF	_T1
                                           ;;[ICODE] init.c:63: 	_T1LOAD [k4 lr0:0 so:0]{ ia1 a2p0 re0 rm0 nos0 ru0 dp0}{volatile-unsigned-char sfr} := 0xfe {const-unsigned-char literal}
                                           ;	.line	63; "init.c"	T1LOAD = 0XFE;
000005   04fe     movlw   0xfe             	MOVLW	0xfe
000006   19ce     movwf   0x4e             	MOVWF	_T1LOAD
                                           ;;[ICODE] init.c:63:  _return($1) :
                                           ;;[ICODE] init.c:63: 	eproc _InitPwm [k1 lr0:0 so:0]{ ia0 a2p0 re0 rm0 nos0 ru0 dp0}{void function ( ) fixed}
000007   0002     return                   	RETURN	
                                           ; exit point of _InitPwm

                                           ;***
                                           ;  pBlock Stats: dbName = C
                                           ;***
                                           ;has an exit
                                           ;; Starting pCode block
                                           ;;[ICODE] init.c:45:  _entry($2) :
                                           ;;[ICODE] init.c:45: 	proc _InitSystem [k1 lr0:0 so:0]{ ia0 a2p0 re0 rm0 nos0 ru0 dp0}{void function ( ) fixed}
                                           S_init__InitSystem	code
                                           _InitSystem:
                                           ; 2 exit points
                                           ;;[ICODE] init.c:47: 	_OSCCON [k2 lr0:0 so:0]{ ia1 a2p0 re0 rm0 nos0 ru0 dp0}{volatile-unsigned-char sfr} := 0x0 {const-unsigned-char literal}
                                           ;	.line	47; "init.c"	OSCCON = 0;     //高频	
0002a5   18d0     clrf    0x50             	CLRF	_OSCCON
                                           ;;[ICODE] init.c:48: 	_T0 [k3 lr0:0 so:0]{ ia1 a2p0 re0 rm0 nos0 ru0 dp0}{volatile-unsigned-char sfr} := 0xce {const-unsigned-char literal}
                                           ;	.line	48; "init.c"	T0 =   0xCE;
0002a6   04ce     movlw   0xce             	MOVLW	0xce
0002a7   1981     movwf   0x01             	MOVWF	_T0
                                           ;;[ICODE] init.c:50: 	_OPTION [k4 lr0:0 so:0]{ ia1 a2p0 re0 rm0 nos0 ru0 dp0}{volatile-unsigned-char sfr} := 0x0 {const-unsigned-char literal}
                                           ;	.line	50; "init.c"	OPTION = 0x00;	//下降沿中断 Fcpu 上升沿计数 TMR0 1/2预分频
0002a8   18c1     clrf    0x41             	CLRF	_OPTION
                                           ;;[ICODE] init.c:51: 	_PCON [k5 lr0:0 so:0]{ ia1 a2p0 re0 rm0 nos0 ru0 dp0}{volatile-unsigned-char sfr} = _PCON [k5 lr0:0 so:0]{ ia0 a2p0 re0 rm0 nos0 ru0 dp0}{volatile-unsigned-char sfr} | 0x90 {const-unsigned-char literal}
                                           ;	.line	51; "init.c"	PCON |= 0x90; 	//使能WDT
0002a9   0490     movlw   0x90             	MOVLW	0x90
0002aa   1d88     iorwf   0x08, 0x1        	IORWF	_PCON,F
                                           ;;[ICODE] init.c:53: 	_CMPCR [k7 lr0:0 so:0]{ ia1 a2p0 re0 rm0 nos0 ru0 dp0}{volatile-unsigned-char sfr} := 0x0 {const-unsigned-char literal}
                                           ;	.line	53; "init.c"	CMPCR = 0x00;  //关闭比较器
0002ab   18d1     clrf    0x51             	CLRF	_CMPCR
                                           ;;[ICODE] init.c:54: 	_INTFLAG [k8 lr0:0 so:0]{ ia1 a2p0 re0 rm0 nos0 ru0 dp0}{volatile-unsigned-char sfr} = _INTFLAG [k8 lr0:0 so:0]{ ia0 a2p0 re0 rm0 nos0 ru0 dp0}{volatile-unsigned-char sfr} & 0xfe {const-unsigned-char literal}
                                           ;	.line	54; "init.c"	INTFLAG &= 0xFE;
0002ac   3c0f     bcf     0x0f, 0x0        	BCF	_INTFLAG,0
                                           ;;[ICODE] init.c:55: 	_CMPCR [k7 lr0:0 so:0]{ ia1 a2p0 re0 rm0 nos0 ru0 dp0}{volatile-unsigned-char sfr} = _CMPCR [k7 lr0:0 so:0]{ ia0 a2p0 re0 rm0 nos0 ru0 dp0}{volatile-unsigned-char sfr} | 0x10 {const-unsigned-char literal}
                                           ;	.line	55; "init.c"	CMPCR |= 0X10;
0002ad   3a51     bsf     0x51, 0x4        	BSF	_CMPCR,4
                                           ;;[ICODE] init.c:55:  _return($1) :
                                           ;;[ICODE] init.c:55: 	eproc _InitSystem [k1 lr0:0 so:0]{ ia0 a2p0 re0 rm0 nos0 ru0 dp0}{void function ( ) fixed}
0002ae   0002     return                   	RETURN	
                                           ; exit point of _InitSystem

                                           ;***
                                           ;  pBlock Stats: dbName = C
                                           ;***
                                           ;has an exit
                                           ;; Starting pCode block
                                           ;;[ICODE] init.c:4:  _entry($2) :
                                           ;;[ICODE] init.c:4: 	proc _InitPort [k1 lr0:0 so:0]{ ia0 a2p0 re0 rm0 nos0 ru0 dp0}{void function ( ) fixed}
                                           S_init__InitPort	code
                                           _InitPort:
                                           ; 2 exit points
                                           ;;[ICODE] init.c:7: 	_PORTB [k2 lr0:0 so:0]{ ia1 a2p0 re0 rm0 nos0 ru0 dp0}{volatile-unsigned-char sfr} := 0x0 {const-unsigned-char literal}
                                           ;	.line	7; "init.c"	PORTB = 0;  // 0 disenable output, 1 enable output
000213   1886     clrf    0x06             	CLRF	_PORTB
                                           ;;[ICODE] init.c:12: 	_TRISB [k3 lr0:0 so:0]{ ia1 a2p0 re0 rm0 nos0 ru0 dp0}{volatile-unsigned-char sfr} := 0x0 {const-unsigned-char literal}
                                           ;	.line	12; "init.c"	TRISB = 0;    //1：input  0:output
000214   18c6     clrf    0x46             	CLRF	_TRISB
                                           ;;[ICODE] init.c:13: 	_TRISB [k3 lr0:0 so:0]{ ia1 a2p0 re0 rm0 nos0 ru0 dp0}{volatile-unsigned-char sfr} = _TRISB [k3 lr0:0 so:0]{ ia0 a2p0 re0 rm0 nos0 ru0 dp0}{volatile-unsigned-char sfr} | 0x4 {const-unsigned-char literal}
                                           ;	.line	13; "init.c"	TRISB |= DEF_SET_BIT2;
000215   3946     bsf     0x46, 0x2        	BSF	_TRISB,2
                                           ;;[ICODE] init.c:14: 	_TRISB [k3 lr0:0 so:0]{ ia1 a2p0 re0 rm0 nos0 ru0 dp0}{volatile-unsigned-char sfr} = _TRISB [k3 lr0:0 so:0]{ ia0 a2p0 re0 rm0 nos0 ru0 dp0}{volatile-unsigned-char sfr} | 0x10 {const-unsigned-char literal}
                                           ;	.line	14; "init.c"	TRISB |= DEF_SET_BIT4;
000216   3a46     bsf     0x46, 0x4        	BSF	_TRISB,4
                                           ;;[ICODE] init.c:15: 	_TRISB [k3 lr0:0 so:0]{ ia1 a2p0 re0 rm0 nos0 ru0 dp0}{volatile-unsigned-char sfr} = _TRISB [k3 lr0:0 so:0]{ ia0 a2p0 re0 rm0 nos0 ru0 dp0}{volatile-unsigned-char sfr} | 0x20 {const-unsigned-char literal}
                                           ;	.line	15; "init.c"	TRISB |= DEF_SET_BIT5;
000217   3ac6     bsf     0x46, 0x5        	BSF	_TRISB,5
                                           ;;[ICODE] init.c:19: 	_PHCON [k7 lr0:0 so:0]{ ia1 a2p0 re0 rm0 nos0 ru0 dp0}{volatile-unsigned-char sfr} := 0xff {const-unsigned-char literal}
                                           ;	.line	19; "init.c"	PHCON = 0XFF;  // 1 disenable high pull ,0 enable high pull
000218   04ff     movlw   0xff             	MOVLW	0xff
000219   198d     movwf   0x0d             	MOVWF	_PHCON
                                           ;;[ICODE] init.c:20: 	_PHCON [k7 lr0:0 so:0]{ ia1 a2p0 re0 rm0 nos0 ru0 dp0}{volatile-unsigned-char sfr} = _PHCON [k7 lr0:0 so:0]{ ia0 a2p0 re0 rm0 nos0 ru0 dp0}{volatile-unsigned-char sfr} & 0xfb {const-unsigned-char literal}
                                           ;	.line	20; "init.c"	PHCON &= DEF_CLR_BIT2;
00021a   3d0d     bcf     0x0d, 0x2        	BCF	_PHCON,2
                                           ;;[ICODE] init.c:21: 	_PHCON [k7 lr0:0 so:0]{ ia1 a2p0 re0 rm0 nos0 ru0 dp0}{volatile-unsigned-char sfr} = _PHCON [k7 lr0:0 so:0]{ ia0 a2p0 re0 rm0 nos0 ru0 dp0}{volatile-unsigned-char sfr} & 0xef {const-unsigned-char literal}
                                           ;	.line	21; "init.c"	PHCON &= DEF_CLR_BIT4;
00021b   3e0d     bcf     0x0d, 0x4        	BCF	_PHCON,4
                                           ;;[ICODE] init.c:25: 	_PDCON [k10 lr0:0 so:0]{ ia1 a2p0 re0 rm0 nos0 ru0 dp0}{volatile-unsigned-char sfr} := 0xff {const-unsigned-char literal}
                                           ;	.line	25; "init.c"	PDCON = 0xFF;  // 1 disenable down pull ,0 enable down pull
00021c   04ff     movlw   0xff             	MOVLW	0xff
00021d   198b     movwf   0x0b             	MOVWF	_PDCON
                                           ;;[ICODE] init.c:26: 	_PDCON1 [k11 lr0:0 so:0]{ ia1 a2p0 re0 rm0 nos0 ru0 dp0}{volatile-unsigned-char sfr} := 0xdf {const-unsigned-char literal}
                                           ;	.line	26; "init.c"	PDCON1 = DEF_CLR_BIT5; // 1 disenable down pull ,0 enable down pull
00021e   04df     movlw   0xdf             	MOVLW	0xdf
00021f   19d2     movwf   0x52             	MOVWF	_PDCON1
                                           ;;[ICODE] init.c:30: 	_IOCB [k12 lr0:0 so:0]{ ia1 a2p0 re0 rm0 nos0 ru0 dp0}{volatile-unsigned-char sfr} := 0x0 {const-unsigned-char literal}
                                           ;	.line	30; "init.c"	IOCB = 0X00; // 0 disenable weak up 	,1 enable weak up
000220   1889     clrf    0x09             	CLRF	_IOCB
                                           ;;[ICODE] init.c:32: 	iTemp6 [k16 lr19:21 so:0]{ ia0 a2p0 re0 rm1 nos0 ru0 dp0}{volatile-unsigned-bitfield {1,1} near* fixed}[remat] = &[_INTECONbits [k13 lr0:0 so:0]{ ia0 a2p0 re0 rm0 nos0 ru0 dp0}{volatile-struct __00000024 fixed} , 0x0 {const-unsigned-char literal}]
                                           ;;[ICODE] init.c:32: 	*(iTemp6 [k16 lr19:21 so:0]{ ia1 a2p0 re0 rm1 nos0 ru0 dp0}{volatile-unsigned-bitfield {1,1} near* fixed}[remat]) := 0x0 {const-unsigned-char literal}
                                           ;	.line	32; "init.c"	PBIE = 0; // 0	disenable Port level change interrupt , 1 enable Port level change interrupt
000221   3c8e     bcf     0x0e, 0x1        	BCF	_INTECONbits,1
                                           ;;[ICODE] init.c:34: 	_ODCON [k17 lr0:0 so:0]{ ia1 a2p0 re0 rm0 nos0 ru0 dp0}{volatile-unsigned-char sfr} := 0x0 {const-unsigned-char literal}
                                           ;	.line	34; "init.c"	ODCON = 0; // 0 disenable open drain output, 1 enable open drain output
000222   188c     clrf    0x0c             	CLRF	_ODCON
                                           ;;[ICODE] init.c:38: 	iTemp8 [k21 lr23:25 so:0]{ ia0 a2p0 re0 rm1 nos0 ru0 dp0}{volatile-unsigned-bitfield {1,1} near* fixed}[remat] = &[_PORTBbits [k18 lr0:0 so:0]{ ia0 a2p0 re0 rm0 nos0 ru0 dp0}{volatile-struct __00000005 fixed} , 0x0 {const-unsigned-char literal}]
                                           ;;[ICODE] init.c:38: 	*(iTemp8 [k21 lr23:25 so:0]{ ia1 a2p0 re0 rm1 nos0 ru0 dp0}{volatile-unsigned-bitfield {1,1} near* fixed}[remat]) := 0x0 {const-unsigned-char literal}
                                           ;	.line	38; "init.c"	PORT_LED1 = 0;  //灯光
000223   3c86     bcf     0x06, 0x1        	BCF	_PORTBbits,1
                                           ;;[ICODE] init.c:39: 	iTemp10 [k24 lr26:28 so:0]{ ia0 a2p0 re0 rm1 nos0 ru0 dp0}{volatile-unsigned-bitfield {0,1} near* fixed}[remat] = &[_PORTBbits [k18 lr0:0 so:0]{ ia0 a2p0 re0 rm0 nos0 ru0 dp0}{volatile-struct __00000005 fixed} , 0x0 {const-unsigned-char literal}]
                                           ;;[ICODE] init.c:39: 	*(iTemp10 [k24 lr26:28 so:0]{ ia1 a2p0 re0 rm1 nos0 ru0 dp0}{volatile-unsigned-bitfield {0,1} near* fixed}[remat]) := 0x1 {const-unsigned-char literal}
                                           ;	.line	39; "init.c"	PORT_LED2 = 1;  //电机
000224   3806     bsf     0x06, 0x0        	BSF	_PORTBbits,0
                                           ;;[ICODE] init.c:40: 	iTemp12 [k27 lr29:31 so:0]{ ia0 a2p0 re0 rm1 nos0 ru0 dp0}{volatile-unsigned-bitfield {3,1} near* fixed}[remat] = &[_PORTBbits [k18 lr0:0 so:0]{ ia0 a2p0 re0 rm0 nos0 ru0 dp0}{volatile-struct __00000005 fixed} , 0x0 {const-unsigned-char literal}]
                                           ;;[ICODE] init.c:40: 	*(iTemp12 [k27 lr29:31 so:0]{ ia1 a2p0 re0 rm1 nos0 ru0 dp0}{volatile-unsigned-bitfield {3,1} near* fixed}[remat]) := 0x0 {const-unsigned-char literal}
                                           ;	.line	40; "init.c"	PORT_LED3 = 0; //pow
000225   3d86     bcf     0x06, 0x3        	BCF	_PORTBbits,3
                                           ;;[ICODE] init.c:40:  _return($1) :
                                           ;;[ICODE] init.c:40: 	eproc _InitPort [k1 lr0:0 so:0]{ ia0 a2p0 re0 rm0 nos0 ru0 dp0}{void function ( ) fixed}
000226   0002     return                   	RETURN	
                                           ; exit point of _InitPort


                                           ;	code size estimation:
                                           ;	   43+    0 =    43 instructions (   86 byte)

                                           	end
                                           ;--------------------------------------------------------
                                           ; File Created by SDCC : free open source ANSI-C Compiler
                                           ; Version 3.6.0 #9615 (CYGWIN)
                                           ;--------------------------------------------------------
                                           ; PIC port for the 14-bit core
                                           ;--------------------------------------------------------
                                           ;	.file	"interrupt.c"
                                           	list	p=18p018a0
                                           	radix dec
                                           	include "p18p018a0.inc"
                                                  LIST

                                           ;==========================================================================
                                           ; Build date : Jun 02 2017
                                           ;  HCIDE HC18P018A0 processor include
                                           ; 
                                           ;  (c) Copyright 2012-2021 Holychip Technology, All rights reserved
                                           ;==========================================================================

                                                   NOLIST
                                           ;--------------------------------------------------------
                                           ; external declarations
                                           ;--------------------------------------------------------
                                           	extern	_Interrupt
                                           	extern	_STATUSbits
                                           	extern	_PORTBbits
                                           	extern	_PCONbits
                                           	extern	_IOCBbits
                                           	extern	_PDCONbits
                                           	extern	_ODCONbits
                                           	extern	_PHCONbits
                                           	extern	_INTECONbits
                                           	extern	_INTFLAGbits
                                           	extern	_OPTIONbits
                                           	extern	_TRISBbits
                                           	extern	_PWMCONbits
                                           	extern	_T0CRbits
                                           	extern	_T1CONbits
                                           	extern	_OSCCONbits
                                           	extern	_CMPCRbits
                                           	extern	_PDCON1bits
                                           	extern	_CHARGE0bits
                                           	extern	_CHARGE1bits
                                           	extern	_RAMPbits
                                           	extern	_AUXRbits
                                           	extern	_BITS_DATA0
                                           	extern	_BITS_DATA1
                                           	extern	_g_ucTimer10msCount
                                           	extern	_g_ucTimerWorkCount
                                           	extern	_g_ucFlashTimeHigh
                                           	extern	_g_ucFlashTimeLow
                                           	extern	_g_ucFlashTimeHigh1
                                           	extern	_g_ucFlashTimeLow1
                                           	extern	_g_ucFlashTimeHigh2
                                           	extern	_g_ucFlashTimeLow2
                                           	extern	_LvdModel
                                           	extern	_LvdDebounceNew
                                           	extern	_LvdDebounceOld
                                           	extern	_LvdModelCount
                                           	extern	_LvdLightCount
                                           	extern	_TempCount
                                           	extern	_TempFlag
                                           	extern	_SleepCount
                                           	extern	_SleepFlag
                                           	extern	_MaxLight
                                           	extern	_g_cucTIMER_COUNT_STATE
                                           	extern	_INDF
                                           	extern	_T0
                                           	extern	_PCL
                                           	extern	_STATUS
                                           	extern	_FSR
                                           	extern	_PORTB
                                           	extern	_GPR
                                           	extern	_PCON
                                           	extern	_IOCB
                                           	extern	_PCLATH
                                           	extern	_PDCON
                                           	extern	_ODCON
                                           	extern	_PHCON
                                           	extern	_INTECON
                                           	extern	_INTFLAG
                                           	extern	_OPTION
                                           	extern	_TRISB
                                           	extern	_PWMCON
                                           	extern	_PWM1P
                                           	extern	_PWM2P
                                           	extern	_T0CR
                                           	extern	_T1CON
                                           	extern	_T1
                                           	extern	_T1LOAD
                                           	extern	_PWM0P
                                           	extern	_OSCCON
                                           	extern	_CMPCR
                                           	extern	_PDCON1
                                           	extern	_CHARGE0
                                           	extern	_CHARGE1
                                           	extern	_RAMP
                                           	extern	_AUXR
                                           	extern	_HIRCTRM
                                           	extern	___sdcc_saved_fsr

                                           	extern PSAVE
                                           	extern SSAVE
                                           	extern WSAVE
                                           	extern STK12
                                           	extern STK11
                                           	extern STK10
                                           	extern STK09
                                           	extern STK08
                                           	extern STK07
                                           	extern STK06
                                           	extern STK05
                                           	extern STK04
                                           	extern STK03
                                           	extern STK02
                                           	extern STK01
                                           	extern STK00
                                           ;--------------------------------------------------------
                                           ; global declarations
                                           ;--------------------------------------------------------
                                           	global	_InterruptFunc

                                           ;--------------------------------------------------------
                                           ; global definitions
                                           ;--------------------------------------------------------
                                           ;--------------------------------------------------------
                                           ; absolute symbol definitions
                                           ;--------------------------------------------------------
                                           ;--------------------------------------------------------
                                           ; compiler-defined variables
                                           ;--------------------------------------------------------
                                           ;--------------------------------------------------------
                                           ; initialized data
                                           ;--------------------------------------------------------
                                           ;--------------------------------------------------------
                                           ; overlayable items in internal ram 
                                           ;--------------------------------------------------------
                                           ;	udata_ovr
                                           ;--------------------------------------------------------
                                           ; interrupt and initialization code
                                           ;--------------------------------------------------------
                                           c_interrupt	code	0x0008
                                           __sdcc_interrupt:
                                           ;***
                                           ;  pBlock Stats: dbName = I
                                           ;***
                                           ;; Starting pCode block
                                           ;;[ICODE] interrupt.c:6:  _entry($8) :
                                           ;;[ICODE] interrupt.c:6: 	proc _InterruptFunc [k1 lr0:0 so:0]{ ia0 a2p0 re0 rm0 nos0 ru0 dp0}{void function ( ) fixed}
                                           _InterruptFunc:
                                           ; 0 exit points
                                           ;	.line	6; "interrupt.c"	void InterruptFunc(void) __interrupt 0
000008   1992     movwf   0x12             	MOVWF	WSAVE
000009   1703     swapf   0x03, 0x0        	SWAPF	STATUS,W
00000a   1883     clrf    0x03             	CLRF	STATUS
00000b   1991     movwf   0x11             	MOVWF	SSAVE
                                           	BANKSEL	PCLATH
00000c   110a     movf    0x0a, 0x0        	MOVF	PCLATH,W
00000d   188a     clrf    0x0a             	CLRF	PCLATH
00000e   1990     movwf   0x10             	MOVWF	PSAVE
00000f   1104     movf    0x04, 0x0        	MOVF	FSR,W
                                           ;	.line	8; "interrupt.c"	if (PBIF)//产生端口电平变化中断
000010   19ba     movwf   0x3a             	MOVWF	___sdcc_saved_fsr
                                           ;	.line	10; "interrupt.c"	PBIF = 0;
000011   348f     btfsc   0x0f, 0x1        	BTFSC	_INTFLAGbits,1
                                           ;	.line	13; "interrupt.c"	if (T0IF)//产生TMR0溢出中断
000012   3c8f     bcf     0x0f, 0x1        	BCF	_INTFLAGbits,1
000013   300f     btfss   0x0f, 0x0        	BTFSS	_INTFLAGbits,0
000014   2018     goto    0x0018           	GOTO	_00108_DS_
                                           ;;[ICODE] interrupt.c:13: 	if iTemp7 [k13 lr13:14 so:0]{ ia0 a2p0 re0 rm0 nos0 ru0 dp0}{volatile-unsigned-bitfield {0,1} fixed}[r0x1046 ] == 0 goto __iffalse_1($4)
                                           ;;[ICODE] interrupt.c:15: 	iTemp9 [k16 lr15:17 so:0]{ ia0 a2p0 re0 rm1 nos0 ru0 dp0}{volatile-unsigned-bitfield {0,1} near* fixed}[remat] = &[_INTFLAGbits [k2 lr0:0 so:0]{ ia0 a2p0 re0 rm0 nos0 ru0 dp0}{volatile-struct __00000027 fixed} , 0x0 {const-unsigned-char literal}]
                                           ;;[ICODE] interrupt.c:15: 	*(iTemp9 [k16 lr15:17 so:0]{ ia1 a2p0 re0 rm1 nos0 ru0 dp0}{volatile-unsigned-bitfield {0,1} near* fixed}[remat]) := 0x0 {const-unsigned-char literal}
                                           ;	.line	15; "interrupt.c"	T0IF = 0;
000015   3c0f     bcf     0x0f, 0x0        	BCF	_INTFLAGbits,0
                                           ;;[ICODE] interrupt.c:16: 	_T0 [k17 lr0:0 so:0]{ ia1 a2p0 re0 rm0 nos0 ru0 dp0}{volatile-unsigned-char sfr} := 0xd9 {const-unsigned-char literal}
                                           ;	.line	16; "interrupt.c"	T0 = 217;
000016   04d9     movlw   0xd9             	MOVLW	0xd9
000017   1981     movwf   0x01             	MOVWF	_T0
                                           ;;[ICODE] interrupt.c:16:  __iffalse_1($4) :
                                           ;;[ICODE] interrupt.c:20: 	_g_ucTimer10msCount [k18 lr0:0 so:0]{ ia1 a2p0 re0 rm0 nos0 ru0 dp0}{unsigned-char fixed} = _g_ucTimer10msCount [k18 lr0:0 so:0]{ ia1 a2p0 re0 rm0 nos0 ru0 dp0}{unsigned-char fixed} + 0x1 {const-unsigned-char literal}
                                           _00108_DS_:
                                           ;	.line	20; "interrupt.c"	g_ucTimer10msCount++;		
000018   13a8     incf    0x28, 0x1        	INCF	_g_ucTimer10msCount,F
                                           ;;[ICODE] interrupt.c:26: 	iTemp13 [k22 lr22:23 so:0]{ ia0 a2p0 re0 rm0 nos0 ru0 dp0}{char fixed} = 0xc8 {const-unsigned-char literal} == _g_ucTimer10msCount [k18 lr0:0 so:0]{ ia0 a2p0 re0 rm0 nos0 ru0 dp0}{unsigned-char fixed}
                                           ;	.line	26; "interrupt.c"	if (TIMER_COUNT_10MS == g_ucTimer10msCount)
000019   1128     movf    0x28, 0x0        	MOVF	_g_ucTimer10msCount,W
00001a   0dc8     xorlw   0xc8             	XORLW	0xc8
00001b   3103     btfss   0x03, 0x2        	BTFSS	STATUS,2
00001c   201f     goto    0x001f           	GOTO	_00111_DS_
                                           ;;[ICODE] interrupt.c:26: 	if iTemp13 [k22 lr22:23 so:0]{ ia0 a2p0 re0 rm0 nos0 ru0 dp0}{char fixed} == 0 goto _return($7)
                                           ;;[ICODE] interrupt.c:28: 	_g_ucTimer10msCount [k18 lr0:0 so:0]{ ia1 a2p0 re0 rm0 nos0 ru0 dp0}{unsigned-char fixed} := 0x0 {const-unsigned-char literal}
                                           ;	.line	28; "interrupt.c"	g_ucTimer10msCount = 0;
00001d   18a8     clrf    0x28             	CLRF	_g_ucTimer10msCount
                                           ;;[ICODE] interrupt.c:29: 	iTemp16 [k27 lr25:27 so:0]{ ia0 a2p0 re0 rm1 nos0 ru0 dp0}{unsigned-bitfield {0,1} near* fixed}[remat] = &[_BITS_DATA0 [k24 lr0:0 so:0]{ ia0 a2p0 re0 rm0 nos0 ru0 dp0}{struct __bits8_t fixed} , 0x0 {const-unsigned-char literal}]
                                           ;;[ICODE] interrupt.c:29: 	*(iTemp16 [k27 lr25:27 so:0]{ ia1 a2p0 re0 rm1 nos0 ru0 dp0}{unsigned-bitfield {0,1} near* fixed}[remat]) := 0x1 {const-unsigned-char literal}
                                           ;	.line	29; "interrupt.c"	BIT_TIMER_10MS = 1;
00001e   3827     bsf     0x27, 0x0        	BSF	_BITS_DATA0,0
                                           ;;[ICODE] interrupt.c:29:  _return($7) :
                                           ;;[ICODE] interrupt.c:29: 	eproc _InterruptFunc [k1 lr0:0 so:0]{ ia0 a2p0 re0 rm0 nos0 ru0 dp0}{void function ( ) fixed}
                                           _00111_DS_:
00001f   113a     movf    0x3a, 0x0        	MOVF	___sdcc_saved_fsr,W
                                           	BANKSEL	FSR
000020   1984     movwf   0x04             	MOVWF	FSR
000021   1110     movf    0x10, 0x0        	MOVF	PSAVE,W
000022   198a     movwf   0x0a             	MOVWF	PCLATH
000023   1883     clrf    0x03             	CLRF	STATUS
000024   1711     swapf   0x11, 0x0        	SWAPF	SSAVE,W
000025   1983     movwf   0x03             	MOVWF	STATUS
000026   1792     swapf   0x12, 0x1        	SWAPF	WSAVE,F
000027   1712     swapf   0x12, 0x0        	SWAPF	WSAVE,W
                                           END_OF_INTERRUPT:
000028   0001     retfie                   	RETFIE	

                                           ;--------------------------------------------------------
                                           ; code
                                           ;--------------------------------------------------------
                                           code_interrupt	code

                                           ;	code size estimation:
                                           ;	   33+    2 =    35 instructions (   74 byte)

                                           	end
                                           ;--------------------------------------------------------
                                           ; File Created by SDCC : free open source ANSI-C Compiler
                                           ; Version 3.6.0 #9615 (CYGWIN)
                                           ;--------------------------------------------------------
                                           ; PIC port for the 14-bit core
                                           ;--------------------------------------------------------
                                           ;	.file	"key.c"
                                           	list	p=18p018a0
                                           	radix dec
                                           	include "p18p018a0.inc"
                                                  LIST

                                           ;==========================================================================
                                           ; Build date : Jun 02 2017
                                           ;  HCIDE HC18P018A0 processor include
                                           ; 
                                           ;  (c) Copyright 2012-2021 Holychip Technology, All rights reserved
                                           ;==========================================================================

                                                   NOLIST
                                           ;--------------------------------------------------------
                                           ; external declarations
                                           ;--------------------------------------------------------
                                           	extern	_ControlLevelLow
                                           	extern	_ControlLevelHigh
                                           	extern	_ControlLevel
                                           	extern	_ControlFlash
                                           	extern	_ControlSos
                                           	extern	_LedDisplay
                                           	extern	_LedOn
                                           	extern	_LedOff
                                           	extern	_MotoDisplay
                                           	extern	_LedSwitch
                                           	extern	_MotoSwitch
                                           	extern	_PowOn
                                           	extern	_PowOff
                                           	extern	_STATUSbits
                                           	extern	_PORTBbits
                                           	extern	_PCONbits
                                           	extern	_IOCBbits
                                           	extern	_PDCONbits
                                           	extern	_ODCONbits
                                           	extern	_PHCONbits
                                           	extern	_INTECONbits
                                           	extern	_INTFLAGbits
                                           	extern	_OPTIONbits
                                           	extern	_TRISBbits
                                           	extern	_PWMCONbits
                                           	extern	_T0CRbits
                                           	extern	_T1CONbits
                                           	extern	_OSCCONbits
                                           	extern	_CMPCRbits
                                           	extern	_PDCON1bits
                                           	extern	_CHARGE0bits
                                           	extern	_CHARGE1bits
                                           	extern	_RAMPbits
                                           	extern	_AUXRbits
                                           	extern	_BITS_DATA0
                                           	extern	_BITS_DATA1
                                           	extern	_g_ucTimer10msCount
                                           	extern	_g_ucTimerWorkCount
                                           	extern	_g_ucFlashTimeHigh
                                           	extern	_g_ucFlashTimeLow
                                           	extern	_g_ucFlashTimeHigh1
                                           	extern	_g_ucFlashTimeLow1
                                           	extern	_g_ucFlashTimeHigh2
                                           	extern	_g_ucFlashTimeLow2
                                           	extern	_LvdModel
                                           	extern	_LvdDebounceNew
                                           	extern	_LvdDebounceOld
                                           	extern	_LvdModelCount
                                           	extern	_LvdLightCount
                                           	extern	_TempCount
                                           	extern	_TempFlag
                                           	extern	_SleepCount
                                           	extern	_SleepFlag
                                           	extern	_MaxLight
                                           	extern	_g_cucTIMER_COUNT_STATE
                                           	extern	_INDF
                                           	extern	_T0
                                           	extern	_PCL
                                           	extern	_STATUS
                                           	extern	_FSR
                                           	extern	_PORTB
                                           	extern	_GPR
                                           	extern	_PCON
                                           	extern	_IOCB
                                           	extern	_PCLATH
                                           	extern	_PDCON
                                           	extern	_ODCON
                                           	extern	_PHCON
                                           	extern	_INTECON
                                           	extern	_INTFLAG
                                           	extern	_OPTION
                                           	extern	_TRISB
                                           	extern	_PWMCON
                                           	extern	_PWM1P
                                           	extern	_PWM2P
                                           	extern	_T0CR
                                           	extern	_T1CON
                                           	extern	_T1
                                           	extern	_T1LOAD
                                           	extern	_PWM0P
                                           	extern	_OSCCON
                                           	extern	_CMPCR
                                           	extern	_PDCON1
                                           	extern	_CHARGE0
                                           	extern	_CHARGE1
                                           	extern	_RAMP
                                           	extern	_AUXR
                                           	extern	_HIRCTRM

                                           	extern PSAVE
                                           	extern SSAVE
                                           	extern WSAVE
                                           	extern STK12
                                           	extern STK11
                                           	extern STK10
                                           	extern STK09
                                           	extern STK08
                                           	extern STK07
                                           	extern STK06
                                           	extern STK05
                                           	extern STK04
                                           	extern STK03
                                           	extern STK02
                                           	extern STK01
                                           	extern STK00
                                           ;--------------------------------------------------------
                                           ; global declarations
                                           ;--------------------------------------------------------
                                           	global	_ScanKey
                                           	global	_test_turn
                                           	global	_longpress_cnt
                                           	global	_clink_event
                                           	global	_long_f
                                           	global	_turn

                                           ;--------------------------------------------------------
                                           ; global definitions
                                           ;--------------------------------------------------------
                                           ;--------------------------------------------------------
                                           ; absolute symbol definitions
                                           ;--------------------------------------------------------
                                           ;--------------------------------------------------------
                                           ; compiler-defined variables
                                           ;--------------------------------------------------------
                                           UDL_key_0	udata
                                           r0x1006	res	1
                                           r0x1007	res	1
                                           ;--------------------------------------------------------
                                           ; initialized data
                                           ;--------------------------------------------------------

                                           ID_key_0	idata
                                           _longpress_cnt
                                           	db	0x00, 0x00


                                           ID_key_1	idata
                                           _clink_event
                                           	db	0x00


                                           ID_key_2	idata
                                           _long_f
                                           	db	0x00


                                           ID_key_3	idata
                                           _turn
                                           	db	0x00

                                           ;--------------------------------------------------------
                                           ; overlayable items in internal ram 
                                           ;--------------------------------------------------------
                                           ;	udata_ovr
                                           ;--------------------------------------------------------
                                           ; code
                                           ;--------------------------------------------------------
                                           code_key	code
                                           ;***
                                           ;  pBlock Stats: dbName = C
                                           ;***
                                           ;has an exit
                                           ;functions called:
                                           ;   _PowOn
                                           ;   _PowOff
                                           ;   _PowOn
                                           ;   _PowOff
                                           ;; Starting pCode block
                                           ;;[ICODE] key.c:87:  _entry($5) :
                                           ;;[ICODE] key.c:87: 	proc _test_turn [k1 lr0:0 so:0]{ ia0 a2p0 re0 rm0 nos0 ru0 dp0}{void function ( ) fixed}
                                           S_key__test_turn	code
                                           _test_turn:
                                           ; 2 exit points
                                           ;;[ICODE] key.c:90: 	if _turn [k2 lr0:0 so:0]{ ia0 a2p0 re0 rm0 nos0 ru0 dp0}{unsigned-char fixed} == 0 goto __iffalse_13($2)
                                           ;	.line	90; "key.c"	if(turn) {
000284   0400     movlw   0x00             	MOVLW	0x00
000285   1d26     iorwf   0x26, 0x0        	IORWF	_turn,W
000286   3503     btfsc   0x03, 0x2        	BTFSC	STATUS,2
000287   228b     goto    0x028b           	GOTO	_00191_DS_
                                           ;;[ICODE] key.c:91: 	_turn [k2 lr0:0 so:0]{ ia1 a2p0 re0 rm0 nos0 ru0 dp0}{unsigned-char fixed} := 0x0 {const-unsigned-char literal}
                                           ;	.line	91; "key.c"	turn = 0;
000288   18a6     clrf    0x26             	CLRF	_turn
                                           ;;[ICODE] key.c:92: 	iTemp1 [k5 lr5:5 so:0]{ ia0 a2p0 re0 rm0 nos0 ru0 dp0}{void fixed} = call _PowOn [k4 lr0:0 so:0]{ ia0 a2p0 re0 rm0 nos0 ru0 dp0}{void function ( ) fixed}
                                           ;	.line	92; "key.c"	PowOn();
000289   2ae8     call    0x02e8           	CALL	_PowOn
                                           ;;[ICODE] key.c:92: 	 goto _return($4)
00028a   228e     goto    0x028e           	GOTO	_00193_DS_
                                           ;;[ICODE] key.c:92:  __iffalse_13($2) :
                                           ;;[ICODE] key.c:94: 	_turn [k2 lr0:0 so:0]{ ia1 a2p0 re0 rm0 nos0 ru0 dp0}{unsigned-char fixed} := 0x1 {const-unsigned-char literal}
                                           _00191_DS_:
                                           ;	.line	94; "key.c"	turn = 1;
00028b   0401     movlw   0x01             	MOVLW	0x01
00028c   19a6     movwf   0x26             	MOVWF	_turn
                                           ;;[ICODE] key.c:95: 	iTemp3 [k8 lr9:9 so:0]{ ia0 a2p0 re0 rm0 nos0 ru0 dp0}{void fixed} = call _PowOff [k7 lr0:0 so:0]{ ia0 a2p0 re0 rm0 nos0 ru0 dp0}{void function ( ) fixed}
                                           ;	.line	95; "key.c"	PowOff();
00028d   2ae5     call    0x02e5           	CALL	_PowOff
                                           ;;[ICODE] key.c:95:  _return($4) :
                                           ;;[ICODE] key.c:95: 	eproc _test_turn [k1 lr0:0 so:0]{ ia0 a2p0 re0 rm0 nos0 ru0 dp0}{void function ( ) fixed}
                                           _00193_DS_:
00028e   0002     return                   	RETURN	
                                           ; exit point of _test_turn

                                           ;***
                                           ;  pBlock Stats: dbName = C
                                           ;***
                                           ;has an exit
                                           ;functions called:
                                           ;   _MotoSwitch
                                           ;   _LedSwitch
                                           ;   _MotoSwitch
                                           ;   _LedSwitch
                                           ;2 compiler assigned registers:
                                           ;   r0x1006
                                           ;   r0x1007
                                           ;; Starting pCode block
                                           ;;[ICODE] key.c:11:  _entry($36) :
                                           ;;[ICODE] key.c:11: 	proc _ScanKey [k1 lr0:0 so:0]{ ia0 a2p0 re0 rm0 nos0 ru0 dp0}{void function ( ) fixed}
                                           S_key__ScanKey	code
                                           _ScanKey:
                                           ; 2 exit points
                                           ;;[ICODE] key.c:14: 	iTemp1 [k5 lr3:5 so:0]{ ia0 a2p0 re0 rm1 nos0 ru0 dp0}{volatile-unsigned-bitfield {2,1} near* fixed}[remat] = &[_PORTBbits [k2 lr0:0 so:0]{ ia0 a2p0 re0 rm0 nos0 ru0 dp0}{volatile-struct __00000005 fixed} , 0x0 {const-unsigned-char literal}]
                                           ;;[ICODE] key.c:14: 	iTemp2 [k6 lr5:6 so:0]{ ia0 a2p0 re0 rm0 nos0 ru0 dp0}{volatile-unsigned-bitfield {2,1} fixed}[r0x1049 ] = @[iTemp1 [k5 lr3:5 so:0]{ ia1 a2p0 re0 rm1 nos0 ru0 dp0}{volatile-unsigned-bitfield {2,1} near* fixed}[remat] + 0x0 {const-unsigned-char literal}]
                                           ;	.line	14; "key.c"	if(PORT_KEY_1 == 0 || PORT_KEY_2 == 0 || PORT_KEY_3 == 1 )
0000af   3106     btfss   0x06, 0x2        	BTFSS	_PORTBbits,2
0000b0   20bb     goto    0x00bb           	GOTO	_00134_DS_
                                           ;;[ICODE] key.c:14: 	if iTemp2 [k6 lr5:6 so:0]{ ia0 a2p0 re0 rm0 nos0 ru0 dp0}{volatile-unsigned-bitfield {2,1} fixed}[r0x1049 ] == 0 goto __iftrue_12($30)
                                           ;;[ICODE] key.c:14: 	iTemp4 [k9 lr7:9 so:0]{ ia0 a2p0 re0 rm1 nos0 ru0 dp0}{volatile-unsigned-bitfield {4,1} near* fixed}[remat] = &[_PORTBbits [k2 lr0:0 so:0]{ ia0 a2p0 re0 rm0 nos0 ru0 dp0}{volatile-struct __00000005 fixed} , 0x0 {const-unsigned-char literal}]
                                           ;;[ICODE] key.c:14: 	iTemp5 [k10 lr9:10 so:0]{ ia0 a2p0 re0 rm0 nos0 ru0 dp0}{volatile-unsigned-bitfield {4,1} fixed}[r0x1049 ] = @[iTemp4 [k9 lr7:9 so:0]{ ia1 a2p0 re0 rm1 nos0 ru0 dp0}{volatile-unsigned-bitfield {4,1} near* fixed}[remat] + 0x0 {const-unsigned-char literal}]
0000b1   3206     btfss   0x06, 0x4        	BTFSS	_PORTBbits,4
0000b2   20bb     goto    0x00bb           	GOTO	_00134_DS_
                                           ;;[ICODE] key.c:14: 	if iTemp5 [k10 lr9:10 so:0]{ ia0 a2p0 re0 rm0 nos0 ru0 dp0}{volatile-unsigned-bitfield {4,1} fixed}[r0x1049 ] == 0 goto __iftrue_12($30)
                                           ;;[ICODE] key.c:14: 	iTemp7 [k13 lr11:13 so:0]{ ia0 a2p0 re0 rm1 nos0 ru0 dp0}{volatile-unsigned-bitfield {5,1} near* fixed}[remat] = &[_PORTBbits [k2 lr0:0 so:0]{ ia0 a2p0 re0 rm0 nos0 ru0 dp0}{volatile-struct __00000005 fixed} , 0x0 {const-unsigned-char literal}]
                                           ;;[ICODE] key.c:14: 	iTemp8 [k14 lr13:14 so:0]{ ia0 a2p0 re0 rm0 nos0 ru0 dp0}{volatile-unsigned-bitfield {5,1} fixed}[r0x1049 ] = @[iTemp7 [k13 lr11:13 so:0]{ ia1 a2p0 re0 rm1 nos0 ru0 dp0}{volatile-unsigned-bitfield {5,1} near* fixed}[remat] + 0x0 {const-unsigned-char literal}]
0000b3   18ec     clrf    0x6c             	CLRF	r0x1006
0000b4   3686     btfsc   0x06, 0x5        	BTFSC	_PORTBbits,5
0000b5   13ec     incf    0x6c, 0x1        	INCF	r0x1006,F
                                           ;;[ICODE] key.c:14: 	iTemp9 [k15 lr14:15 so:0]{ ia0 a2p0 re0 rm0 nos0 ru0 dp0}{char fixed}[r0x104A ] = (char register)iTemp8 [k14 lr13:14 so:0]{ ia0 a2p0 re0 rm0 nos0 ru0 dp0}{volatile-unsigned-bitfield {5,1} fixed}[r0x1049 ]
0000b6   116c     movf    0x6c, 0x0        	MOVF	r0x1006,W
0000b7   19ed     movwf   0x6d             	MOVWF	r0x1007
0000b8   0d01     xorlw   0x01             	XORLW	0x01
0000b9   3103     btfss   0x03, 0x2        	BTFSS	STATUS,2
0000ba   20f7     goto    0x00f7           	GOTO	_00135_DS_
                                           ;;[ICODE] key.c:14: 	if iTemp10 [k16 lr15:16 so:0]{ ia0 a2p0 re0 rm0 nos0 ru0 dp0}{char fixed} == 0 goto __iffalse_12($31)
                                           ;;[ICODE] key.c:14:  __iftrue_12($30) :
                                           ;;[ICODE] key.c:17: 	iTemp11 [k18 lr18:19 so:0]{ ia0 a2p0 re0 rm0 nos0 ru0 dp0}{char fixed} = _longpress_cnt [k17 lr0:0 so:0]{ ia0 a2p0 re0 rm0 nos0 ru0 dp0}{unsigned-int fixed} < 0xffff {const-unsigned-int literal}
                                           ;;unsigned compare: left < lit(0xFFFF=65535), size=2
                                           _00134_DS_:
                                           ;	.line	17; "key.c"	if(longpress_cnt < 0xffff) {
0000bb   04ff     movlw   0xff             	MOVLW	0xff
0000bc   1b6f     subwf   0x6f, 0x0        	SUBWF	(_longpress_cnt + 1),W
0000bd   3103     btfss   0x03, 0x2        	BTFSS	STATUS,2
0000be   20c1     goto    0x00c1           	GOTO	_00183_DS_
0000bf   04ff     movlw   0xff             	MOVLW	0xff
0000c0   1b6e     subwf   0x6e, 0x0        	SUBWF	_longpress_cnt,W
                                           _00183_DS_:
0000c1   3403     btfsc   0x03, 0x0        	BTFSC	STATUS,0
0000c2   20c6     goto    0x00c6           	GOTO	_00106_DS_
                                           ;;genSkipc:3257: created from rifx:0x782c44
                                           ;;[ICODE] key.c:17: 	if iTemp11 [k18 lr18:19 so:0]{ ia0 a2p0 re0 rm0 nos0 ru0 dp0}{char fixed} == 0 goto __iffalse_0($2)
                                           ;;[ICODE] key.c:18: 	_longpress_cnt [k17 lr0:0 so:0]{ ia1 a2p0 re0 rm0 nos0 ru0 dp0}{unsigned-int fixed} = _longpress_cnt [k17 lr0:0 so:0]{ ia1 a2p0 re0 rm0 nos0 ru0 dp0}{unsigned-int fixed} + 0x1 {const-unsigned-char literal}
                                           ;	.line	18; "key.c"	longpress_cnt++;
0000c3   13ee     incf    0x6e, 0x1        	INCF	_longpress_cnt,F
0000c4   3503     btfsc   0x03, 0x2        	BTFSC	STATUS,2
0000c5   13ef     incf    0x6f, 0x1        	INCF	(_longpress_cnt + 1),F
                                           ;;[ICODE] key.c:18:  __iffalse_0($2) :
                                           ;;[ICODE] key.c:21: 	iTemp15 [k22 lr23:24 so:0]{ ia0 a2p0 re0 rm0 nos0 ru0 dp0}{char fixed} = _longpress_cnt [k17 lr0:0 so:0]{ ia0 a2p0 re0 rm0 nos0 ru0 dp0}{unsigned-int fixed} < 0x32 {unsigned-int literal}
                                           ;;unsigned compare: left < lit(0x32=50), size=2
                                           _00106_DS_:
                                           ;	.line	21; "key.c"	if(longpress_cnt < 50){
0000c6   0400     movlw   0x00             	MOVLW	0x00
0000c7   1b6f     subwf   0x6f, 0x0        	SUBWF	(_longpress_cnt + 1),W
0000c8   3103     btfss   0x03, 0x2        	BTFSS	STATUS,2
0000c9   20cc     goto    0x00cc           	GOTO	_00184_DS_
0000ca   0432     movlw   0x32             	MOVLW	0x32
0000cb   1b6e     subwf   0x6e, 0x0        	SUBWF	_longpress_cnt,W
                                           _00184_DS_:
0000cc   3403     btfsc   0x03, 0x0        	BTFSC	STATUS,0
0000cd   20e2     goto    0x00e2           	GOTO	_00116_DS_
                                           ;;genSkipc:3257: created from rifx:0x782c44
                                           ;;[ICODE] key.c:21: 	if iTemp15 [k22 lr23:24 so:0]{ ia0 a2p0 re0 rm0 nos0 ru0 dp0}{char fixed} == 0 goto __iffalse_4($12)
                                           ;;[ICODE] key.c:24: 	iTemp17 [k25 lr25:27 so:0]{ ia0 a2p0 re0 rm1 nos0 ru0 dp0}{volatile-unsigned-bitfield {2,1} near* fixed}[remat] = &[_PORTBbits [k2 lr0:0 so:0]{ ia0 a2p0 re0 rm0 nos0 ru0 dp0}{volatile-struct __00000005 fixed} , 0x0 {const-unsigned-char literal}]
                                           ;;[ICODE] key.c:24: 	iTemp18 [k26 lr27:28 so:0]{ ia0 a2p0 re0 rm0 nos0 ru0 dp0}{volatile-unsigned-bitfield {2,1} fixed}[r0x1049 ] = @[iTemp17 [k25 lr25:27 so:0]{ ia1 a2p0 re0 rm1 nos0 ru0 dp0}{volatile-unsigned-bitfield {2,1} near* fixed}[remat] + 0x0 {const-unsigned-char literal}]
                                           ;	.line	24; "key.c"	if(PORT_KEY_1 == 0) {
0000ce   3506     btfsc   0x06, 0x2        	BTFSC	_PORTBbits,2
0000cf   20d3     goto    0x00d3           	GOTO	_00113_DS_
                                           ;;[ICODE] key.c:24: 	if iTemp18 [k26 lr27:28 so:0]{ ia0 a2p0 re0 rm0 nos0 ru0 dp0}{volatile-unsigned-bitfield {2,1} fixed}[r0x1049 ] != 0 goto __iffalse_3($9)
                                           ;;[ICODE] key.c:26: 	_clink_event [k27 lr0:0 so:0]{ ia1 a2p0 re0 rm0 nos0 ru0 dp0}{unsigned-char fixed} := 0x1 {const-unsigned-char literal}
                                           ;	.line	26; "key.c"	clink_event = 1;
0000d0   0401     movlw   0x01             	MOVLW	0x01
0000d1   19a4     movwf   0x24             	MOVWF	_clink_event
                                           ;;[ICODE] key.c:26: 	 goto __iffalse_4($12)
0000d2   20e2     goto    0x00e2           	GOTO	_00116_DS_
                                           ;;[ICODE] key.c:26:  __iffalse_3($9) :
                                           ;;[ICODE] key.c:28: 	iTemp21 [k31 lr32:34 so:0]{ ia0 a2p0 re0 rm1 nos0 ru0 dp0}{volatile-unsigned-bitfield {4,1} near* fixed}[remat] = &[_PORTBbits [k2 lr0:0 so:0]{ ia0 a2p0 re0 rm0 nos0 ru0 dp0}{volatile-struct __00000005 fixed} , 0x0 {const-unsigned-char literal}]
                                           ;;[ICODE] key.c:28: 	iTemp22 [k32 lr34:35 so:0]{ ia0 a2p0 re0 rm0 nos0 ru0 dp0}{volatile-unsigned-bitfield {4,1} fixed}[r0x1049 ] = @[iTemp21 [k31 lr32:34 so:0]{ ia1 a2p0 re0 rm1 nos0 ru0 dp0}{volatile-unsigned-bitfield {4,1} near* fixed}[remat] + 0x0 {const-unsigned-char literal}]
                                           _00113_DS_:
                                           ;	.line	28; "key.c"	} else if(PORT_KEY_2 == 0) {
0000d3   3606     btfsc   0x06, 0x4        	BTFSC	_PORTBbits,4
0000d4   20d8     goto    0x00d8           	GOTO	_00110_DS_
                                           ;;[ICODE] key.c:28: 	if iTemp22 [k32 lr34:35 so:0]{ ia0 a2p0 re0 rm0 nos0 ru0 dp0}{volatile-unsigned-bitfield {4,1} fixed}[r0x1049 ] != 0 goto __iffalse_2($6)
                                           ;;[ICODE] key.c:30: 	_clink_event [k27 lr0:0 so:0]{ ia1 a2p0 re0 rm0 nos0 ru0 dp0}{unsigned-char fixed} := 0x2 {const-unsigned-char literal}
                                           ;	.line	30; "key.c"	clink_event = 2;
0000d5   0402     movlw   0x02             	MOVLW	0x02
0000d6   19a4     movwf   0x24             	MOVWF	_clink_event
                                           ;;[ICODE] key.c:30: 	 goto __iffalse_4($12)
0000d7   20e2     goto    0x00e2           	GOTO	_00116_DS_
                                           ;;[ICODE] key.c:30:  __iffalse_2($6) :
                                           ;;[ICODE] key.c:32: 	iTemp25 [k36 lr39:41 so:0]{ ia0 a2p0 re0 rm1 nos0 ru0 dp0}{volatile-unsigned-bitfield {5,1} near* fixed}[remat] = &[_PORTBbits [k2 lr0:0 so:0]{ ia0 a2p0 re0 rm0 nos0 ru0 dp0}{volatile-struct __00000005 fixed} , 0x0 {const-unsigned-char literal}]
                                           ;;[ICODE] key.c:32: 	iTemp26 [k37 lr41:42 so:0]{ ia0 a2p0 re0 rm0 nos0 ru0 dp0}{volatile-unsigned-bitfield {5,1} fixed}[r0x1049 ] = @[iTemp25 [k36 lr39:41 so:0]{ ia1 a2p0 re0 rm1 nos0 ru0 dp0}{volatile-unsigned-bitfield {5,1} near* fixed}[remat] + 0x0 {const-unsigned-char literal}]
                                           _00110_DS_:
                                           ;	.line	32; "key.c"	} else if(PORT_KEY_3 == 1) {
0000d8   18ec     clrf    0x6c             	CLRF	r0x1006
0000d9   3686     btfsc   0x06, 0x5        	BTFSC	_PORTBbits,5
0000da   13ec     incf    0x6c, 0x1        	INCF	r0x1006,F
                                           ;;[ICODE] key.c:32: 	iTemp27 [k38 lr42:43 so:0]{ ia0 a2p0 re0 rm0 nos0 ru0 dp0}{char fixed}[r0x104A ] = (char register)iTemp26 [k37 lr41:42 so:0]{ ia0 a2p0 re0 rm0 nos0 ru0 dp0}{volatile-unsigned-bitfield {5,1} fixed}[r0x1049 ]
0000db   116c     movf    0x6c, 0x0        	MOVF	r0x1006,W
0000dc   19ed     movwf   0x6d             	MOVWF	r0x1007
0000dd   0d01     xorlw   0x01             	XORLW	0x01
0000de   3103     btfss   0x03, 0x2        	BTFSS	STATUS,2
0000df   20e2     goto    0x00e2           	GOTO	_00116_DS_
                                           ;;[ICODE] key.c:32: 	if iTemp28 [k39 lr43:44 so:0]{ ia0 a2p0 re0 rm0 nos0 ru0 dp0}{char fixed} == 0 goto __iffalse_4($12)
                                           ;;[ICODE] key.c:34: 	_clink_event [k27 lr0:0 so:0]{ ia1 a2p0 re0 rm0 nos0 ru0 dp0}{unsigned-char fixed} := 0x3 {const-unsigned-char literal}
                                           ;	.line	34; "key.c"	clink_event = 3;
0000e0   0403     movlw   0x03             	MOVLW	0x03
0000e1   19a4     movwf   0x24             	MOVWF	_clink_event
                                           ;;[ICODE] key.c:34:  __iffalse_4($12) :
                                           ;;[ICODE] key.c:41: 	iTemp30 [k41 lr47:48 so:0]{ ia0 a2p0 re0 rm0 nos0 ru0 dp0}{bit fixed} = _longpress_cnt [k17 lr0:0 so:0]{ ia0 a2p0 re0 rm0 nos0 ru0 dp0}{unsigned-int fixed} < 0x64 {unsigned-int literal}
                                           ;;unsigned compare: left < lit(0x64=100), size=2
                                           _00116_DS_:
                                           ;	.line	41; "key.c"	if(longpress_cnt >= 100){
0000e2   0400     movlw   0x00             	MOVLW	0x00
0000e3   1b6f     subwf   0x6f, 0x0        	SUBWF	(_longpress_cnt + 1),W
0000e4   3103     btfss   0x03, 0x2        	BTFSS	STATUS,2
0000e5   20e8     goto    0x00e8           	GOTO	_00185_DS_
0000e6   0464     movlw   0x64             	MOVLW	0x64
0000e7   1b6e     subwf   0x6e, 0x0        	SUBWF	_longpress_cnt,W
                                           _00185_DS_:
0000e8   3003     btfss   0x03, 0x0        	BTFSS	STATUS,0
0000e9   2117     goto    0x0117           	GOTO	_00139_DS_
                                           ;;genSkipc:3257: created from rifx:0x782c44
                                           ;;[ICODE] key.c:41: 	if iTemp30 [k41 lr47:48 so:0]{ ia0 a2p0 re0 rm0 nos0 ru0 dp0}{bit fixed} != 0 goto _return($35)
                                           ;;[ICODE] key.c:43: 	_clink_event [k27 lr0:0 so:0]{ ia1 a2p0 re0 rm0 nos0 ru0 dp0}{unsigned-char fixed} := 0x0 {const-unsigned-char literal}
                                           ;	.line	43; "key.c"	clink_event = 0;
0000ea   18a4     clrf    0x24             	CLRF	_clink_event
                                           ;;[ICODE] key.c:45: 	iTemp33 [k45 lr50:52 so:0]{ ia0 a2p0 re0 rm1 nos0 ru0 dp0}{volatile-unsigned-bitfield {5,1} near* fixed}[remat] = &[_PORTBbits [k2 lr0:0 so:0]{ ia0 a2p0 re0 rm0 nos0 ru0 dp0}{volatile-struct __00000005 fixed} , 0x0 {const-unsigned-char literal}]
                                           ;;[ICODE] key.c:45: 	iTemp34 [k46 lr52:53 so:0]{ ia0 a2p0 re0 rm0 nos0 ru0 dp0}{volatile-unsigned-bitfield {5,1} fixed}[r0x1049 ] = @[iTemp33 [k45 lr50:52 so:0]{ ia1 a2p0 re0 rm1 nos0 ru0 dp0}{volatile-unsigned-bitfield {5,1} near* fixed}[remat] + 0x0 {const-unsigned-char literal}]
                                           ;	.line	45; "key.c"	if(PORT_KEY_3 == 1){
0000eb   18ec     clrf    0x6c             	CLRF	r0x1006
0000ec   3686     btfsc   0x06, 0x5        	BTFSC	_PORTBbits,5
0000ed   13ec     incf    0x6c, 0x1        	INCF	r0x1006,F
                                           ;;[ICODE] key.c:45: 	iTemp35 [k47 lr53:54 so:0]{ ia0 a2p0 re0 rm0 nos0 ru0 dp0}{char fixed}[r0x104A ] = (char register)iTemp34 [k46 lr52:53 so:0]{ ia0 a2p0 re0 rm0 nos0 ru0 dp0}{volatile-unsigned-bitfield {5,1} fixed}[r0x1049 ]
0000ee   116c     movf    0x6c, 0x0        	MOVF	r0x1006,W
0000ef   19ed     movwf   0x6d             	MOVWF	r0x1007
0000f0   0d01     xorlw   0x01             	XORLW	0x01
0000f1   3103     btfss   0x03, 0x2        	BTFSS	STATUS,2
0000f2   2117     goto    0x0117           	GOTO	_00139_DS_
                                           ;;[ICODE] key.c:45: 	if iTemp36 [k48 lr54:55 so:0]{ ia0 a2p0 re0 rm0 nos0 ru0 dp0}{char fixed} == 0 goto _return($35)
                                           ;;[ICODE] key.c:46: 	_long_f [k49 lr0:0 so:0]{ ia1 a2p0 re0 rm0 nos0 ru0 dp0}{unsigned-char fixed} := 0x1 {const-unsigned-char literal}
                                           ;	.line	46; "key.c"	long_f = 1;
0000f3   0401     movlw   0x01             	MOVLW	0x01
0000f4   19a5     movwf   0x25             	MOVWF	_long_f
                                           ;;[ICODE] key.c:48: 	_g_ucTimerWorkCount [k51 lr0:0 so:0]{ ia1 a2p0 re0 rm0 nos0 ru0 dp0}{unsigned-char fixed} = _g_ucTimerWorkCount [k51 lr0:0 so:0]{ ia1 a2p0 re0 rm0 nos0 ru0 dp0}{unsigned-char fixed} + 0x1 {const-unsigned-char literal}
                                           ;	.line	48; "key.c"	g_ucTimerWorkCount++;  //10ms
0000f5   13a9     incf    0x29, 0x1        	INCF	_g_ucTimerWorkCount,F
                                           ;;[ICODE] key.c:48: 	 goto _return($35)
0000f6   2117     goto    0x0117           	GOTO	_00139_DS_
                                           ;;[ICODE] key.c:48:  __iffalse_12($31) :
                                           ;;[ICODE] key.c:56: 	_longpress_cnt [k17 lr0:0 so:0]{ ia1 a2p0 re0 rm0 nos0 ru0 dp0}{unsigned-int fixed} := 0x0 {unsigned-int literal}
                                           _00135_DS_:
                                           ;	.line	56; "key.c"	longpress_cnt = 0;
0000f7   18ee     clrf    0x6e             	CLRF	_longpress_cnt
0000f8   18ef     clrf    0x6f             	CLRF	(_longpress_cnt + 1)
                                           ;;[ICODE] key.c:58: 	iTemp42 [k56 lr62:63 so:0]{ ia0 a2p0 re0 rm0 nos0 ru0 dp0}{char fixed} = _clink_event [k27 lr0:0 so:0]{ ia0 a2p0 re0 rm0 nos0 ru0 dp0}{unsigned-char fixed} == 0x1 {const-unsigned-char literal}
                                           ;	.line	58; "key.c"	if(clink_event == 1){
0000f9   1124     movf    0x24, 0x0        	MOVF	_clink_event,W
0000fa   0d01     xorlw   0x01             	XORLW	0x01
0000fb   3103     btfss   0x03, 0x2        	BTFSS	STATUS,2
0000fc   2100     goto    0x0100           	GOTO	_00127_DS_
                                           ;;[ICODE] key.c:58: 	if iTemp42 [k56 lr62:63 so:0]{ ia0 a2p0 re0 rm0 nos0 ru0 dp0}{char fixed} == 0 goto __iffalse_9($23)
                                           ;;[ICODE] key.c:60: 	_clink_event [k27 lr0:0 so:0]{ ia1 a2p0 re0 rm0 nos0 ru0 dp0}{unsigned-char fixed} := 0x0 {const-unsigned-char literal}
                                           ;	.line	60; "key.c"	clink_event = 0;
0000fd   18a4     clrf    0x24             	CLRF	_clink_event
                                           ;;[ICODE] key.c:61: 	iTemp44 [k59 lr65:65 so:0]{ ia0 a2p0 re0 rm0 nos0 ru0 dp0}{void fixed} = call _MotoSwitch [k58 lr0:0 so:0]{ ia0 a2p0 re0 rm0 nos0 ru0 dp0}{void function ( ) fixed}
                                           ;	.line	61; "key.c"	MotoSwitch();
0000fe   2a5b     call    0x025b           	CALL	_MotoSwitch
                                           ;;[ICODE] key.c:61: 	 goto __ifend_9($24)
0000ff   210b     goto    0x010b           	GOTO	_00128_DS_
                                           ;;[ICODE] key.c:61:  __iffalse_9($23) :
                                           ;;[ICODE] key.c:62: 	iTemp45 [k60 lr68:69 so:0]{ ia0 a2p0 re0 rm0 nos0 ru0 dp0}{char fixed} = _clink_event [k27 lr0:0 so:0]{ ia0 a2p0 re0 rm0 nos0 ru0 dp0}{unsigned-char fixed} == 0x2 {const-unsigned-char literal}
                                           _00127_DS_:
                                           ;	.line	62; "key.c"	} else if(clink_event == 2){
000100   1124     movf    0x24, 0x0        	MOVF	_clink_event,W
000101   0d02     xorlw   0x02             	XORLW	0x02
000102   3103     btfss   0x03, 0x2        	BTFSS	STATUS,2
000103   2107     goto    0x0107           	GOTO	_00124_DS_
                                           ;;[ICODE] key.c:62: 	if iTemp45 [k60 lr68:69 so:0]{ ia0 a2p0 re0 rm0 nos0 ru0 dp0}{char fixed} == 0 goto __iffalse_8($20)
                                           ;;[ICODE] key.c:63: 	_clink_event [k27 lr0:0 so:0]{ ia1 a2p0 re0 rm0 nos0 ru0 dp0}{unsigned-char fixed} := 0x0 {const-unsigned-char literal}
                                           ;	.line	63; "key.c"	clink_event = 0;
000104   18a4     clrf    0x24             	CLRF	_clink_event
                                           ;;[ICODE] key.c:64: 	iTemp47 [k63 lr71:71 so:0]{ ia0 a2p0 re0 rm0 nos0 ru0 dp0}{void fixed} = call _LedSwitch [k62 lr0:0 so:0]{ ia0 a2p0 re0 rm0 nos0 ru0 dp0}{void function ( ) fixed}
                                           ;	.line	64; "key.c"	LedSwitch();
000105   2a69     call    0x0269           	CALL	_LedSwitch
                                           ;;[ICODE] key.c:64: 	 goto __ifend_9($24)
000106   210b     goto    0x010b           	GOTO	_00128_DS_
                                           ;;[ICODE] key.c:64:  __iffalse_8($20) :
                                           ;;[ICODE] key.c:66: 	iTemp48 [k64 lr74:75 so:0]{ ia0 a2p0 re0 rm0 nos0 ru0 dp0}{char fixed} = _clink_event [k27 lr0:0 so:0]{ ia0 a2p0 re0 rm0 nos0 ru0 dp0}{unsigned-char fixed} == 0x3 {const-unsigned-char literal}
                                           _00124_DS_:
                                           ;	.line	66; "key.c"	} else if(clink_event == 3){
000107   1124     movf    0x24, 0x0        	MOVF	_clink_event,W
                                           ;	.line	68; "key.c"	clink_event = 0;
000108   0d03     xorlw   0x03             	XORLW	0x03
                                           ;	.line	71; "key.c"	if(long_f){
000109   3503     btfsc   0x03, 0x2        	BTFSC	STATUS,2
00010a   18a4     clrf    0x24             	CLRF	_clink_event
                                           _00128_DS_:
00010b   0400     movlw   0x00             	MOVLW	0x00
00010c   1d25     iorwf   0x25, 0x0        	IORWF	_long_f,W
00010d   3503     btfsc   0x03, 0x2        	BTFSC	STATUS,2
00010e   2117     goto    0x0117           	GOTO	_00139_DS_
                                           ;;[ICODE] key.c:73: 	iTemp50 [k66 lr79:80 so:0]{ ia0 a2p0 re0 rm0 nos0 ru0 dp0}{char fixed} = _g_ucTimerWorkCount [k51 lr0:0 so:0]{ ia0 a2p0 re0 rm0 nos0 ru0 dp0}{unsigned-char fixed} < 0x32 {const-unsigned-char literal}
                                           ;;unsigned compare: left < lit(0x32=50), size=1
                                           ;	.line	73; "key.c"	if(g_ucTimerWorkCount <  50) {
00010f   0432     movlw   0x32             	MOVLW	0x32
000110   1b29     subwf   0x29, 0x0        	SUBWF	_g_ucTimerWorkCount,W
000111   3403     btfsc   0x03, 0x0        	BTFSC	STATUS,0
000112   2115     goto    0x0115           	GOTO	_00130_DS_
                                           ;;genSkipc:3257: created from rifx:0x782c44
                                           ;;[ICODE] key.c:73: 	if iTemp50 [k66 lr79:80 so:0]{ ia0 a2p0 re0 rm0 nos0 ru0 dp0}{char fixed} == 0 goto __iffalse_10($26)
                                           ;;[ICODE] key.c:74: 	_g_ucTimerWorkCount [k51 lr0:0 so:0]{ ia1 a2p0 re0 rm0 nos0 ru0 dp0}{unsigned-char fixed} = _g_ucTimerWorkCount [k51 lr0:0 so:0]{ ia1 a2p0 re0 rm0 nos0 ru0 dp0}{unsigned-char fixed} + 0x1 {const-unsigned-char literal}
                                           ;	.line	74; "key.c"	g_ucTimerWorkCount++;
000113   13a9     incf    0x29, 0x1        	INCF	_g_ucTimerWorkCount,F
                                           ;;[ICODE] key.c:74: 	 goto _return($35)
000114   2117     goto    0x0117           	GOTO	_00139_DS_
                                           ;;[ICODE] key.c:74:  __iffalse_10($26) :
                                           ;;[ICODE] key.c:76: 	_long_f [k49 lr0:0 so:0]{ ia1 a2p0 re0 rm0 nos0 ru0 dp0}{unsigned-char fixed} := 0x0 {const-unsigned-char literal}
                                           _00130_DS_:
                                           ;	.line	76; "key.c"	long_f = 0;
000115   18a5     clrf    0x25             	CLRF	_long_f
                                           ;;[ICODE] key.c:77: 	_g_ucTimerWorkCount [k51 lr0:0 so:0]{ ia1 a2p0 re0 rm0 nos0 ru0 dp0}{unsigned-char fixed} := 0x0 {const-unsigned-char literal}
                                           ;	.line	77; "key.c"	g_ucTimerWorkCount = 0;
000116   18a9     clrf    0x29             	CLRF	_g_ucTimerWorkCount
                                           ;;[ICODE] key.c:77:  _return($35) :
                                           ;;[ICODE] key.c:77: 	eproc _ScanKey [k1 lr0:0 so:0]{ ia0 a2p0 re0 rm0 nos0 ru0 dp0}{void function ( ) fixed}
                                           _00139_DS_:
000117   0002     return                   	RETURN	
                                           ; exit point of _ScanKey


                                           ;	code size estimation:
                                           ;	  116+    0 =   116 instructions (  232 byte)

                                           	end
                                           ;--------------------------------------------------------
                                           ; File Created by SDCC : free open source ANSI-C Compiler
                                           ; Version 3.6.0 #9615 (CYGWIN)
                                           ;--------------------------------------------------------
                                           ; PIC port for the 14-bit core
                                           ;--------------------------------------------------------
                                           ;	.file	"led.c"
                                           	list	p=18p018a0
                                           	radix dec
                                           	include "p18p018a0.inc"
                                                  LIST

                                           ;==========================================================================
                                           ; Build date : Jun 02 2017
                                           ;  HCIDE HC18P018A0 processor include
                                           ; 
                                           ;  (c) Copyright 2012-2021 Holychip Technology, All rights reserved
                                           ;==========================================================================

                                                   NOLIST
                                           ;--------------------------------------------------------
                                           ; external declarations
                                           ;--------------------------------------------------------
                                           	extern	_InitPort
                                           	extern	_InitSystem
                                           	extern	_InitPwm
                                           	extern	_InitRam
                                           	extern	_STATUSbits
                                           	extern	_PORTBbits
                                           	extern	_PCONbits
                                           	extern	_IOCBbits
                                           	extern	_PDCONbits
                                           	extern	_ODCONbits
                                           	extern	_PHCONbits
                                           	extern	_INTECONbits
                                           	extern	_INTFLAGbits
                                           	extern	_OPTIONbits
                                           	extern	_TRISBbits
                                           	extern	_PWMCONbits
                                           	extern	_T0CRbits
                                           	extern	_T1CONbits
                                           	extern	_OSCCONbits
                                           	extern	_CMPCRbits
                                           	extern	_PDCON1bits
                                           	extern	_CHARGE0bits
                                           	extern	_CHARGE1bits
                                           	extern	_RAMPbits
                                           	extern	_AUXRbits
                                           	extern	_BITS_DATA0
                                           	extern	_BITS_DATA1
                                           	extern	_g_ucTimer10msCount
                                           	extern	_g_ucTimerWorkCount
                                           	extern	_g_ucFlashTimeHigh
                                           	extern	_g_ucFlashTimeLow
                                           	extern	_g_ucFlashTimeHigh1
                                           	extern	_g_ucFlashTimeLow1
                                           	extern	_g_ucFlashTimeHigh2
                                           	extern	_g_ucFlashTimeLow2
                                           	extern	_LvdModel
                                           	extern	_LvdDebounceNew
                                           	extern	_LvdDebounceOld
                                           	extern	_LvdModelCount
                                           	extern	_LvdLightCount
                                           	extern	_TempCount
                                           	extern	_TempFlag
                                           	extern	_SleepCount
                                           	extern	_SleepFlag
                                           	extern	_MaxLight
                                           	extern	_g_cucTIMER_COUNT_STATE
                                           	extern	_INDF
                                           	extern	_T0
                                           	extern	_PCL
                                           	extern	_STATUS
                                           	extern	_FSR
                                           	extern	_PORTB
                                           	extern	_GPR
                                           	extern	_PCON
                                           	extern	_IOCB
                                           	extern	_PCLATH
                                           	extern	_PDCON
                                           	extern	_ODCON
                                           	extern	_PHCON
                                           	extern	_INTECON
                                           	extern	_INTFLAG
                                           	extern	_OPTION
                                           	extern	_TRISB
                                           	extern	_PWMCON
                                           	extern	_PWM1P
                                           	extern	_PWM2P
                                           	extern	_T0CR
                                           	extern	_T1CON
                                           	extern	_T1
                                           	extern	_T1LOAD
                                           	extern	_PWM0P
                                           	extern	_OSCCON
                                           	extern	_CMPCR
                                           	extern	_PDCON1
                                           	extern	_CHARGE0
                                           	extern	_CHARGE1
                                           	extern	_RAMP
                                           	extern	_AUXR
                                           	extern	_HIRCTRM

                                           	extern PSAVE
                                           	extern SSAVE
                                           	extern WSAVE
                                           	extern STK12
                                           	extern STK11
                                           	extern STK10
                                           	extern STK09
                                           	extern STK08
                                           	extern STK07
                                           	extern STK06
                                           	extern STK05
                                           	extern STK04
                                           	extern STK03
                                           	extern STK02
                                           	extern STK01
                                           	extern STK00
                                           ;--------------------------------------------------------
                                           ; global declarations
                                           ;--------------------------------------------------------
                                           	global	_PowOff
                                           	global	_PowOn
                                           	global	_MotoDisplay
                                           	global	_MotoSwitch
                                           	global	_LedOff
                                           	global	_LedOn
                                           	global	_LedDisplay
                                           	global	_LedSwitch
                                           	global	_MotoOn
                                           	global	_MotoOff

                                           ;--------------------------------------------------------
                                           ; global definitions
                                           ;--------------------------------------------------------
                                           ;--------------------------------------------------------
                                           ; absolute symbol definitions
                                           ;--------------------------------------------------------
                                           ;--------------------------------------------------------
                                           ; compiler-defined variables
                                           ;--------------------------------------------------------
                                           UDL_led_0	udata
                                           r0x1007	res	1
                                           r0x1005	res	1
                                           r0x1003	res	1
                                           r0x1001	res	1
                                           ;--------------------------------------------------------
                                           ; initialized data
                                           ;--------------------------------------------------------
                                           ;--------------------------------------------------------
                                           ; overlayable items in internal ram 
                                           ;--------------------------------------------------------
                                           ;	udata_ovr
                                           ;--------------------------------------------------------
                                           ; code
                                           ;--------------------------------------------------------
                                           code_led	code
                                           ;***
                                           ;  pBlock Stats: dbName = C
                                           ;***
                                           ;has an exit
                                           ;; Starting pCode block
                                           ;;[ICODE] led.c:79:  _entry($2) :
                                           ;;[ICODE] led.c:79: 	proc _PowOff [k1 lr0:0 so:0]{ ia0 a2p0 re0 rm0 nos0 ru0 dp0}{void function ( ) fixed}
                                           S_led__PowOff	code
                                           _PowOff:
                                           ; 2 exit points
                                           ;;[ICODE] led.c:84: 	_TRISB [k2 lr0:0 so:0]{ ia1 a2p0 re0 rm0 nos0 ru0 dp0}{volatile-unsigned-char sfr} = _TRISB [k2 lr0:0 so:0]{ ia0 a2p0 re0 rm0 nos0 ru0 dp0}{volatile-unsigned-char sfr} & 0xf7 {const-unsigned-char literal}
                                           ;	.line	84; "led.c"	TRISB  &= DEF_CLR_BIT3;
0002e5   3dc6     bcf     0x46, 0x3        	BCF	_TRISB,3
                                           ;;[ICODE] led.c:85: 	_PHCON [k4 lr0:0 so:0]{ ia1 a2p0 re0 rm0 nos0 ru0 dp0}{volatile-unsigned-char sfr} = _PHCON [k4 lr0:0 so:0]{ ia0 a2p0 re0 rm0 nos0 ru0 dp0}{volatile-unsigned-char sfr} | 0x8 {const-unsigned-char literal}
                                           ;	.line	85; "led.c"	PHCON |= DEF_SET_BIT3;
0002e6   398d     bsf     0x0d, 0x3        	BSF	_PHCON,3
                                           ;;[ICODE] led.c:85:  _return($1) :
                                           ;;[ICODE] led.c:85: 	eproc _PowOff [k1 lr0:0 so:0]{ ia0 a2p0 re0 rm0 nos0 ru0 dp0}{void function ( ) fixed}
0002e7   0002     return                   	RETURN	
                                           ; exit point of _PowOff

                                           ;***
                                           ;  pBlock Stats: dbName = C
                                           ;***
                                           ;has an exit
                                           ;; Starting pCode block
                                           ;;[ICODE] led.c:72:  _entry($2) :
                                           ;;[ICODE] led.c:72: 	proc _PowOn [k1 lr0:0 so:0]{ ia0 a2p0 re0 rm0 nos0 ru0 dp0}{void function ( ) fixed}
                                           S_led__PowOn	code
                                           _PowOn:
                                           ; 2 exit points
                                           ;;[ICODE] led.c:75: 	_TRISB [k2 lr0:0 so:0]{ ia1 a2p0 re0 rm0 nos0 ru0 dp0}{volatile-unsigned-char sfr} = _TRISB [k2 lr0:0 so:0]{ ia0 a2p0 re0 rm0 nos0 ru0 dp0}{volatile-unsigned-char sfr} | 0x8 {const-unsigned-char literal}
                                           ;	.line	75; "led.c"	TRISB  |= DEF_SET_BIT3;
0002e8   39c6     bsf     0x46, 0x3        	BSF	_TRISB,3
                                           ;;[ICODE] led.c:76: 	_PHCON [k4 lr0:0 so:0]{ ia1 a2p0 re0 rm0 nos0 ru0 dp0}{volatile-unsigned-char sfr} = _PHCON [k4 lr0:0 so:0]{ ia0 a2p0 re0 rm0 nos0 ru0 dp0}{volatile-unsigned-char sfr} & 0xf7 {const-unsigned-char literal}
                                           ;	.line	76; "led.c"	PHCON &= DEF_CLR_BIT3;
0002e9   3d8d     bcf     0x0d, 0x3        	BCF	_PHCON,3
                                           ;;[ICODE] led.c:76:  _return($1) :
                                           ;;[ICODE] led.c:76: 	eproc _PowOn [k1 lr0:0 so:0]{ ia0 a2p0 re0 rm0 nos0 ru0 dp0}{void function ( ) fixed}
0002ea   0002     return                   	RETURN	
                                           ; exit point of _PowOn

                                           ;***
                                           ;  pBlock Stats: dbName = C
                                           ;***
                                           ;has an exit
                                           ;functions called:
                                           ;   _MotoOn
                                           ;   _MotoOff
                                           ;   _MotoOn
                                           ;   _MotoOff
                                           ;2 compiler assigned registers:
                                           ;   r0x1001
                                           ;   r0x1002
                                           ;; Starting pCode block
                                           ;;[ICODE] led.c:61:  _entry($5) :
                                           ;;[ICODE] led.c:61: 	proc _MotoDisplay [k1 lr0:0 so:0]{ ia0 a2p0 re0 rm0 nos0 ru0 dp0}{void function ( ) fixed}
                                           S_led__MotoDisplay	code
                                           _MotoDisplay:
                                           ; 2 exit points
                                           ;;[ICODE] led.c:63: 	iTemp1 [k5 lr3:5 so:0]{ ia0 a2p0 re0 rm1 nos0 ru0 dp0}{unsigned-bitfield {6,1} near* fixed}[remat] = &[_BITS_DATA0 [k2 lr0:0 so:0]{ ia0 a2p0 re0 rm0 nos0 ru0 dp0}{struct __bits8_t fixed} , 0x0 {const-unsigned-char literal}]
                                           ;;[ICODE] led.c:63: 	iTemp2 [k6 lr5:6 so:0]{ ia0 a2p0 re0 rm0 nos0 ru0 dp0}{unsigned-bitfield {6,1} fixed}[r0x104C ] = @[iTemp1 [k5 lr3:5 so:0]{ ia1 a2p0 re0 rm1 nos0 ru0 dp0}{unsigned-bitfield {6,1} near* fixed}[remat] + 0x0 {const-unsigned-char literal}]
                                           ;	.line	63; "led.c"	if(IsMotor == 1)
00028f   18e3     clrf    0x63             	CLRF	r0x1001
000290   3727     btfsc   0x27, 0x6        	BTFSC	_BITS_DATA0,6
000291   13e3     incf    0x63, 0x1        	INCF	r0x1001,F
                                           ;;[ICODE] led.c:63: 	iTemp3 [k7 lr6:7 so:0]{ ia0 a2p0 re0 rm0 nos0 ru0 dp0}{char fixed}[r0x104D ] = (char register)iTemp2 [k6 lr5:6 so:0]{ ia0 a2p0 re0 rm0 nos0 ru0 dp0}{unsigned-bitfield {6,1} fixed}[r0x104C ]
000292   1163     movf    0x63, 0x0        	MOVF	r0x1001,W
                                           ;;1	MOVWF	r0x1002
000293   0d01     xorlw   0x01             	XORLW	0x01
000294   3103     btfss   0x03, 0x2        	BTFSS	STATUS,2
000295   2298     goto    0x0298           	GOTO	_00138_DS_
                                           ;;[ICODE] led.c:63: 	if iTemp4 [k8 lr7:8 so:0]{ ia0 a2p0 re0 rm0 nos0 ru0 dp0}{char fixed} == 0 goto __iffalse_1($2)
                                           ;;[ICODE] led.c:65: 	iTemp5 [k10 lr9:9 so:0]{ ia0 a2p0 re0 rm0 nos0 ru0 dp0}{void fixed} = call _MotoOn [k9 lr0:0 so:0]{ ia0 a2p0 re0 rm0 nos0 ru0 dp0}{void function ( ) fixed}
                                           ;	.line	65; "led.c"	MotoOn();
000296   2aee     call    0x02ee           	CALL	_MotoOn
                                           ;;[ICODE] led.c:65: 	 goto _return($4)
000297   2299     goto    0x0299           	GOTO	_00140_DS_
                                           ;;[ICODE] led.c:65:  __iffalse_1($2) :
                                           ;;[ICODE] led.c:69: 	iTemp6 [k12 lr12:12 so:0]{ ia0 a2p0 re0 rm0 nos0 ru0 dp0}{void fixed} = call _MotoOff [k11 lr0:0 so:0]{ ia0 a2p0 re0 rm0 nos0 ru0 dp0}{void function ( ) fixed}
                                           _00138_DS_:
                                           ;	.line	69; "led.c"	MotoOff();
000298   2aeb     call    0x02eb           	CALL	_MotoOff
                                           ;;[ICODE] led.c:69:  _return($4) :
                                           ;;[ICODE] led.c:69: 	eproc _MotoDisplay [k1 lr0:0 so:0]{ ia0 a2p0 re0 rm0 nos0 ru0 dp0}{void function ( ) fixed}
                                           _00140_DS_:
000299   0002     return                   	RETURN	
                                           ; exit point of _MotoDisplay

                                           ;***
                                           ;  pBlock Stats: dbName = C
                                           ;***
                                           ;has an exit
                                           ;; Starting pCode block
                                           ;;[ICODE] led.c:55:  _entry($2) :
                                           ;;[ICODE] led.c:55: 	proc _MotoOff [k1 lr0:0 so:0]{ ia0 a2p0 re0 rm0 nos0 ru0 dp0}{void function ( ) fixed}
                                           S_led__MotoOff	code
                                           _MotoOff:
                                           ; 2 exit points
                                           ;;[ICODE] led.c:57: 	iTemp1 [k5 lr3:5 so:0]{ ia0 a2p0 re0 rm1 nos0 ru0 dp0}{volatile-unsigned-bitfield {0,1} near* fixed}[remat] = &[_PORTBbits [k2 lr0:0 so:0]{ ia0 a2p0 re0 rm0 nos0 ru0 dp0}{volatile-struct __00000005 fixed} , 0x0 {const-unsigned-char literal}]
                                           ;;[ICODE] led.c:57: 	*(iTemp1 [k5 lr3:5 so:0]{ ia1 a2p0 re0 rm1 nos0 ru0 dp0}{volatile-unsigned-bitfield {0,1} near* fixed}[remat]) := 0x0 {const-unsigned-char literal}
                                           ;	.line	57; "led.c"	PORT_LED2 = LIGHT_TURN_OFF;
0002eb   3c06     bcf     0x06, 0x0        	BCF	_PORTBbits,0
                                           ;;[ICODE] led.c:58: 	iTemp3 [k9 lr6:8 so:0]{ ia0 a2p0 re0 rm1 nos0 ru0 dp0}{volatile-unsigned-bitfield {7,1} near* fixed}[remat] = &[_RAMPbits [k6 lr0:0 so:0]{ ia0 a2p0 re0 rm0 nos0 ru0 dp0}{volatile-struct __00000070 fixed} , 0x0 {const-unsigned-char literal}]
                                           ;;[ICODE] led.c:58: 	*(iTemp3 [k9 lr6:8 so:0]{ ia1 a2p0 re0 rm1 nos0 ru0 dp0}{volatile-unsigned-bitfield {7,1} near* fixed}[remat]) := 0x1 {const-unsigned-char literal}
                                           ;	.line	58; "led.c"	MODSEL = 1;
0002ec   3bd5     bsf     0x55, 0x7        	BSF	_RAMPbits,7
                                           ;;[ICODE] led.c:58:  _return($1) :
                                           ;;[ICODE] led.c:58: 	eproc _MotoOff [k1 lr0:0 so:0]{ ia0 a2p0 re0 rm0 nos0 ru0 dp0}{void function ( ) fixed}
0002ed   0002     return                   	RETURN	
                                           ; exit point of _MotoOff

                                           ;***
                                           ;  pBlock Stats: dbName = C
                                           ;***
                                           ;has an exit
                                           ;; Starting pCode block
                                           ;;[ICODE] led.c:49:  _entry($2) :
                                           ;;[ICODE] led.c:49: 	proc _MotoOn [k1 lr0:0 so:0]{ ia0 a2p0 re0 rm0 nos0 ru0 dp0}{void function ( ) fixed}
                                           S_led__MotoOn	code
                                           _MotoOn:
                                           ; 2 exit points
                                           ;;[ICODE] led.c:51: 	iTemp1 [k5 lr3:5 so:0]{ ia0 a2p0 re0 rm1 nos0 ru0 dp0}{volatile-unsigned-bitfield {0,1} near* fixed}[remat] = &[_PORTBbits [k2 lr0:0 so:0]{ ia0 a2p0 re0 rm0 nos0 ru0 dp0}{volatile-struct __00000005 fixed} , 0x0 {const-unsigned-char literal}]
                                           ;;[ICODE] led.c:51: 	*(iTemp1 [k5 lr3:5 so:0]{ ia1 a2p0 re0 rm1 nos0 ru0 dp0}{volatile-unsigned-bitfield {0,1} near* fixed}[remat]) := 0x1 {const-unsigned-char literal}
                                           ;	.line	51; "led.c"	PORT_LED2 = LIGHT_TURN_ON;
0002ee   3806     bsf     0x06, 0x0        	BSF	_PORTBbits,0
                                           ;;[ICODE] led.c:52: 	iTemp3 [k9 lr6:8 so:0]{ ia0 a2p0 re0 rm1 nos0 ru0 dp0}{volatile-unsigned-bitfield {7,1} near* fixed}[remat] = &[_RAMPbits [k6 lr0:0 so:0]{ ia0 a2p0 re0 rm0 nos0 ru0 dp0}{volatile-struct __00000070 fixed} , 0x0 {const-unsigned-char literal}]
                                           ;;[ICODE] led.c:52: 	*(iTemp3 [k9 lr6:8 so:0]{ ia1 a2p0 re0 rm1 nos0 ru0 dp0}{volatile-unsigned-bitfield {7,1} near* fixed}[remat]) := 0x1 {const-unsigned-char literal}
                                           ;	.line	52; "led.c"	MODSEL = 1;	
0002ef   3bd5     bsf     0x55, 0x7        	BSF	_RAMPbits,7
                                           ;;[ICODE] led.c:52:  _return($1) :
                                           ;;[ICODE] led.c:52: 	eproc _MotoOn [k1 lr0:0 so:0]{ ia0 a2p0 re0 rm0 nos0 ru0 dp0}{void function ( ) fixed}
0002f0   0002     return                   	RETURN	
                                           ; exit point of _MotoOn

                                           ;***
                                           ;  pBlock Stats: dbName = C
                                           ;***
                                           ;has an exit
                                           ;2 compiler assigned registers:
                                           ;   r0x1003
                                           ;   r0x1004
                                           ;; Starting pCode block
                                           ;;[ICODE] led.c:41:  _entry($2) :
                                           ;;[ICODE] led.c:41: 	proc _MotoSwitch [k1 lr0:0 so:0]{ ia0 a2p0 re0 rm0 nos0 ru0 dp0}{void function ( ) fixed}
                                           S_led__MotoSwitch	code
                                           _MotoSwitch:
                                           ; 2 exit points
                                           ;;[ICODE] led.c:43: 	iTemp0 [k3 lr3:5 so:0]{ ia0 a2p0 re0 rm1 nos0 ru0 dp0}{unsigned-bitfield {6,1} near* fixed}[remat] = &[_BITS_DATA0 [k2 lr0:0 so:0]{ ia0 a2p0 re0 rm0 nos0 ru0 dp0}{struct __bits8_t fixed} , 0x0 {const-unsigned-char literal}]
                                           ;;[ICODE] led.c:43: 	iTemp1 [k5 lr4:9 so:0]{ ia0 a2p0 re0 rm1 nos0 ru0 dp0}{unsigned-bitfield {6,1} near* fixed}[remat] := iTemp0 [k3 lr3:5 so:0]{ ia0 a2p0 re0 rm1 nos0 ru0 dp0}{unsigned-bitfield {6,1} near* fixed}[remat]
                                           ;;[ICODE] led.c:43: 	iTemp3 [k8 lr5:6 so:0]{ ia0 a2p0 re0 rm1 nos0 ru0 dp0}{unsigned-bitfield {6,1} near* fixed}[remat] := iTemp0 [k3 lr3:5 so:0]{ ia0 a2p0 re0 rm1 nos0 ru0 dp0}{unsigned-bitfield {6,1} near* fixed}[remat]
                                           ;;[ICODE] led.c:43: 	iTemp4 [k9 lr6:7 so:0]{ ia0 a2p0 re0 rm0 nos0 ru0 dp0}{unsigned-bitfield {6,1} fixed}[r0x104A ] = @[iTemp3 [k8 lr5:6 so:0]{ ia1 a2p0 re0 rm1 nos0 ru0 dp0}{unsigned-bitfield {6,1} near* fixed}[remat] + 0x0 {const-unsigned-char literal}]
                                           ;	.line	43; "led.c"	IsMotor =!IsMotor;
00025b   18e2     clrf    0x62             	CLRF	r0x1003
00025c   3727     btfsc   0x27, 0x6        	BTFSC	_BITS_DATA0,6
00025d   13e2     incf    0x62, 0x1        	INCF	r0x1003,F
                                           ;;[ICODE] led.c:43: 	iTemp5 [k10 lr7:8 so:0]{ ia0 a2p0 re0 rm0 nos0 ru0 dp0}{bit fixed}[r0x104B ] = not iTemp4 [k9 lr6:7 so:0]{ ia0 a2p0 re0 rm0 nos0 ru0 dp0}{unsigned-bitfield {6,1} fixed}[r0x104A ]
00025e   1162     movf    0x62, 0x0        	MOVF	r0x1003,W
00025f   0400     movlw   0x00             	MOVLW	0x00
000260   3503     btfsc   0x03, 0x2        	BTFSC	STATUS,2
000261   0401     movlw   0x01             	MOVLW	0x01
                                           ;;1	MOVWF	r0x1004
000262   19e2     movwf   0x62             	MOVWF	r0x1003
                                           ;;[ICODE] led.c:43: 	*(iTemp1 [k5 lr4:9 so:0]{ ia1 a2p0 re0 rm1 nos0 ru0 dp0}{unsigned-bitfield {6,1} near* fixed}[remat]) := iTemp6 [k11 lr8:9 so:0]{ ia0 a2p0 re0 rm0 nos0 ru0 dp0}{unsigned-bitfield {6,1} fixed}[r0x104A ]
000263   1562     rrf     0x62, 0x0        	RRF	r0x1003,W
000264   3003     btfss   0x03, 0x0        	BTFSS	STATUS,0
000265   3f27     bcf     0x27, 0x6        	BCF	_BITS_DATA0,6
000266   3403     btfsc   0x03, 0x0        	BTFSC	STATUS,0
000267   3b27     bsf     0x27, 0x6        	BSF	_BITS_DATA0,6
                                           ;;[ICODE] led.c:43:  _return($1) :
                                           ;;[ICODE] led.c:43: 	eproc _MotoSwitch [k1 lr0:0 so:0]{ ia0 a2p0 re0 rm0 nos0 ru0 dp0}{void function ( ) fixed}
000268   0002     return                   	RETURN	
                                           ; exit point of _MotoSwitch

                                           ;***
                                           ;  pBlock Stats: dbName = C
                                           ;***
                                           ;has an exit
                                           ;; Starting pCode block
                                           ;;[ICODE] led.c:35:  _entry($2) :
                                           ;;[ICODE] led.c:35: 	proc _LedOff [k1 lr0:0 so:0]{ ia0 a2p0 re0 rm0 nos0 ru0 dp0}{void function ( ) fixed}
                                           S_led__LedOff	code
                                           _LedOff:
                                           ; 2 exit points
                                           ;;[ICODE] led.c:37: 	iTemp1 [k5 lr3:5 so:0]{ ia0 a2p0 re0 rm1 nos0 ru0 dp0}{volatile-unsigned-bitfield {1,1} near* fixed}[remat] = &[_PORTBbits [k2 lr0:0 so:0]{ ia0 a2p0 re0 rm0 nos0 ru0 dp0}{volatile-struct __00000005 fixed} , 0x0 {const-unsigned-char literal}]
                                           ;;[ICODE] led.c:37: 	*(iTemp1 [k5 lr3:5 so:0]{ ia1 a2p0 re0 rm1 nos0 ru0 dp0}{volatile-unsigned-bitfield {1,1} near* fixed}[remat]) := 0x0 {const-unsigned-char literal}
                                           ;	.line	37; "led.c"	PORT_LED1 = LIGHT_TURN_OFF;
0002f1   3c86     bcf     0x06, 0x1        	BCF	_PORTBbits,1
                                           ;;[ICODE] led.c:38: 	iTemp3 [k9 lr6:8 so:0]{ ia0 a2p0 re0 rm1 nos0 ru0 dp0}{volatile-unsigned-bitfield {7,1} near* fixed}[remat] = &[_RAMPbits [k6 lr0:0 so:0]{ ia0 a2p0 re0 rm0 nos0 ru0 dp0}{volatile-struct __00000070 fixed} , 0x0 {const-unsigned-char literal}]
                                           ;;[ICODE] led.c:38: 	*(iTemp3 [k9 lr6:8 so:0]{ ia1 a2p0 re0 rm1 nos0 ru0 dp0}{volatile-unsigned-bitfield {7,1} near* fixed}[remat]) := 0x1 {const-unsigned-char literal}
                                           ;	.line	38; "led.c"	MODSEL = 1;
0002f2   3bd5     bsf     0x55, 0x7        	BSF	_RAMPbits,7
                                           ;;[ICODE] led.c:38:  _return($1) :
                                           ;;[ICODE] led.c:38: 	eproc _LedOff [k1 lr0:0 so:0]{ ia0 a2p0 re0 rm0 nos0 ru0 dp0}{void function ( ) fixed}
0002f3   0002     return                   	RETURN	
                                           ; exit point of _LedOff

                                           ;***
                                           ;  pBlock Stats: dbName = C
                                           ;***
                                           ;has an exit
                                           ;; Starting pCode block
                                           ;;[ICODE] led.c:29:  _entry($2) :
                                           ;;[ICODE] led.c:29: 	proc _LedOn [k1 lr0:0 so:0]{ ia0 a2p0 re0 rm0 nos0 ru0 dp0}{void function ( ) fixed}
                                           S_led__LedOn	code
                                           _LedOn:
                                           ; 2 exit points
                                           ;;[ICODE] led.c:31: 	iTemp1 [k5 lr3:5 so:0]{ ia0 a2p0 re0 rm1 nos0 ru0 dp0}{volatile-unsigned-bitfield {1,1} near* fixed}[remat] = &[_PORTBbits [k2 lr0:0 so:0]{ ia0 a2p0 re0 rm0 nos0 ru0 dp0}{volatile-struct __00000005 fixed} , 0x0 {const-unsigned-char literal}]
                                           ;;[ICODE] led.c:31: 	*(iTemp1 [k5 lr3:5 so:0]{ ia1 a2p0 re0 rm1 nos0 ru0 dp0}{volatile-unsigned-bitfield {1,1} near* fixed}[remat]) := 0x1 {const-unsigned-char literal}
                                           ;	.line	31; "led.c"	PORT_LED1 = LIGHT_TURN_ON;
0002f4   3886     bsf     0x06, 0x1        	BSF	_PORTBbits,1
                                           ;;[ICODE] led.c:32: 	iTemp3 [k9 lr6:8 so:0]{ ia0 a2p0 re0 rm1 nos0 ru0 dp0}{volatile-unsigned-bitfield {7,1} near* fixed}[remat] = &[_RAMPbits [k6 lr0:0 so:0]{ ia0 a2p0 re0 rm0 nos0 ru0 dp0}{volatile-struct __00000070 fixed} , 0x0 {const-unsigned-char literal}]
                                           ;;[ICODE] led.c:32: 	*(iTemp3 [k9 lr6:8 so:0]{ ia1 a2p0 re0 rm1 nos0 ru0 dp0}{volatile-unsigned-bitfield {7,1} near* fixed}[remat]) := 0x1 {const-unsigned-char literal}
                                           ;	.line	32; "led.c"	MODSEL = 1;	   //浣胯藉缃娴甸
0002f5   3bd5     bsf     0x55, 0x7        	BSF	_RAMPbits,7
                                           ;;[ICODE] led.c:32:  _return($1) :
                                           ;;[ICODE] led.c:32: 	eproc _LedOn [k1 lr0:0 so:0]{ ia0 a2p0 re0 rm0 nos0 ru0 dp0}{void function ( ) fixed}
0002f6   0002     return                   	RETURN	
                                           ; exit point of _LedOn

                                           ;***
                                           ;  pBlock Stats: dbName = C
                                           ;***
                                           ;has an exit
                                           ;functions called:
                                           ;   _LedOn
                                           ;   _LedOff
                                           ;   _LedOn
                                           ;   _LedOff
                                           ;2 compiler assigned registers:
                                           ;   r0x1005
                                           ;   r0x1006
                                           ;; Starting pCode block
                                           ;;[ICODE] led.c:15:  _entry($5) :
                                           ;;[ICODE] led.c:15: 	proc _LedDisplay [k1 lr0:0 so:0]{ ia0 a2p0 re0 rm0 nos0 ru0 dp0}{void function ( ) fixed}
                                           S_led__LedDisplay	code
                                           _LedDisplay:
                                           ; 2 exit points
                                           ;;[ICODE] led.c:17: 	iTemp1 [k5 lr3:5 so:0]{ ia0 a2p0 re0 rm1 nos0 ru0 dp0}{unsigned-bitfield {5,1} near* fixed}[remat] = &[_BITS_DATA0 [k2 lr0:0 so:0]{ ia0 a2p0 re0 rm0 nos0 ru0 dp0}{struct __bits8_t fixed} , 0x0 {const-unsigned-char literal}]
                                           ;;[ICODE] led.c:17: 	iTemp2 [k6 lr5:6 so:0]{ ia0 a2p0 re0 rm0 nos0 ru0 dp0}{unsigned-bitfield {5,1} fixed}[r0x1048 ] = @[iTemp1 [k5 lr3:5 so:0]{ ia1 a2p0 re0 rm1 nos0 ru0 dp0}{unsigned-bitfield {5,1} near* fixed}[remat] + 0x0 {const-unsigned-char literal}]
                                           ;	.line	17; "led.c"	if(IsLight == 1 )
00029a   18e1     clrf    0x61             	CLRF	r0x1005
00029b   36a7     btfsc   0x27, 0x5        	BTFSC	_BITS_DATA0,5
00029c   13e1     incf    0x61, 0x1        	INCF	r0x1005,F
                                           ;;[ICODE] led.c:17: 	iTemp3 [k7 lr6:7 so:0]{ ia0 a2p0 re0 rm0 nos0 ru0 dp0}{char fixed}[r0x1049 ] = (char register)iTemp2 [k6 lr5:6 so:0]{ ia0 a2p0 re0 rm0 nos0 ru0 dp0}{unsigned-bitfield {5,1} fixed}[r0x1048 ]
00029d   1161     movf    0x61, 0x0        	MOVF	r0x1005,W
                                           ;;1	MOVWF	r0x1006
00029e   0d01     xorlw   0x01             	XORLW	0x01
00029f   3103     btfss   0x03, 0x2        	BTFSS	STATUS,2
0002a0   22a3     goto    0x02a3           	GOTO	_00110_DS_
                                           ;;[ICODE] led.c:17: 	if iTemp4 [k8 lr7:8 so:0]{ ia0 a2p0 re0 rm0 nos0 ru0 dp0}{char fixed} == 0 goto __iffalse_0($2)
                                           ;;[ICODE] led.c:19: 	iTemp5 [k10 lr9:9 so:0]{ ia0 a2p0 re0 rm0 nos0 ru0 dp0}{void fixed} = call _LedOn [k9 lr0:0 so:0]{ ia0 a2p0 re0 rm0 nos0 ru0 dp0}{void function ( ) fixed}
                                           ;	.line	19; "led.c"	LedOn();
0002a1   2af4     call    0x02f4           	CALL	_LedOn
                                           ;;[ICODE] led.c:19: 	 goto _return($4)
0002a2   22a4     goto    0x02a4           	GOTO	_00112_DS_
                                           ;;[ICODE] led.c:19:  __iffalse_0($2) :
                                           ;;[ICODE] led.c:23: 	iTemp6 [k12 lr12:12 so:0]{ ia0 a2p0 re0 rm0 nos0 ru0 dp0}{void fixed} = call _LedOff [k11 lr0:0 so:0]{ ia0 a2p0 re0 rm0 nos0 ru0 dp0}{void function ( ) fixed}
                                           _00110_DS_:
                                           ;	.line	23; "led.c"	LedOff();
0002a3   2af1     call    0x02f1           	CALL	_LedOff
                                           ;;[ICODE] led.c:23:  _return($4) :
                                           ;;[ICODE] led.c:23: 	eproc _LedDisplay [k1 lr0:0 so:0]{ ia0 a2p0 re0 rm0 nos0 ru0 dp0}{void function ( ) fixed}
                                           _00112_DS_:
0002a4   0002     return                   	RETURN	
                                           ; exit point of _LedDisplay

                                           ;***
                                           ;  pBlock Stats: dbName = C
                                           ;***
                                           ;has an exit
                                           ;2 compiler assigned registers:
                                           ;   r0x1007
                                           ;   r0x1008
                                           ;; Starting pCode block
                                           ;;[ICODE] led.c:6:  _entry($2) :
                                           ;;[ICODE] led.c:6: 	proc _LedSwitch [k1 lr0:0 so:0]{ ia0 a2p0 re0 rm0 nos0 ru0 dp0}{void function ( ) fixed}
                                           S_led__LedSwitch	code
                                           _LedSwitch:
                                           ; 2 exit points
                                           ;;[ICODE] led.c:9: 	iTemp0 [k3 lr3:5 so:0]{ ia0 a2p0 re0 rm1 nos0 ru0 dp0}{unsigned-bitfield {5,1} near* fixed}[remat] = &[_BITS_DATA0 [k2 lr0:0 so:0]{ ia0 a2p0 re0 rm0 nos0 ru0 dp0}{struct __bits8_t fixed} , 0x0 {const-unsigned-char literal}]
                                           ;;[ICODE] led.c:9: 	iTemp1 [k5 lr4:9 so:0]{ ia0 a2p0 re0 rm1 nos0 ru0 dp0}{unsigned-bitfield {5,1} near* fixed}[remat] := iTemp0 [k3 lr3:5 so:0]{ ia0 a2p0 re0 rm1 nos0 ru0 dp0}{unsigned-bitfield {5,1} near* fixed}[remat]
                                           ;;[ICODE] led.c:9: 	iTemp3 [k8 lr5:6 so:0]{ ia0 a2p0 re0 rm1 nos0 ru0 dp0}{unsigned-bitfield {5,1} near* fixed}[remat] := iTemp0 [k3 lr3:5 so:0]{ ia0 a2p0 re0 rm1 nos0 ru0 dp0}{unsigned-bitfield {5,1} near* fixed}[remat]
                                           ;;[ICODE] led.c:9: 	iTemp4 [k9 lr6:7 so:0]{ ia0 a2p0 re0 rm0 nos0 ru0 dp0}{unsigned-bitfield {5,1} fixed}[r0x1045 ] = @[iTemp3 [k8 lr5:6 so:0]{ ia1 a2p0 re0 rm1 nos0 ru0 dp0}{unsigned-bitfield {5,1} near* fixed}[remat] + 0x0 {const-unsigned-char literal}]
                                           ;	.line	9; "led.c"	IsLight = !IsLight;
000269   18e0     clrf    0x60             	CLRF	r0x1007
00026a   36a7     btfsc   0x27, 0x5        	BTFSC	_BITS_DATA0,5
00026b   13e0     incf    0x60, 0x1        	INCF	r0x1007,F
                                           ;;[ICODE] led.c:9: 	iTemp5 [k10 lr7:8 so:0]{ ia0 a2p0 re0 rm0 nos0 ru0 dp0}{bit fixed}[r0x1046 ] = not iTemp4 [k9 lr6:7 so:0]{ ia0 a2p0 re0 rm0 nos0 ru0 dp0}{unsigned-bitfield {5,1} fixed}[r0x1045 ]
00026c   1160     movf    0x60, 0x0        	MOVF	r0x1007,W
00026d   0400     movlw   0x00             	MOVLW	0x00
00026e   3503     btfsc   0x03, 0x2        	BTFSC	STATUS,2
00026f   0401     movlw   0x01             	MOVLW	0x01
                                           ;;1	MOVWF	r0x1008
000270   19e0     movwf   0x60             	MOVWF	r0x1007
                                           ;;[ICODE] led.c:9: 	*(iTemp1 [k5 lr4:9 so:0]{ ia1 a2p0 re0 rm1 nos0 ru0 dp0}{unsigned-bitfield {5,1} near* fixed}[remat]) := iTemp6 [k11 lr8:9 so:0]{ ia0 a2p0 re0 rm0 nos0 ru0 dp0}{unsigned-bitfield {5,1} fixed}[r0x1045 ]
000271   1560     rrf     0x60, 0x0        	RRF	r0x1007,W
000272   3003     btfss   0x03, 0x0        	BTFSS	STATUS,0
000273   3ea7     bcf     0x27, 0x5        	BCF	_BITS_DATA0,5
000274   3403     btfsc   0x03, 0x0        	BTFSC	STATUS,0
000275   3aa7     bsf     0x27, 0x5        	BSF	_BITS_DATA0,5
                                           ;;[ICODE] led.c:9:  _return($1) :
                                           ;;[ICODE] led.c:9: 	eproc _LedSwitch [k1 lr0:0 so:0]{ ia0 a2p0 re0 rm0 nos0 ru0 dp0}{void function ( ) fixed}
000276   0002     return                   	RETURN	
                                           ; exit point of _LedSwitch


                                           ;	code size estimation:
                                           ;	   68+    0 =    68 instructions (  136 byte)

                                           	end
                                           ;--------------------------------------------------------
                                           ; File Created by SDCC : free open source ANSI-C Compiler
                                           ; Version 3.6.0 #9615 (CYGWIN)
                                           ;--------------------------------------------------------
                                           ; PIC port for the 14-bit core
                                           ;--------------------------------------------------------
                                           ;	.file	"lvd.c"
                                           	list	p=18p018a0
                                           	radix dec
                                           	include "p18p018a0.inc"
                                                  LIST

                                           ;==========================================================================
                                           ; Build date : Jun 02 2017
                                           ;  HCIDE HC18P018A0 processor include
                                           ; 
                                           ;  (c) Copyright 2012-2021 Holychip Technology, All rights reserved
                                           ;==========================================================================

                                                   NOLIST
                                           ;--------------------------------------------------------
                                           ; external declarations
                                           ;--------------------------------------------------------
                                           	extern	_DelayMs
                                           	extern	_ControlLevelLow
                                           	extern	_ControlLevelHigh
                                           	extern	_ControlLevel
                                           	extern	_ControlFlash
                                           	extern	_ControlSos
                                           	extern	_STATUSbits
                                           	extern	_PORTBbits
                                           	extern	_PCONbits
                                           	extern	_IOCBbits
                                           	extern	_PDCONbits
                                           	extern	_ODCONbits
                                           	extern	_PHCONbits
                                           	extern	_INTECONbits
                                           	extern	_INTFLAGbits
                                           	extern	_OPTIONbits
                                           	extern	_TRISBbits
                                           	extern	_PWMCONbits
                                           	extern	_T0CRbits
                                           	extern	_T1CONbits
                                           	extern	_OSCCONbits
                                           	extern	_CMPCRbits
                                           	extern	_PDCON1bits
                                           	extern	_CHARGE0bits
                                           	extern	_CHARGE1bits
                                           	extern	_RAMPbits
                                           	extern	_AUXRbits
                                           	extern	_BITS_DATA0
                                           	extern	_BITS_DATA1
                                           	extern	_g_ucTimer10msCount
                                           	extern	_g_ucTimerWorkCount
                                           	extern	_g_ucFlashTimeHigh
                                           	extern	_g_ucFlashTimeLow
                                           	extern	_g_ucFlashTimeHigh1
                                           	extern	_g_ucFlashTimeLow1
                                           	extern	_g_ucFlashTimeHigh2
                                           	extern	_g_ucFlashTimeLow2
                                           	extern	_LvdModel
                                           	extern	_LvdDebounceNew
                                           	extern	_LvdDebounceOld
                                           	extern	_LvdModelCount
                                           	extern	_LvdLightCount
                                           	extern	_TempCount
                                           	extern	_TempFlag
                                           	extern	_SleepCount
                                           	extern	_SleepFlag
                                           	extern	_MaxLight
                                           	extern	_g_cucTIMER_COUNT_STATE
                                           	extern	_INDF
                                           	extern	_T0
                                           	extern	_PCL
                                           	extern	_STATUS
                                           	extern	_FSR
                                           	extern	_PORTB
                                           	extern	_GPR
                                           	extern	_PCON
                                           	extern	_IOCB
                                           	extern	_PCLATH
                                           	extern	_PDCON
                                           	extern	_ODCON
                                           	extern	_PHCON
                                           	extern	_INTECON
                                           	extern	_INTFLAG
                                           	extern	_OPTION
                                           	extern	_TRISB
                                           	extern	_PWMCON
                                           	extern	_PWM1P
                                           	extern	_PWM2P
                                           	extern	_T0CR
                                           	extern	_T1CON
                                           	extern	_T1
                                           	extern	_T1LOAD
                                           	extern	_PWM0P
                                           	extern	_OSCCON
                                           	extern	_CMPCR
                                           	extern	_PDCON1
                                           	extern	_CHARGE0
                                           	extern	_CHARGE1
                                           	extern	_RAMP
                                           	extern	_AUXR
                                           	extern	_HIRCTRM

                                           	extern PSAVE
                                           	extern SSAVE
                                           	extern WSAVE
                                           	extern STK12
                                           	extern STK11
                                           	extern STK10
                                           	extern STK09
                                           	extern STK08
                                           	extern STK07
                                           	extern STK06
                                           	extern STK05
                                           	extern STK04
                                           	extern STK03
                                           	extern STK02
                                           	extern STK01
                                           	extern STK00
                                           ;--------------------------------------------------------
                                           ; global declarations
                                           ;--------------------------------------------------------
                                           	global	_ControlLvdCfg
                                           	global	_ConfigureLvd
                                           	global	_CheckLvdElectric
                                           	global	_CheckLvd

                                           ;--------------------------------------------------------
                                           ; global definitions
                                           ;--------------------------------------------------------
                                           ;--------------------------------------------------------
                                           ; absolute symbol definitions
                                           ;--------------------------------------------------------
                                           ;--------------------------------------------------------
                                           ; compiler-defined variables
                                           ;--------------------------------------------------------
                                           UDL_lvd_0	udata
                                           r0x100C	res	1
                                           r0x100A	res	1
                                           r0x1009	res	1
                                           ;--------------------------------------------------------
                                           ; initialized data
                                           ;--------------------------------------------------------
                                           ;--------------------------------------------------------
                                           ; overlayable items in internal ram 
                                           ;--------------------------------------------------------
                                           ;	udata_ovr
                                           ;--------------------------------------------------------
                                           ; code
                                           ;--------------------------------------------------------
                                           code_lvd	code
                                           ;***
                                           ;  pBlock Stats: dbName = C
                                           ;***
                                           ;has an exit
                                           ;1 compiler assigned register :
                                           ;   r0x1009
                                           ;; Starting pCode block
                                           ;;[ICODE] lvd.c:152:  _entry($16) :
                                           ;;[ICODE] lvd.c:152: 	proc _ControlLvdCfg [k1 lr0:0 so:0]{ ia0 a2p0 re0 rm0 nos0 ru0 dp0}{void function ( unsigned-char fixed) fixed}
                                           S_lvd__ControlLvdCfg	code
                                           _ControlLvdCfg:
                                           ; 2 exit points
                                           ;;[ICODE] lvd.c:152: iTemp0 [k2 lr3:28 so:0]{ ia0 a2p0 re1 rm0 nos0 ru0 dp0}{unsigned-char fixed}{ sir@ _ControlLvdCfg_num_1_32}[r0x1050 ] = recv _ControlLvdCfg [k1 lr0:0 so:0]{ ia0 a2p0 re0 rm0 nos0 ru0 dp0}{void function ( unsigned-char fixed) fixed}
                                           ;	.line	152; "lvd.c"	void ControlLvdCfg(BYTE num)
0001ea   19e9     movwf   0x69             	MOVWF	r0x1009
                                           ;	.line	154; "lvd.c"	if(1 == num)   //涓流充电
0001eb   0d01     xorlw   0x01             	XORLW	0x01
0001ec   3103     btfss   0x03, 0x2        	BTFSS	STATUS,2
0001ed   21f2     goto    0x01f2           	GOTO	_00182_DS_
                                           ;;[ICODE] lvd.c:154: 	if iTemp1 [k4 lr4:5 so:0]{ ia0 a2p0 re0 rm0 nos0 ru0 dp0}{char fixed} == 0 goto __iffalse_25($13)
                                           ;;[ICODE] lvd.c:156: 	_CHARGE0 [k5 lr0:0 so:0]{ ia1 a2p0 re0 rm0 nos0 ru0 dp0}{volatile-unsigned-char sfr} := 0x0 {const-unsigned-char literal}
                                           ;	.line	156; "lvd.c"	CHARGE0 = CHARGE0A;
0001ee   18d3     clrf    0x53             	CLRF	_CHARGE0
                                           ;;[ICODE] lvd.c:157: 	_CHARGE1 [k6 lr0:0 so:0]{ ia1 a2p0 re0 rm0 nos0 ru0 dp0}{volatile-unsigned-char sfr} := 0x82 {const-unsigned-char literal}
                                           ;	.line	157; "lvd.c"	CHARGE1 = CHARGE1A; //10000010
0001ef   0482     movlw   0x82             	MOVLW	0x82
0001f0   19d4     movwf   0x54             	MOVWF	_CHARGE1
                                           ;;[ICODE] lvd.c:157: 	 goto _return($15)
0001f1   2212     goto    0x0212           	GOTO	_00184_DS_
                                           ;;[ICODE] lvd.c:157:  __iffalse_25($13) :
                                           ;;[ICODE] lvd.c:159: 	iTemp2 [k7 lr10:11 so:0]{ ia0 a2p0 re0 rm0 nos0 ru0 dp0}{char fixed} = 0x2 {const-unsigned-char literal} == iTemp0 [k2 lr3:28 so:0]{ ia0 a2p0 re1 rm0 nos0 ru0 dp0}{unsigned-char fixed}{ sir@ _ControlLvdCfg_num_1_32}[r0x1050 ]
                                           _00182_DS_:
                                           ;	.line	159; "lvd.c"	else if(2 == num)  //大电流充电
0001f2   1169     movf    0x69, 0x0        	MOVF	r0x1009,W
0001f3   0d02     xorlw   0x02             	XORLW	0x02
0001f4   3103     btfss   0x03, 0x2        	BTFSS	STATUS,2
0001f5   2204     goto    0x0204           	GOTO	_00179_DS_
                                           ;;[ICODE] lvd.c:159: 	if iTemp2 [k7 lr10:11 so:0]{ ia0 a2p0 re0 rm0 nos0 ru0 dp0}{char fixed} == 0 goto __iffalse_24($10)
                                           ;;[ICODE] lvd.c:161: 	iTemp3 [k9 lr12:13 so:0]{ ia0 a2p0 re0 rm0 nos0 ru0 dp0}{char fixed} = 0x1 {const-unsigned-char literal} == _TempFlag [k8 lr0:0 so:0]{ ia0 a2p0 re0 rm0 nos0 ru0 dp0}{unsigned-char fixed}
                                           ;	.line	161; "lvd.c"	if(1 == TempFlag)
0001f6   1136     movf    0x36, 0x0        	MOVF	_TempFlag,W
0001f7   0d01     xorlw   0x01             	XORLW	0x01
0001f8   3103     btfss   0x03, 0x2        	BTFSS	STATUS,2
0001f9   21ff     goto    0x01ff           	GOTO	_00171_DS_
                                           ;;[ICODE] lvd.c:161: 	if iTemp3 [k9 lr12:13 so:0]{ ia0 a2p0 re0 rm0 nos0 ru0 dp0}{char fixed} == 0 goto __iffalse_21($2)
                                           ;;[ICODE] lvd.c:163: 	_CHARGE0 [k5 lr0:0 so:0]{ ia1 a2p0 re0 rm0 nos0 ru0 dp0}{volatile-unsigned-char sfr} := 0xe0 {const-unsigned-char literal}
                                           ;	.line	163; "lvd.c"	CHARGE0 = 0xE0; //11100000
0001fa   04e0     movlw   0xe0             	MOVLW	0xe0
0001fb   19d3     movwf   0x53             	MOVWF	_CHARGE0
                                           ;;[ICODE] lvd.c:164: 	_CHARGE1 [k6 lr0:0 so:0]{ ia1 a2p0 re0 rm0 nos0 ru0 dp0}{volatile-unsigned-char sfr} := 0x83 {const-unsigned-char literal}
                                           ;	.line	164; "lvd.c"	CHARGE1 = 0x83; //10000011
0001fc   0483     movlw   0x83             	MOVLW	0x83
0001fd   19d4     movwf   0x54             	MOVWF	_CHARGE1
                                           ;;[ICODE] lvd.c:164: 	 goto _return($15)
0001fe   2212     goto    0x0212           	GOTO	_00184_DS_
                                           ;;[ICODE] lvd.c:164:  __iffalse_21($2) :
                                           ;;[ICODE] lvd.c:168: 	_CHARGE0 [k5 lr0:0 so:0]{ ia1 a2p0 re0 rm0 nos0 ru0 dp0}{volatile-unsigned-char sfr} := 0xff {const-unsigned-char literal}
                                           _00171_DS_:
                                           ;	.line	168; "lvd.c"	CHARGE0 = CHARGE0B;
0001ff   04ff     movlw   0xff             	MOVLW	0xff
000200   19d3     movwf   0x53             	MOVWF	_CHARGE0
                                           ;;[ICODE] lvd.c:169: 	_CHARGE1 [k6 lr0:0 so:0]{ ia1 a2p0 re0 rm0 nos0 ru0 dp0}{volatile-unsigned-char sfr} := 0x83 {const-unsigned-char literal}
                                           ;	.line	169; "lvd.c"	CHARGE1 = CHARGE1B; //10000011
000201   0483     movlw   0x83             	MOVLW	0x83
000202   19d4     movwf   0x54             	MOVWF	_CHARGE1
                                           ;;[ICODE] lvd.c:169: 	 goto _return($15)
000203   2212     goto    0x0212           	GOTO	_00184_DS_
                                           ;;[ICODE] lvd.c:169:  __iffalse_24($10) :
                                           ;;[ICODE] lvd.c:172: 	iTemp4 [k10 lr22:23 so:0]{ ia0 a2p0 re0 rm0 nos0 ru0 dp0}{char fixed} = 0x3 {const-unsigned-char literal} == iTemp0 [k2 lr3:28 so:0]{ ia0 a2p0 re1 rm0 nos0 ru0 dp0}{unsigned-char fixed}{ sir@ _ControlLvdCfg_num_1_32}[r0x1050 ]
                                           _00179_DS_:
                                           ;	.line	172; "lvd.c"	else if(3 == num) //80mA充电
000204   1169     movf    0x69, 0x0        	MOVF	r0x1009,W
000205   0d03     xorlw   0x03             	XORLW	0x03
000206   3103     btfss   0x03, 0x2        	BTFSS	STATUS,2
000207   220c     goto    0x020c           	GOTO	_00176_DS_
                                           ;;[ICODE] lvd.c:172: 	if iTemp4 [k10 lr22:23 so:0]{ ia0 a2p0 re0 rm0 nos0 ru0 dp0}{char fixed} == 0 goto __iffalse_23($7)
                                           ;;[ICODE] lvd.c:174: 	_CHARGE0 [k5 lr0:0 so:0]{ ia1 a2p0 re0 rm0 nos0 ru0 dp0}{volatile-unsigned-char sfr} := 0x0 {const-unsigned-char literal}
                                           ;	.line	174; "lvd.c"	CHARGE0 = CHARGE0C;
000208   18d3     clrf    0x53             	CLRF	_CHARGE0
                                           ;;[ICODE] lvd.c:175: 	_CHARGE1 [k6 lr0:0 so:0]{ ia1 a2p0 re0 rm0 nos0 ru0 dp0}{volatile-unsigned-char sfr} := 0x83 {const-unsigned-char literal}
                                           ;	.line	175; "lvd.c"	CHARGE1 = CHARGE1C; //10000011
000209   0483     movlw   0x83             	MOVLW	0x83
00020a   19d4     movwf   0x54             	MOVWF	_CHARGE1
                                           ;;[ICODE] lvd.c:175: 	 goto _return($15)
00020b   2212     goto    0x0212           	GOTO	_00184_DS_
                                           ;;[ICODE] lvd.c:175:  __iffalse_23($7) :
                                           ;;[ICODE] lvd.c:177: 	iTemp5 [k11 lr28:29 so:0]{ ia0 a2p0 re0 rm0 nos0 ru0 dp0}{char fixed} = 0x4 {const-unsigned-char literal} == iTemp0 [k2 lr3:28 so:0]{ ia0 a2p0 re1 rm0 nos0 ru0 dp0}{unsigned-char fixed}{ sir@ _ControlLvdCfg_num_1_32}[r0x1050 ]
                                           _00176_DS_:
                                           ;	.line	177; "lvd.c"	else if(4 == num)	//关闭充电	
00020c   1169     movf    0x69, 0x0        	MOVF	r0x1009,W
00020d   0d04     xorlw   0x04             	XORLW	0x04
00020e   3103     btfss   0x03, 0x2        	BTFSS	STATUS,2
00020f   2212     goto    0x0212           	GOTO	_00184_DS_
                                           ;;[ICODE] lvd.c:177: 	if iTemp5 [k11 lr28:29 so:0]{ ia0 a2p0 re0 rm0 nos0 ru0 dp0}{char fixed} == 0 goto _return($15)
                                           ;;[ICODE] lvd.c:179: 	_CHARGE0 [k5 lr0:0 so:0]{ ia1 a2p0 re0 rm0 nos0 ru0 dp0}{volatile-unsigned-char sfr} := 0x0 {const-unsigned-char literal}
                                           ;	.line	179; "lvd.c"	CHARGE0 = CHARGE0D;
000210   18d3     clrf    0x53             	CLRF	_CHARGE0
                                           ;;[ICODE] lvd.c:180: 	_CHARGE1 [k6 lr0:0 so:0]{ ia1 a2p0 re0 rm0 nos0 ru0 dp0}{volatile-unsigned-char sfr} := 0x0 {const-unsigned-char literal}
                                           ;	.line	180; "lvd.c"	CHARGE1 = CHARGE1D;
000211   18d4     clrf    0x54             	CLRF	_CHARGE1
                                           ;;[ICODE] lvd.c:180:  _return($15) :
                                           ;;[ICODE] lvd.c:180: 	eproc _ControlLvdCfg [k1 lr0:0 so:0]{ ia0 a2p0 re0 rm0 nos0 ru0 dp0}{void function ( unsigned-char fixed) fixed}
                                           _00184_DS_:
000212   0002     return                   	RETURN	
                                           ; exit point of _ControlLvdCfg

                                           ;***
                                           ;  pBlock Stats: dbName = C
                                           ;***
                                           ;has an exit
                                           ;functions called:
                                           ;   _ControlLvdCfg
                                           ;   _ControlLvdCfg
                                           ;   _ControlLvdCfg
                                           ;   _ControlLvdCfg
                                           ;   _ControlLvdCfg
                                           ;   _ControlLvdCfg
                                           ;   _ControlLvdCfg
                                           ;   _ControlLvdCfg
                                           ;   _ControlLvdCfg
                                           ;   _ControlLvdCfg
                                           ;   _ControlLvdCfg
                                           ;   _ControlLvdCfg
                                           ;   _ControlLvdCfg
                                           ;   _ControlLvdCfg
                                           ;2 compiler assigned registers:
                                           ;   r0x100A
                                           ;   r0x100B
                                           ;; Starting pCode block
                                           ;;[ICODE] lvd.c:103:  _entry($23) :
                                           ;;[ICODE] lvd.c:103: 	proc _ConfigureLvd [k1 lr0:0 so:0]{ ia0 a2p0 re0 rm0 nos0 ru0 dp0}{void function ( ) fixed}
                                           S_lvd__ConfigureLvd	code
                                           _ConfigureLvd:
                                           ; 2 exit points
                                           ;;[ICODE] lvd.c:105: 	iTemp1 [k5 lr3:5 so:0]{ ia0 a2p0 re0 rm1 nos0 ru0 dp0}{volatile-unsigned-bitfield {5,1} near* fixed}[remat] = &[_INTFLAGbits [k2 lr0:0 so:0]{ ia0 a2p0 re0 rm0 nos0 ru0 dp0}{volatile-struct __00000027 fixed} , 0x0 {const-unsigned-char literal}]
                                           ;;[ICODE] lvd.c:105: 	iTemp2 [k6 lr5:6 so:0]{ ia0 a2p0 re0 rm0 nos0 ru0 dp0}{volatile-unsigned-bitfield {5,1} fixed}[r0x104D ] = @[iTemp1 [k5 lr3:5 so:0]{ ia1 a2p0 re0 rm1 nos0 ru0 dp0}{volatile-unsigned-bitfield {5,1} near* fixed}[remat] + 0x0 {const-unsigned-char literal}]
                                           ;	.line	105; "lvd.c"	if(0 == CHARF)  //VDD检查大于4.4V时产生充电中断
000168   368f     btfsc   0x0f, 0x5        	BTFSC	_INTFLAGbits,5
000169   2170     goto    0x0170           	GOTO	_00147_DS_
                                           ;;[ICODE] lvd.c:105: 	if iTemp2 [k6 lr5:6 so:0]{ ia0 a2p0 re0 rm0 nos0 ru0 dp0}{volatile-unsigned-bitfield {5,1} fixed}[r0x104D ] != 0 goto __iffalse_12($4)
                                           ;;[ICODE] lvd.c:107: 	send 0x4 {const-unsigned-char literal}{argreg = 1}
                                           ;;[ICODE] lvd.c:107: 	iTemp3 [k9 lr8:8 so:0]{ ia0 a2p0 re0 rm0 nos0 ru0 dp0}{void fixed} = call _ControlLvdCfg [k7 lr0:0 so:0]{ ia0 a2p0 re0 rm0 nos0 ru0 dp0}{void function ( unsigned-char fixed) fixed}
                                           ;	.line	107; "lvd.c"	ControlLvdCfg(4);
00016a   0404     movlw   0x04             	MOVLW	0x04
00016b   29ea     call    0x01ea           	CALL	_ControlLvdCfg
                                           ;;[ICODE] lvd.c:108: 	iTemp5 [k13 lr9:11 so:0]{ ia0 a2p0 re0 rm1 nos0 ru0 dp0}{unsigned-bitfield {0,1} near* fixed}[remat] = &[_BITS_DATA1 [k10 lr0:0 so:0]{ ia0 a2p0 re0 rm0 nos0 ru0 dp0}{struct __bits16_t fixed} , 0x0 {const-unsigned-char literal}]
                                           ;;[ICODE] lvd.c:108: 	*(iTemp5 [k13 lr9:11 so:0]{ ia1 a2p0 re0 rm1 nos0 ru0 dp0}{unsigned-bitfield {0,1} near* fixed}[remat]) := 0x0 {const-unsigned-char literal}
                                           ;	.line	108; "lvd.c"	IsFull = 0;
00016c   3c22     bcf     0x22, 0x0        	BCF	_BITS_DATA1,0
                                           ;;[ICODE] lvd.c:109: 	iTemp7 [k16 lr12:14 so:0]{ ia0 a2p0 re0 rm1 nos0 ru0 dp0}{unsigned-bitfield {1,1} near* fixed}[remat] = &[_BITS_DATA1 [k10 lr0:0 so:0]{ ia0 a2p0 re0 rm0 nos0 ru0 dp0}{struct __bits16_t fixed} , 0x0 {const-unsigned-char literal}]
                                           ;;[ICODE] lvd.c:109: 	*(iTemp7 [k16 lr12:14 so:0]{ ia1 a2p0 re0 rm1 nos0 ru0 dp0}{unsigned-bitfield {1,1} near* fixed}[remat]) := 0x0 {const-unsigned-char literal}
                                           ;	.line	109; "lvd.c"	IsCharf = 0;
00016d   3ca2     bcf     0x22, 0x1        	BCF	_BITS_DATA1,1
                                           ;;[ICODE] lvd.c:110: 	_LvdLightCount [k17 lr0:0 so:0]{ ia1 a2p0 re0 rm0 nos0 ru0 dp0}{unsigned-char fixed} := 0x0 {const-unsigned-char literal}
                                           ;	.line	110; "lvd.c"	LvdLightCount = 0;
00016e   18b4     clrf    0x34             	CLRF	_LvdLightCount
                                           ;;[ICODE] lvd.c:111: 	ret
                                           ;	.line	111; "lvd.c"	return;	  //未充电
00016f   21a9     goto    0x01a9           	GOTO	_00165_DS_
                                           ;;[ICODE] lvd.c:111:  __iffalse_12($4) :
                                           ;;[ICODE] lvd.c:115: 	iTemp10 [k21 lr18:20 so:0]{ ia0 a2p0 re0 rm1 nos0 ru0 dp0}{unsigned-bitfield {0,1} near* fixed}[remat] = &[_BITS_DATA1 [k10 lr0:0 so:0]{ ia0 a2p0 re0 rm0 nos0 ru0 dp0}{struct __bits16_t fixed} , 0x0 {const-unsigned-char literal}]
                                           ;;[ICODE] lvd.c:115: 	iTemp11 [k22 lr20:21 so:0]{ ia0 a2p0 re0 rm0 nos0 ru0 dp0}{unsigned-bitfield {0,1} fixed}[r0x104D ] = @[iTemp10 [k21 lr18:20 so:0]{ ia1 a2p0 re0 rm1 nos0 ru0 dp0}{unsigned-bitfield {0,1} near* fixed}[remat] + 0x0 {const-unsigned-char literal}]
                                           _00147_DS_:
                                           ;	.line	115; "lvd.c"	if(1 == IsFull)
000170   18e8     clrf    0x68             	CLRF	r0x100A
000171   3422     btfsc   0x22, 0x0        	BTFSC	_BITS_DATA1,0
000172   13e8     incf    0x68, 0x1        	INCF	r0x100A,F
                                           ;;[ICODE] lvd.c:115: 	iTemp12 [k23 lr21:22 so:0]{ ia0 a2p0 re0 rm0 nos0 ru0 dp0}{char fixed}[r0x104E ] = (char register)iTemp11 [k22 lr20:21 so:0]{ ia0 a2p0 re0 rm0 nos0 ru0 dp0}{unsigned-bitfield {0,1} fixed}[r0x104D ]
000173   1168     movf    0x68, 0x0        	MOVF	r0x100A,W
                                           ;;1	MOVWF	r0x100B
000174   0d01     xorlw   0x01             	XORLW	0x01
000175   3103     btfss   0x03, 0x2        	BTFSS	STATUS,2
000176   2179     goto    0x0179           	GOTO	_00148_DS_
                                           ;;[ICODE] lvd.c:115: 	if iTemp13 [k24 lr22:23 so:0]{ ia0 a2p0 re0 rm0 nos0 ru0 dp0}{char fixed} == 0 goto __ifend_12($5)
                                           ;;[ICODE] lvd.c:117: 	_LvdLightCount [k17 lr0:0 so:0]{ ia1 a2p0 re0 rm0 nos0 ru0 dp0}{unsigned-char fixed} := 0x0 {const-unsigned-char literal}
                                           ;	.line	117; "lvd.c"	LvdLightCount = 0;
000177   18b4     clrf    0x34             	CLRF	_LvdLightCount
                                           ;;[ICODE] lvd.c:118: 	ret
                                           ;	.line	118; "lvd.c"	return;
000178   21a9     goto    0x01a9           	GOTO	_00165_DS_
                                           ;;[ICODE] lvd.c:118:  __ifend_12($5) :
                                           ;;[ICODE] lvd.c:122: 	_LvdLightCount [k17 lr0:0 so:0]{ ia1 a2p0 re0 rm0 nos0 ru0 dp0}{unsigned-char fixed} = _LvdLightCount [k17 lr0:0 so:0]{ ia1 a2p0 re0 rm0 nos0 ru0 dp0}{unsigned-char fixed} + 0x1 {const-unsigned-char literal}
                                           _00148_DS_:
                                           ;	.line	122; "lvd.c"	LvdLightCount++;
000179   13b4     incf    0x34, 0x1        	INCF	_LvdLightCount,F
                                           ;;[ICODE] lvd.c:123: 	iTemp18 [k29 lr29:30 so:0]{ ia0 a2p0 re0 rm0 nos0 ru0 dp0}{char fixed} = 0xc8 {const-unsigned-char literal} == _LvdLightCount [k17 lr0:0 so:0]{ ia0 a2p0 re0 rm0 nos0 ru0 dp0}{unsigned-char fixed}
                                           ;	.line	123; "lvd.c"	if(200 == LvdLightCount)
00017a   1134     movf    0x34, 0x0        	MOVF	_LvdLightCount,W
00017b   0dc8     xorlw   0xc8             	XORLW	0xc8
00017c   3103     btfss   0x03, 0x2        	BTFSS	STATUS,2
00017d   2180     goto    0x0180           	GOTO	_00150_DS_
                                           ;;[ICODE] lvd.c:123: 	if iTemp18 [k29 lr29:30 so:0]{ ia0 a2p0 re0 rm0 nos0 ru0 dp0}{char fixed} == 0 goto __iffalse_13($7)
                                           ;;[ICODE] lvd.c:125: 	iTemp20 [k32 lr31:33 so:0]{ ia0 a2p0 re0 rm1 nos0 ru0 dp0}{unsigned-bitfield {1,1} near* fixed}[remat] = &[_BITS_DATA1 [k10 lr0:0 so:0]{ ia0 a2p0 re0 rm0 nos0 ru0 dp0}{struct __bits16_t fixed} , 0x0 {const-unsigned-char literal}]
                                           ;;[ICODE] lvd.c:125: 	*(iTemp20 [k32 lr31:33 so:0]{ ia1 a2p0 re0 rm1 nos0 ru0 dp0}{unsigned-bitfield {1,1} near* fixed}[remat]) := 0x1 {const-unsigned-char literal}
                                           ;	.line	125; "lvd.c"	IsCharf = 1;
00017e   38a2     bsf     0x22, 0x1        	BSF	_BITS_DATA1,1
                                           ;;[ICODE] lvd.c:126: 	_LvdLightCount [k17 lr0:0 so:0]{ ia1 a2p0 re0 rm0 nos0 ru0 dp0}{unsigned-char fixed} := 0x0 {const-unsigned-char literal}
                                           ;	.line	126; "lvd.c"	LvdLightCount = 0;
00017f   18b4     clrf    0x34             	CLRF	_LvdLightCount
                                           ;;[ICODE] lvd.c:126:  __iffalse_13($7) :
                                           ;;[ICODE] lvd.c:128: 	iTemp23 [k36 lr36:38 so:0]{ ia0 a2p0 re0 rm1 nos0 ru0 dp0}{unsigned-bitfield {1,1} near* fixed}[remat] = &[_BITS_DATA1 [k10 lr0:0 so:0]{ ia0 a2p0 re0 rm0 nos0 ru0 dp0}{struct __bits16_t fixed} , 0x0 {const-unsigned-char literal}]
                                           ;;[ICODE] lvd.c:128: 	iTemp24 [k37 lr38:39 so:0]{ ia0 a2p0 re0 rm0 nos0 ru0 dp0}{unsigned-bitfield {1,1} fixed}[r0x104D ] = @[iTemp23 [k36 lr36:38 so:0]{ ia1 a2p0 re0 rm1 nos0 ru0 dp0}{unsigned-bitfield {1,1} near* fixed}[remat] + 0x0 {const-unsigned-char literal}]
                                           _00150_DS_:
                                           ;	.line	128; "lvd.c"	if(IsCharf == 0)
000180   34a2     btfsc   0x22, 0x1        	BTFSC	_BITS_DATA1,1
000181   2183     goto    0x0183           	GOTO	_00152_DS_
                                           ;;[ICODE] lvd.c:128: 	if iTemp24 [k37 lr38:39 so:0]{ ia0 a2p0 re0 rm0 nos0 ru0 dp0}{unsigned-bitfield {1,1} fixed}[r0x104D ] != 0 goto __iffalse_14($9)
                                           ;;[ICODE] lvd.c:130: 	ret
                                           ;	.line	130; "lvd.c"	return;
000182   21a9     goto    0x01a9           	GOTO	_00165_DS_
                                           ;;[ICODE] lvd.c:130:  __iffalse_14($9) :
                                           ;;[ICODE] lvd.c:133: 	iTemp26 [k41 lr42:44 so:0]{ ia0 a2p0 re0 rm1 nos0 ru0 dp0}{unsigned-bitfield {1,1} near* fixed}[remat] = &[_BITS_DATA0 [k38 lr0:0 so:0]{ ia0 a2p0 re0 rm0 nos0 ru0 dp0}{struct __bits8_t fixed} , 0x0 {const-unsigned-char literal}]
                                           ;;[ICODE] lvd.c:133: 	*(iTemp26 [k41 lr42:44 so:0]{ ia1 a2p0 re0 rm1 nos0 ru0 dp0}{unsigned-bitfield {1,1} near* fixed}[remat]) := 0x0 {const-unsigned-char literal}
                                           _00152_DS_:
                                           ;	.line	133; "lvd.c"	LowBat = 0;
000183   3ca7     bcf     0x27, 0x1        	BCF	_BITS_DATA0,1
                                           ;;[ICODE] lvd.c:135: 	if _LvdModel [k42 lr0:0 so:0]{ ia0 a2p0 re0 rm0 nos0 ru0 dp0}{unsigned-char fixed} != 0 goto __iffalse_15($11)
                                           ;	.line	135; "lvd.c"	if(LvdModel == 0)          //满
000184   0400     movlw   0x00             	MOVLW	0x00
000185   1d30     iorwf   0x30, 0x0        	IORWF	_LvdModel,W
000186   3103     btfss   0x03, 0x2        	BTFSS	STATUS,2
000187   218b     goto    0x018b           	GOTO	_00154_DS_
                                           ;;[ICODE] lvd.c:137: 	iTemp28 [k45 lr46:48 so:0]{ ia0 a2p0 re0 rm1 nos0 ru0 dp0}{unsigned-bitfield {0,1} near* fixed}[remat] = &[_BITS_DATA1 [k10 lr0:0 so:0]{ ia0 a2p0 re0 rm0 nos0 ru0 dp0}{struct __bits16_t fixed} , 0x0 {const-unsigned-char literal}]
                                           ;;[ICODE] lvd.c:137: 	*(iTemp28 [k45 lr46:48 so:0]{ ia1 a2p0 re0 rm1 nos0 ru0 dp0}{unsigned-bitfield {0,1} near* fixed}[remat]) := 0x1 {const-unsigned-char literal}
                                           ;	.line	137; "lvd.c"	IsFull = 1;
000188   3822     bsf     0x22, 0x0        	BSF	_BITS_DATA1,0
                                           ;;[ICODE] lvd.c:138: 	send 0x4 {const-unsigned-char literal}{argreg = 1}
                                           ;;[ICODE] lvd.c:138: 	iTemp29 [k46 lr50:50 so:0]{ ia0 a2p0 re0 rm0 nos0 ru0 dp0}{void fixed} = call _ControlLvdCfg [k7 lr0:0 so:0]{ ia0 a2p0 re0 rm0 nos0 ru0 dp0}{void function ( unsigned-char fixed) fixed}
                                           ;	.line	138; "lvd.c"	ControlLvdCfg(4);
000189   0404     movlw   0x04             	MOVLW	0x04
00018a   29ea     call    0x01ea           	CALL	_ControlLvdCfg
                                           ;;[ICODE] lvd.c:138:  __iffalse_15($11) :
                                           ;;[ICODE] lvd.c:140: 	iTemp30 [k47 lr52:53 so:0]{ ia0 a2p0 re0 rm0 nos0 ru0 dp0}{char fixed} = _LvdModel [k42 lr0:0 so:0]{ ia0 a2p0 re0 rm0 nos0 ru0 dp0}{unsigned-char fixed} == 0x1 {const-unsigned-char literal}
                                           _00154_DS_:
                                           ;	.line	140; "lvd.c"	if(LvdModel == 1)          //4,1
00018b   1130     movf    0x30, 0x0        	MOVF	_LvdModel,W
00018c   0d01     xorlw   0x01             	XORLW	0x01
00018d   3103     btfss   0x03, 0x2        	BTFSS	STATUS,2
00018e   2191     goto    0x0191           	GOTO	_00156_DS_
                                           ;;[ICODE] lvd.c:140: 	if iTemp30 [k47 lr52:53 so:0]{ ia0 a2p0 re0 rm0 nos0 ru0 dp0}{char fixed} == 0 goto __iffalse_16($13)
                                           ;;[ICODE] lvd.c:141: 	send 0x3 {const-unsigned-char literal}{argreg = 1}
                                           ;;[ICODE] lvd.c:141: 	iTemp31 [k48 lr55:55 so:0]{ ia0 a2p0 re0 rm0 nos0 ru0 dp0}{void fixed} = call _ControlLvdCfg [k7 lr0:0 so:0]{ ia0 a2p0 re0 rm0 nos0 ru0 dp0}{void function ( unsigned-char fixed) fixed}
                                           ;	.line	141; "lvd.c"	ControlLvdCfg(3);	
00018f   0403     movlw   0x03             	MOVLW	0x03
000190   29ea     call    0x01ea           	CALL	_ControlLvdCfg
                                           ;;[ICODE] lvd.c:141:  __iffalse_16($13) :
                                           ;;[ICODE] lvd.c:142: 	iTemp32 [k49 lr57:58 so:0]{ ia0 a2p0 re0 rm0 nos0 ru0 dp0}{char fixed} = _LvdModel [k42 lr0:0 so:0]{ ia0 a2p0 re0 rm0 nos0 ru0 dp0}{unsigned-char fixed} == 0x2 {const-unsigned-char literal}
                                           _00156_DS_:
                                           ;	.line	142; "lvd.c"	if(LvdModel == 2)         //3.3
000191   1130     movf    0x30, 0x0        	MOVF	_LvdModel,W
000192   0d02     xorlw   0x02             	XORLW	0x02
000193   3103     btfss   0x03, 0x2        	BTFSS	STATUS,2
000194   2197     goto    0x0197           	GOTO	_00158_DS_
                                           ;;[ICODE] lvd.c:142: 	if iTemp32 [k49 lr57:58 so:0]{ ia0 a2p0 re0 rm0 nos0 ru0 dp0}{char fixed} == 0 goto __iffalse_17($15)
                                           ;;[ICODE] lvd.c:143: 	send 0x2 {const-unsigned-char literal}{argreg = 1}
                                           ;;[ICODE] lvd.c:143: 	iTemp33 [k50 lr60:60 so:0]{ ia0 a2p0 re0 rm0 nos0 ru0 dp0}{void fixed} = call _ControlLvdCfg [k7 lr0:0 so:0]{ ia0 a2p0 re0 rm0 nos0 ru0 dp0}{void function ( unsigned-char fixed) fixed}
                                           ;	.line	143; "lvd.c"	ControlLvdCfg(2);
000195   0402     movlw   0x02             	MOVLW	0x02
000196   29ea     call    0x01ea           	CALL	_ControlLvdCfg
                                           ;;[ICODE] lvd.c:143:  __iffalse_17($15) :
                                           ;;[ICODE] lvd.c:144: 	iTemp34 [k51 lr62:63 so:0]{ ia0 a2p0 re0 rm0 nos0 ru0 dp0}{char fixed} = _LvdModel [k42 lr0:0 so:0]{ ia0 a2p0 re0 rm0 nos0 ru0 dp0}{unsigned-char fixed} == 0x3 {const-unsigned-char literal}
                                           _00158_DS_:
                                           ;	.line	144; "lvd.c"	if(LvdModel == 3)        //3.0
000197   1130     movf    0x30, 0x0        	MOVF	_LvdModel,W
000198   0d03     xorlw   0x03             	XORLW	0x03
000199   3103     btfss   0x03, 0x2        	BTFSS	STATUS,2
00019a   219d     goto    0x019d           	GOTO	_00160_DS_
                                           ;;[ICODE] lvd.c:144: 	if iTemp34 [k51 lr62:63 so:0]{ ia0 a2p0 re0 rm0 nos0 ru0 dp0}{char fixed} == 0 goto __iffalse_18($17)
                                           ;;[ICODE] lvd.c:145: 	send 0x2 {const-unsigned-char literal}{argreg = 1}
                                           ;;[ICODE] lvd.c:145: 	iTemp35 [k52 lr65:65 so:0]{ ia0 a2p0 re0 rm0 nos0 ru0 dp0}{void fixed} = call _ControlLvdCfg [k7 lr0:0 so:0]{ ia0 a2p0 re0 rm0 nos0 ru0 dp0}{void function ( unsigned-char fixed) fixed}
                                           ;	.line	145; "lvd.c"	ControlLvdCfg(2); 
00019b   0402     movlw   0x02             	MOVLW	0x02
00019c   29ea     call    0x01ea           	CALL	_ControlLvdCfg
                                           ;;[ICODE] lvd.c:145:  __iffalse_18($17) :
                                           ;;[ICODE] lvd.c:146: 	iTemp36 [k53 lr67:68 so:0]{ ia0 a2p0 re0 rm0 nos0 ru0 dp0}{char fixed} = _LvdModel [k42 lr0:0 so:0]{ ia0 a2p0 re0 rm0 nos0 ru0 dp0}{unsigned-char fixed} == 0x4 {const-unsigned-char literal}
                                           _00160_DS_:
                                           ;	.line	146; "lvd.c"	if(LvdModel == 4)         //2.8
00019d   1130     movf    0x30, 0x0        	MOVF	_LvdModel,W
00019e   0d04     xorlw   0x04             	XORLW	0x04
00019f   3103     btfss   0x03, 0x2        	BTFSS	STATUS,2
0001a0   21a3     goto    0x01a3           	GOTO	_00162_DS_
                                           ;;[ICODE] lvd.c:146: 	if iTemp36 [k53 lr67:68 so:0]{ ia0 a2p0 re0 rm0 nos0 ru0 dp0}{char fixed} == 0 goto __iffalse_19($19)
                                           ;;[ICODE] lvd.c:147: 	send 0x1 {const-unsigned-char literal}{argreg = 1}
                                           ;;[ICODE] lvd.c:147: 	iTemp37 [k54 lr70:70 so:0]{ ia0 a2p0 re0 rm0 nos0 ru0 dp0}{void fixed} = call _ControlLvdCfg [k7 lr0:0 so:0]{ ia0 a2p0 re0 rm0 nos0 ru0 dp0}{void function ( unsigned-char fixed) fixed}
                                           ;	.line	147; "lvd.c"	ControlLvdCfg(1);
0001a1   0401     movlw   0x01             	MOVLW	0x01
0001a2   29ea     call    0x01ea           	CALL	_ControlLvdCfg
                                           ;;[ICODE] lvd.c:147:  __iffalse_19($19) :
                                           ;;[ICODE] lvd.c:148: 	iTemp38 [k55 lr72:73 so:0]{ ia0 a2p0 re0 rm0 nos0 ru0 dp0}{char fixed} = _LvdModel [k42 lr0:0 so:0]{ ia0 a2p0 re0 rm0 nos0 ru0 dp0}{unsigned-char fixed} == 0x5 {const-unsigned-char literal}
                                           _00162_DS_:
                                           ;	.line	148; "lvd.c"	if(LvdModel == 5)        //没电
0001a3   1130     movf    0x30, 0x0        	MOVF	_LvdModel,W
0001a4   0d05     xorlw   0x05             	XORLW	0x05
0001a5   3103     btfss   0x03, 0x2        	BTFSS	STATUS,2
0001a6   21a9     goto    0x01a9           	GOTO	_00165_DS_
                                           ;;[ICODE] lvd.c:148: 	if iTemp38 [k55 lr72:73 so:0]{ ia0 a2p0 re0 rm0 nos0 ru0 dp0}{char fixed} == 0 goto _return($22)
                                           ;;[ICODE] lvd.c:149: 	send 0x1 {const-unsigned-char literal}{argreg = 1}
                                           ;;[ICODE] lvd.c:149: 	iTemp39 [k56 lr75:75 so:0]{ ia0 a2p0 re0 rm0 nos0 ru0 dp0}{void fixed} = call _ControlLvdCfg [k7 lr0:0 so:0]{ ia0 a2p0 re0 rm0 nos0 ru0 dp0}{void function ( unsigned-char fixed) fixed}
                                           ;	.line	149; "lvd.c"	ControlLvdCfg(1);
0001a7   0401     movlw   0x01             	MOVLW	0x01
0001a8   29ea     call    0x01ea           	CALL	_ControlLvdCfg
                                           ;;[ICODE] lvd.c:149:  _return($22) :
                                           ;;[ICODE] lvd.c:149: 	eproc _ConfigureLvd [k1 lr0:0 so:0]{ ia0 a2p0 re0 rm0 nos0 ru0 dp0}{void function ( ) fixed}
                                           _00165_DS_:
0001a9   0002     return                   	RETURN	
                                           ; exit point of _ConfigureLvd

                                           ;***
                                           ;  pBlock Stats: dbName = C
                                           ;***
                                           ;has an exit
                                           ;functions called:
                                           ;   _DelayMs
                                           ;   _DelayMs
                                           ;1 compiler assigned register :
                                           ;   r0x100C
                                           ;; Starting pCode block
                                           ;;[ICODE] lvd.c:35:  _entry($32) :
                                           ;;[ICODE] lvd.c:35: 	proc _CheckLvdElectric [k1 lr0:0 so:0]{ ia0 a2p0 re0 rm0 nos0 ru0 dp0}{void function ( unsigned-char fixed) fixed}
                                           S_lvd__CheckLvdElectric	code
                                           _CheckLvdElectric:
                                           ; 2 exit points
                                           ;;[ICODE] lvd.c:35: iTemp0 [k2 lr3:46 so:0]{ ia0 a2p0 re1 rm0 nos0 ru0 dp0}{unsigned-char fixed}{ sir@ _CheckLvdElectric_num_1_12}[r0x1049 ] = recv _CheckLvdElectric [k1 lr0:0 so:0]{ ia0 a2p0 re0 rm0 nos0 ru0 dp0}{void function ( unsigned-char fixed) fixed}
                                           ;	.line	35; "lvd.c"	void CheckLvdElectric(BYTE num)
000118   19e7     movwf   0x67             	MOVWF	r0x100C
                                           ;;[ICODE] lvd.c:37: 	if iTemp0 [k2 lr3:46 so:0]{ ia0 a2p0 re1 rm0 nos0 ru0 dp0}{unsigned-char fixed}{ sir@ _CheckLvdElectric_num_1_12}[r0x1049 ] != 0 goto __iffalse_4($13)
                                           ;	.line	37; "lvd.c"	if(0 == num)
000119   1167     movf    0x67, 0x0        	MOVF	r0x100C,W
00011a   3103     btfss   0x03, 0x2        	BTFSS	STATUS,2
00011b   211f     goto    0x011f           	GOTO	_00121_DS_
                                           ;;[ICODE] lvd.c:38: 	_PCON [k4 lr0:0 so:0]{ ia1 a2p0 re0 rm0 nos0 ru0 dp0}{volatile-unsigned-char sfr} := 0x1e {const-unsigned-char literal}
                                           ;	.line	38; "lvd.c"	PCON = PCON0;  //00011110  4.2v
00011c   041e     movlw   0x1e             	MOVLW	0x1e
00011d   1988     movwf   0x08             	MOVWF	_PCON
                                           ;;[ICODE] lvd.c:38: 	 goto __ifend_4($14)
00011e   213a     goto    0x013a           	GOTO	_00122_DS_
                                           ;;[ICODE] lvd.c:38:  __iffalse_4($13) :
                                           ;;[ICODE] lvd.c:39: 	iTemp1 [k5 lr8:9 so:0]{ ia0 a2p0 re0 rm0 nos0 ru0 dp0}{char fixed} = 0x1 {const-unsigned-char literal} == iTemp0 [k2 lr3:46 so:0]{ ia0 a2p0 re1 rm0 nos0 ru0 dp0}{unsigned-char fixed}{ sir@ _CheckLvdElectric_num_1_12}[r0x1049 ]
                                           _00121_DS_:
                                           ;	.line	39; "lvd.c"	else if(1 == num)
00011f   1167     movf    0x67, 0x0        	MOVF	r0x100C,W
000120   0d01     xorlw   0x01             	XORLW	0x01
000121   3103     btfss   0x03, 0x2        	BTFSS	STATUS,2
000122   2126     goto    0x0126           	GOTO	_00118_DS_
                                           ;;[ICODE] lvd.c:39: 	if iTemp1 [k5 lr8:9 so:0]{ ia0 a2p0 re0 rm0 nos0 ru0 dp0}{char fixed} == 0 goto __iffalse_3($10)
                                           ;;[ICODE] lvd.c:40: 	_PCON [k4 lr0:0 so:0]{ ia1 a2p0 re0 rm0 nos0 ru0 dp0}{volatile-unsigned-char sfr} := 0x1c {const-unsigned-char literal}
                                           ;	.line	40; "lvd.c"	PCON = PCON1;  //00011100  4.1v
000123   041c     movlw   0x1c             	MOVLW	0x1c
000124   1988     movwf   0x08             	MOVWF	_PCON
                                           ;;[ICODE] lvd.c:40: 	 goto __ifend_4($14)
000125   213a     goto    0x013a           	GOTO	_00122_DS_
                                           ;;[ICODE] lvd.c:40:  __iffalse_3($10) :
                                           ;;[ICODE] lvd.c:41: 	iTemp2 [k6 lr13:14 so:0]{ ia0 a2p0 re0 rm0 nos0 ru0 dp0}{char fixed} = 0x2 {const-unsigned-char literal} == iTemp0 [k2 lr3:46 so:0]{ ia0 a2p0 re1 rm0 nos0 ru0 dp0}{unsigned-char fixed}{ sir@ _CheckLvdElectric_num_1_12}[r0x1049 ]
                                           _00118_DS_:
                                           ;	.line	41; "lvd.c"	else if(2 == num)
000126   1167     movf    0x67, 0x0        	MOVF	r0x100C,W
000127   0d02     xorlw   0x02             	XORLW	0x02
000128   3103     btfss   0x03, 0x2        	BTFSS	STATUS,2
000129   212d     goto    0x012d           	GOTO	_00115_DS_
                                           ;;[ICODE] lvd.c:41: 	if iTemp2 [k6 lr13:14 so:0]{ ia0 a2p0 re0 rm0 nos0 ru0 dp0}{char fixed} == 0 goto __iffalse_2($7)
                                           ;;[ICODE] lvd.c:42: 	_PCON [k4 lr0:0 so:0]{ ia1 a2p0 re0 rm0 nos0 ru0 dp0}{volatile-unsigned-char sfr} := 0x12 {const-unsigned-char literal}
                                           ;	.line	42; "lvd.c"	PCON = PCON2;  //00010010  3.3v
00012a   0412     movlw   0x12             	MOVLW	0x12
00012b   1988     movwf   0x08             	MOVWF	_PCON
                                           ;;[ICODE] lvd.c:42: 	 goto __ifend_4($14)
00012c   213a     goto    0x013a           	GOTO	_00122_DS_
                                           ;;[ICODE] lvd.c:42:  __iffalse_2($7) :
                                           ;;[ICODE] lvd.c:43: 	iTemp3 [k7 lr18:19 so:0]{ ia0 a2p0 re0 rm0 nos0 ru0 dp0}{char fixed} = 0x3 {const-unsigned-char literal} == iTemp0 [k2 lr3:46 so:0]{ ia0 a2p0 re1 rm0 nos0 ru0 dp0}{unsigned-char fixed}{ sir@ _CheckLvdElectric_num_1_12}[r0x1049 ]
                                           _00115_DS_:
                                           ;	.line	43; "lvd.c"	else if(3 == num)
00012d   1167     movf    0x67, 0x0        	MOVF	r0x100C,W
00012e   0d03     xorlw   0x03             	XORLW	0x03
00012f   3103     btfss   0x03, 0x2        	BTFSS	STATUS,2
000130   2134     goto    0x0134           	GOTO	_00112_DS_
                                           ;;[ICODE] lvd.c:43: 	if iTemp3 [k7 lr18:19 so:0]{ ia0 a2p0 re0 rm0 nos0 ru0 dp0}{char fixed} == 0 goto __iffalse_1($4)
                                           ;;[ICODE] lvd.c:44: 	_PCON [k4 lr0:0 so:0]{ ia1 a2p0 re0 rm0 nos0 ru0 dp0}{volatile-unsigned-char sfr} := 0xe {const-unsigned-char literal}
                                           ;	.line	44; "lvd.c"	PCON = PCON3;  //00001110  3.0v
000131   040e     movlw   0x0e             	MOVLW	0x0e
000132   1988     movwf   0x08             	MOVWF	_PCON
                                           ;;[ICODE] lvd.c:44: 	 goto __ifend_4($14)
000133   213a     goto    0x013a           	GOTO	_00122_DS_
                                           ;;[ICODE] lvd.c:44:  __iffalse_1($4) :
                                           ;;[ICODE] lvd.c:45: 	iTemp4 [k8 lr23:24 so:0]{ ia0 a2p0 re0 rm0 nos0 ru0 dp0}{char fixed} = 0x4 {const-unsigned-char literal} == iTemp0 [k2 lr3:46 so:0]{ ia0 a2p0 re1 rm0 nos0 ru0 dp0}{unsigned-char fixed}{ sir@ _CheckLvdElectric_num_1_12}[r0x1049 ]
                                           _00112_DS_:
                                           ;	.line	45; "lvd.c"	else if(4 == num)
000134   1167     movf    0x67, 0x0        	MOVF	r0x100C,W
000135   0d04     xorlw   0x04             	XORLW	0x04
000136   3103     btfss   0x03, 0x2        	BTFSS	STATUS,2
000137   213a     goto    0x013a           	GOTO	_00122_DS_
                                           ;;[ICODE] lvd.c:45: 	if iTemp4 [k8 lr23:24 so:0]{ ia0 a2p0 re0 rm0 nos0 ru0 dp0}{char fixed} == 0 goto __ifend_4($14)
                                           ;;[ICODE] lvd.c:46: 	_PCON [k4 lr0:0 so:0]{ ia1 a2p0 re0 rm0 nos0 ru0 dp0}{volatile-unsigned-char sfr} := 0xc {const-unsigned-char literal}
                                           ;	.line	46; "lvd.c"	PCON = PCON4;  //00001100  2.8v	
000138   040c     movlw   0x0c             	MOVLW	0x0c
000139   1988     movwf   0x08             	MOVWF	_PCON
                                           ;;[ICODE] lvd.c:46:  __ifend_4($14) :
                                           ;;[ICODE] lvd.c:48: 	iTemp6 [k12 lr27:29 so:0]{ ia0 a2p0 re0 rm1 nos0 ru0 dp0}{volatile-unsigned-bitfield {0,1} near* fixed}[remat] = &[_PCONbits [k9 lr0:0 so:0]{ ia0 a2p0 re0 rm0 nos0 ru0 dp0}{volatile-struct __00000006 fixed} , 0x0 {const-unsigned-char literal}]
                                           ;;[ICODE] lvd.c:48: 	*(iTemp6 [k12 lr27:29 so:0]{ ia1 a2p0 re0 rm1 nos0 ru0 dp0}{volatile-unsigned-bitfield {0,1} near* fixed}[remat]) := 0x1 {const-unsigned-char literal}
                                           _00122_DS_:
                                           ;	.line	48; "lvd.c"	CMPEN = 1; //开启比较器
00013a   3808     bsf     0x08, 0x0        	BSF	_PCONbits,0
                                           ;;[ICODE] lvd.c:49: 	iTemp7 [k14 lr30:30 so:0]{ ia0 a2p0 re0 rm0 nos0 ru0 dp0}{void fixed} = call _DelayMs [k13 lr0:0 so:0]{ ia0 a2p0 re0 rm0 nos0 ru0 dp0}{void function ( ) fixed}
                                           ;	.line	49; "lvd.c"	DelayMs();
00013b   2acd     call    0x02cd           	CALL	_DelayMs
                                           ;;[ICODE] lvd.c:53: 	iTemp9 [k17 lr31:33 so:0]{ ia0 a2p0 re0 rm1 nos0 ru0 dp0}{volatile-unsigned-bitfield {5,1} near* fixed}[remat] = &[_PCONbits [k9 lr0:0 so:0]{ ia0 a2p0 re0 rm0 nos0 ru0 dp0}{volatile-struct __00000006 fixed} , 0x0 {const-unsigned-char literal}]
                                           ;;[ICODE] lvd.c:53: 	iTemp10 [k18 lr33:34 so:0]{ ia0 a2p0 re0 rm0 nos0 ru0 dp0}{volatile-unsigned-bitfield {5,1} fixed}[r0x104A ] = @[iTemp9 [k17 lr31:33 so:0]{ ia1 a2p0 re0 rm1 nos0 ru0 dp0}{volatile-unsigned-bitfield {5,1} near* fixed}[remat] + 0x0 {const-unsigned-char literal}]
                                           ;	.line	53; "lvd.c"	if(0 == CMPOF)   //电压达到
00013c   3688     btfsc   0x08, 0x5        	BTFSC	_PCONbits,5
00013d   2148     goto    0x0148           	GOTO	_00130_DS_
                                           ;;[ICODE] lvd.c:53: 	if iTemp10 [k18 lr33:34 so:0]{ ia0 a2p0 re0 rm0 nos0 ru0 dp0}{volatile-unsigned-bitfield {5,1} fixed}[r0x104A ] != 0 goto __iffalse_7($22)
                                           ;;[ICODE] lvd.c:55: 	iTemp11 [k20 lr35:36 so:0]{ ia0 a2p0 re0 rm0 nos0 ru0 dp0}{char fixed} = iTemp0 [k2 lr3:46 so:0]{ ia0 a2p0 re1 rm0 nos0 ru0 dp0}{unsigned-char fixed}{ sir@ _CheckLvdElectric_num_1_12}[r0x1049 ] == _LvdDebounceOld [k19 lr0:0 so:0]{ ia0 a2p0 re0 rm0 nos0 ru0 dp0}{unsigned-char fixed}
                                           ;	.line	55; "lvd.c"	if(num == LvdDebounceOld)
00013e   1132     movf    0x32, 0x0        	MOVF	_LvdDebounceOld,W
00013f   1f67     xorwf   0x67, 0x0        	XORWF	r0x100C,W
000140   3103     btfss   0x03, 0x2        	BTFSS	STATUS,2
000141   2144     goto    0x0144           	GOTO	_00124_DS_
                                           ;;[ICODE] lvd.c:55: 	if iTemp11 [k20 lr35:36 so:0]{ ia0 a2p0 re0 rm0 nos0 ru0 dp0}{char fixed} == 0 goto __iffalse_5($16)
                                           ;;[ICODE] lvd.c:57: 	_LvdModelCount [k21 lr0:0 so:0]{ ia1 a2p0 re0 rm0 nos0 ru0 dp0}{unsigned-char fixed} = _LvdModelCount [k21 lr0:0 so:0]{ ia1 a2p0 re0 rm0 nos0 ru0 dp0}{unsigned-char fixed} + 0x1 {const-unsigned-char literal}
                                           ;	.line	57; "lvd.c"	LvdModelCount ++;	
000142   13b3     incf    0x33, 0x1        	INCF	_LvdModelCount,F
                                           ;;[ICODE] lvd.c:57: 	 goto __ifend_5($17)
000143   2145     goto    0x0145           	GOTO	_00125_DS_
                                           ;;[ICODE] lvd.c:57:  __iffalse_5($16) :
                                           ;;[ICODE] lvd.c:61: 	_LvdModelCount [k21 lr0:0 so:0]{ ia1 a2p0 re0 rm0 nos0 ru0 dp0}{unsigned-char fixed} := 0x0 {const-unsigned-char literal}
                                           _00124_DS_:
                                           ;	.line	61; "lvd.c"	LvdModelCount = 0;
000144   18b3     clrf    0x33             	CLRF	_LvdModelCount
                                           ;;[ICODE] lvd.c:61:  __ifend_5($17) :
                                           ;;[ICODE] lvd.c:63: 	_LvdDebounceOld [k19 lr0:0 so:0]{ ia1 a2p0 re0 rm0 nos0 ru0 dp0}{unsigned-char fixed} := iTemp0 [k2 lr3:46 so:0]{ ia0 a2p0 re1 rm0 nos0 ru0 dp0}{unsigned-char fixed}{ sir@ _CheckLvdElectric_num_1_12}[r0x1049 ]
                                           _00125_DS_:
                                           ;	.line	63; "lvd.c"	LvdDebounceOld = num;  
000145   1167     movf    0x67, 0x0        	MOVF	r0x100C,W
000146   19b2     movwf   0x32             	MOVWF	_LvdDebounceOld
                                           ;;[ICODE] lvd.c:63: 	 goto __ifend_7($23)
000147   2152     goto    0x0152           	GOTO	_00131_DS_
                                           ;;[ICODE] lvd.c:63:  __iffalse_7($22) :
                                           ;;[ICODE] lvd.c:67: 	iTemp17 [k27 lr46:47 so:0]{ ia0 a2p0 re0 rm0 nos0 ru0 dp0}{char fixed} = 0x4 {const-unsigned-char literal} == iTemp0 [k2 lr3:46 so:0]{ ia0 a2p0 re1 rm0 nos0 ru0 dp0}{unsigned-char fixed}{ sir@ _CheckLvdElectric_num_1_12}[r0x1049 ]
                                           _00130_DS_:
                                           ;	.line	67; "lvd.c"	if(4 == num)   //没电(小于2.8V)
000148   1167     movf    0x67, 0x0        	MOVF	r0x100C,W
000149   0d04     xorlw   0x04             	XORLW	0x04
00014a   3103     btfss   0x03, 0x2        	BTFSS	STATUS,2
00014b   2150     goto    0x0150           	GOTO	_00127_DS_
                                           ;;[ICODE] lvd.c:67: 	if iTemp17 [k27 lr46:47 so:0]{ ia0 a2p0 re0 rm0 nos0 ru0 dp0}{char fixed} == 0 goto __iffalse_6($19)
                                           ;;[ICODE] lvd.c:69: 	_LvdModelCount [k21 lr0:0 so:0]{ ia1 a2p0 re0 rm0 nos0 ru0 dp0}{unsigned-char fixed} = _LvdModelCount [k21 lr0:0 so:0]{ ia1 a2p0 re0 rm0 nos0 ru0 dp0}{unsigned-char fixed} + 0x1 {const-unsigned-char literal}
                                           ;	.line	69; "lvd.c"	LvdModelCount++;
00014c   13b3     incf    0x33, 0x1        	INCF	_LvdModelCount,F
                                           ;;[ICODE] lvd.c:70: 	_LvdDebounceOld [k19 lr0:0 so:0]{ ia1 a2p0 re0 rm0 nos0 ru0 dp0}{unsigned-char fixed} := 0x5 {const-unsigned-char literal}
                                           ;	.line	70; "lvd.c"	LvdDebounceOld = 5;
00014d   0405     movlw   0x05             	MOVLW	0x05
00014e   19b2     movwf   0x32             	MOVWF	_LvdDebounceOld
                                           ;;[ICODE] lvd.c:70: 	 goto __ifend_7($23)
00014f   2152     goto    0x0152           	GOTO	_00131_DS_
                                           ;;[ICODE] lvd.c:70:  __iffalse_6($19) :
                                           ;;[ICODE] lvd.c:74: 	_LvdModelCount [k21 lr0:0 so:0]{ ia1 a2p0 re0 rm0 nos0 ru0 dp0}{unsigned-char fixed} := 0x0 {const-unsigned-char literal}
                                           _00127_DS_:
                                           ;	.line	74; "lvd.c"	LvdModelCount = 0;
000150   18b3     clrf    0x33             	CLRF	_LvdModelCount
                                           ;;[ICODE] lvd.c:75: 	_LvdDebounceNew [k33 lr0:0 so:0]{ ia1 a2p0 re0 rm0 nos0 ru0 dp0}{unsigned-char fixed} = _LvdDebounceNew [k33 lr0:0 so:0]{ ia1 a2p0 re0 rm0 nos0 ru0 dp0}{unsigned-char fixed} + 0x1 {const-unsigned-char literal}
                                           ;	.line	75; "lvd.c"	LvdDebounceNew++;
000151   13b1     incf    0x31, 0x1        	INCF	_LvdDebounceNew,F
                                           ;;[ICODE] lvd.c:75:  __ifend_7($23) :
                                           ;;[ICODE] lvd.c:79: 	iTemp26 [k37 lr57:58 so:0]{ ia0 a2p0 re0 rm0 nos0 ru0 dp0}{bit fixed} = _LvdDebounceNew [k33 lr0:0 so:0]{ ia0 a2p0 re0 rm0 nos0 ru0 dp0}{unsigned-char fixed} < 0x5 {const-unsigned-char literal}
                                           ;;unsigned compare: left < lit(0x5=5), size=1
                                           _00131_DS_:
                                           ;	.line	79; "lvd.c"	if(LvdDebounceNew >= 5)	
000152   0405     movlw   0x05             	MOVLW	0x05
                                           ;	.line	81; "lvd.c"	LvdDebounceNew = 0;
000153   1b31     subwf   0x31, 0x0        	SUBWF	_LvdDebounceNew,W
                                           ;	.line	84; "lvd.c"	CMPOF = 0;
000154   3403     btfsc   0x03, 0x0        	BTFSC	STATUS,0
000155   18b1     clrf    0x31             	CLRF	_LvdDebounceNew
000156   3e88     bcf     0x08, 0x5        	BCF	_PCONbits,5
                                           ;	.line	85; "lvd.c"	CMPEN = 0;
000157   3c08     bcf     0x08, 0x0        	BCF	_PCONbits,0
                                           ;;[ICODE] lvd.c:87: 	iTemp32 [k45 lr67:68 so:0]{ ia0 a2p0 re0 rm0 nos0 ru0 dp0}{bit fixed} = 0xfa {const-unsigned-char literal} > _LvdModelCount [k21 lr0:0 so:0]{ ia0 a2p0 re0 rm0 nos0 ru0 dp0}{unsigned-char fixed}
                                           ;;unsigned compare: left < lit(0xFA=250), size=1
                                           ;	.line	87; "lvd.c"	if(250 <= LvdModelCount)  //防抖
000158   04fa     movlw   0xfa             	MOVLW	0xfa
000159   1b33     subwf   0x33, 0x0        	SUBWF	_LvdModelCount,W
00015a   3003     btfss   0x03, 0x0        	BTFSS	STATUS,0
00015b   2167     goto    0x0167           	GOTO	_00139_DS_
                                           ;;genSkipc:3257: created from rifx:0x782c44
                                           ;;[ICODE] lvd.c:87: 	if iTemp32 [k45 lr67:68 so:0]{ ia0 a2p0 re0 rm0 nos0 ru0 dp0}{bit fixed} != 0 goto _return($31)
                                           ;;[ICODE] lvd.c:89: 	_LvdDebounceNew [k33 lr0:0 so:0]{ ia1 a2p0 re0 rm0 nos0 ru0 dp0}{unsigned-char fixed} := 0x0 {const-unsigned-char literal}
                                           ;	.line	89; "lvd.c"	LvdDebounceNew = 0;
00015c   18b1     clrf    0x31             	CLRF	_LvdDebounceNew
                                           ;;[ICODE] lvd.c:90: 	_LvdModelCount [k21 lr0:0 so:0]{ ia1 a2p0 re0 rm0 nos0 ru0 dp0}{unsigned-char fixed} := 0x0 {const-unsigned-char literal}
                                           ;	.line	90; "lvd.c"	LvdModelCount = 0;
00015d   18b3     clrf    0x33             	CLRF	_LvdModelCount
                                           ;;[ICODE] lvd.c:91: 	_LvdModel [k48 lr0:0 so:0]{ ia1 a2p0 re0 rm0 nos0 ru0 dp0}{unsigned-char fixed} := _LvdDebounceOld [k19 lr0:0 so:0]{ ia0 a2p0 re0 rm0 nos0 ru0 dp0}{unsigned-char fixed}
                                           ;	.line	91; "lvd.c"	LvdModel = LvdDebounceOld;
00015e   1132     movf    0x32, 0x0        	MOVF	_LvdDebounceOld,W
00015f   19b0     movwf   0x30             	MOVWF	_LvdModel
                                           ;;[ICODE] lvd.c:92: 	iTemp36 [k50 lr73:74 so:0]{ ia0 a2p0 re0 rm0 nos0 ru0 dp0}{char fixed} = 0x5 {const-unsigned-char literal} == _LvdModel [k48 lr0:0 so:0]{ ia0 a2p0 re0 rm0 nos0 ru0 dp0}{unsigned-char fixed}
                                           ;	.line	92; "lvd.c"	if(5 == LvdModel)
000160   1130     movf    0x30, 0x0        	MOVF	_LvdModel,W
000161   0d05     xorlw   0x05             	XORLW	0x05
000162   3103     btfss   0x03, 0x2        	BTFSS	STATUS,2
000163   2166     goto    0x0166           	GOTO	_00135_DS_
                                           ;;[ICODE] lvd.c:92: 	if iTemp36 [k50 lr73:74 so:0]{ ia0 a2p0 re0 rm0 nos0 ru0 dp0}{char fixed} == 0 goto __iffalse_9($27)
                                           ;;[ICODE] lvd.c:94: 	iTemp38 [k54 lr75:77 so:0]{ ia0 a2p0 re0 rm1 nos0 ru0 dp0}{unsigned-bitfield {1,1} near* fixed}[remat] = &[_BITS_DATA0 [k51 lr0:0 so:0]{ ia0 a2p0 re0 rm0 nos0 ru0 dp0}{struct __bits8_t fixed} , 0x0 {const-unsigned-char literal}]
                                           ;;[ICODE] lvd.c:94: 	*(iTemp38 [k54 lr75:77 so:0]{ ia1 a2p0 re0 rm1 nos0 ru0 dp0}{unsigned-bitfield {1,1} near* fixed}[remat]) := 0x1 {const-unsigned-char literal}
                                           ;	.line	94; "lvd.c"	LowBat = 1;
000164   38a7     bsf     0x27, 0x1        	BSF	_BITS_DATA0,1
                                           ;;[ICODE] lvd.c:94: 	 goto _return($31)
000165   2167     goto    0x0167           	GOTO	_00139_DS_
                                           ;;[ICODE] lvd.c:94:  __iffalse_9($27) :
                                           ;;[ICODE] lvd.c:98: 	iTemp40 [k57 lr80:82 so:0]{ ia0 a2p0 re0 rm1 nos0 ru0 dp0}{unsigned-bitfield {1,1} near* fixed}[remat] = &[_BITS_DATA0 [k51 lr0:0 so:0]{ ia0 a2p0 re0 rm0 nos0 ru0 dp0}{struct __bits8_t fixed} , 0x0 {const-unsigned-char literal}]
                                           ;;[ICODE] lvd.c:98: 	*(iTemp40 [k57 lr80:82 so:0]{ ia1 a2p0 re0 rm1 nos0 ru0 dp0}{unsigned-bitfield {1,1} near* fixed}[remat]) := 0x0 {const-unsigned-char literal}
                                           _00135_DS_:
                                           ;	.line	98; "lvd.c"	LowBat = 0;
000166   3ca7     bcf     0x27, 0x1        	BCF	_BITS_DATA0,1
                                           ;;[ICODE] lvd.c:98:  _return($31) :
                                           ;;[ICODE] lvd.c:98: 	eproc _CheckLvdElectric [k1 lr0:0 so:0]{ ia0 a2p0 re0 rm0 nos0 ru0 dp0}{void function ( unsigned-char fixed) fixed}
                                           _00139_DS_:
000167   0002     return                   	RETURN	
                                           ; exit point of _CheckLvdElectric

                                           ;***
                                           ;  pBlock Stats: dbName = C
                                           ;***
                                           ;has an exit
                                           ;; Starting pCode block
                                           ;;[ICODE] lvd.c:9:  _entry($2) :
                                           ;;[ICODE] lvd.c:9: 	proc _CheckLvd [k1 lr0:0 so:0]{ ia0 a2p0 re0 rm0 nos0 ru0 dp0}{void function ( ) fixed}
                                           S_lvd__CheckLvd	code
                                           _CheckLvd:
                                           ; 2 exit points
                                           ;;[ICODE] lvd.c:31:  _return($1) :
                                           ;;[ICODE] lvd.c:31: 	eproc _CheckLvd [k1 lr0:0 so:0]{ ia0 a2p0 re0 rm0 nos0 ru0 dp0}{void function ( ) fixed}
                                           ;	.line	31; "lvd.c"	}
000300   0002     return                   	RETURN	
                                           ; exit point of _CheckLvd


                                           ;	code size estimation:
                                           ;	  188+    0 =   188 instructions (  376 byte)

                                           	end
                                           ;--------------------------------------------------------
                                           ; File Created by SDCC : free open source ANSI-C Compiler
                                           ; Version 3.6.0 #9615 (CYGWIN)
                                           ;--------------------------------------------------------
                                           ; PIC port for the 14-bit core
                                           ;--------------------------------------------------------
                                           ;	.file	"main.c"
                                           	list	p=18p018a0
                                           	radix dec
                                           	include "p18p018a0.inc"
                                                  LIST

                                           ;==========================================================================
                                           ; Build date : Jun 02 2017
                                           ;  HCIDE HC18P018A0 processor include
                                           ; 
                                           ;  (c) Copyright 2012-2021 Holychip Technology, All rights reserved
                                           ;==========================================================================

                                                   NOLIST
                                           ;--------------------------------------------------------
                                           ; external declarations
                                           ;--------------------------------------------------------
                                           	extern	_InitPort
                                           	extern	_InitSystem
                                           	extern	_InitPwm
                                           	extern	_InitRam
                                           	extern	_CheckLvd
                                           	extern	_ConfigureLvd
                                           	extern	_Work
                                           	extern	_ScanKey
                                           	extern	_CheckTemp
                                           	extern	_CheckSleep
                                           	extern	_ControlLevelLow
                                           	extern	_ControlLevelHigh
                                           	extern	_ControlLevel
                                           	extern	_ControlFlash
                                           	extern	_ControlSos
                                           	extern	_LedDisplay
                                           	extern	_LedOn
                                           	extern	_LedOff
                                           	extern	_MotoDisplay
                                           	extern	_LedSwitch
                                           	extern	_MotoSwitch
                                           	extern	_PowOn
                                           	extern	_PowOff
                                           	extern	_test_turn
                                           	extern	_STATUSbits
                                           	extern	_PORTBbits
                                           	extern	_PCONbits
                                           	extern	_IOCBbits
                                           	extern	_PDCONbits
                                           	extern	_ODCONbits
                                           	extern	_PHCONbits
                                           	extern	_INTECONbits
                                           	extern	_INTFLAGbits
                                           	extern	_OPTIONbits
                                           	extern	_TRISBbits
                                           	extern	_PWMCONbits
                                           	extern	_T0CRbits
                                           	extern	_T1CONbits
                                           	extern	_OSCCONbits
                                           	extern	_CMPCRbits
                                           	extern	_PDCON1bits
                                           	extern	_CHARGE0bits
                                           	extern	_CHARGE1bits
                                           	extern	_RAMPbits
                                           	extern	_AUXRbits
                                           	extern	_BITS_DATA0
                                           	extern	_BITS_DATA1
                                           	extern	_g_ucTimer10msCount
                                           	extern	_g_ucTimerWorkCount
                                           	extern	_g_ucFlashTimeHigh
                                           	extern	_g_ucFlashTimeLow
                                           	extern	_g_ucFlashTimeHigh1
                                           	extern	_g_ucFlashTimeLow1
                                           	extern	_g_ucFlashTimeHigh2
                                           	extern	_g_ucFlashTimeLow2
                                           	extern	_LvdModel
                                           	extern	_LvdDebounceNew
                                           	extern	_LvdDebounceOld
                                           	extern	_LvdModelCount
                                           	extern	_LvdLightCount
                                           	extern	_TempCount
                                           	extern	_TempFlag
                                           	extern	_SleepCount
                                           	extern	_SleepFlag
                                           	extern	_MaxLight
                                           	extern	_g_cucTIMER_COUNT_STATE
                                           	extern	_INDF
                                           	extern	_T0
                                           	extern	_PCL
                                           	extern	_STATUS
                                           	extern	_FSR
                                           	extern	_PORTB
                                           	extern	_GPR
                                           	extern	_PCON
                                           	extern	_IOCB
                                           	extern	_PCLATH
                                           	extern	_PDCON
                                           	extern	_ODCON
                                           	extern	_PHCON
                                           	extern	_INTECON
                                           	extern	_INTFLAG
                                           	extern	_OPTION
                                           	extern	_TRISB
                                           	extern	_PWMCON
                                           	extern	_PWM1P
                                           	extern	_PWM2P
                                           	extern	_T0CR
                                           	extern	_T1CON
                                           	extern	_T1
                                           	extern	_T1LOAD
                                           	extern	_PWM0P
                                           	extern	_OSCCON
                                           	extern	_CMPCR
                                           	extern	_PDCON1
                                           	extern	_CHARGE0
                                           	extern	_CHARGE1
                                           	extern	_RAMP
                                           	extern	_AUXR
                                           	extern	_HIRCTRM
                                           ;--------------------------------------------------------
                                           ; global declarations
                                           ;--------------------------------------------------------
                                           	global	__sdcc_gsinit_startup
                                           	global	_main
                                           	global	_VERSION

                                           	global PSAVE
                                           	global SSAVE
                                           	global WSAVE
                                           	global STK12
                                           	global STK11
                                           	global STK10
                                           	global STK09
                                           	global STK08
                                           	global STK07
                                           	global STK06
                                           	global STK05
                                           	global STK04
                                           	global STK03
                                           	global STK02
                                           	global STK01
                                           	global STK00

                                           sharebank udata_ovr 0x0010
                                           PSAVE	res 1
                                           SSAVE	res 1
                                           WSAVE	res 1
                                           STK12	res 1
                                           STK11	res 1
                                           STK10	res 1
                                           STK09	res 1
                                           STK08	res 1
                                           STK07	res 1
                                           STK06	res 1
                                           STK05	res 1
                                           STK04	res 1
                                           STK03	res 1
                                           STK02	res 1
                                           STK01	res 1
                                           STK00	res 1

                                           ;--------------------------------------------------------
                                           ; global definitions
                                           ;--------------------------------------------------------
                                           ;--------------------------------------------------------
                                           ; absolute symbol definitions
                                           ;--------------------------------------------------------
                                           ;--------------------------------------------------------
                                           ; compiler-defined variables
                                           ;--------------------------------------------------------
                                           ;--------------------------------------------------------
                                           ; initialized data
                                           ;--------------------------------------------------------

                                           ID_main_0	code
                                           _VERSION
0002af   0100     retlw   0x00             	retlw 0x00
0002b0   0100     retlw   0x00             	retlw 0x00
0002b1   0100     retlw   0x00             	retlw 0x00
0002b2   0100     retlw   0x00             	retlw 0x00
0002b3   0100     retlw   0x00             	retlw 0x00
0002b4   0100     retlw   0x00             	retlw 0x00
0002b5   0100     retlw   0x00             	retlw 0x00
0002b6   0100     retlw   0x00             	retlw 0x00
0002b7   0100     retlw   0x00             	retlw 0x00
0002b8   0100     retlw   0x00             	retlw 0x00


                                           ID_main_1	code
                                           ___str_0
0002b9   0148     retlw   0x48             	retlw 0x48 ; 'H'
0002ba   0143     retlw   0x43             	retlw 0x43 ; 'C'
0002bb   012d     retlw   0x2d             	retlw 0x2d ; '-'
0002bc   0156     retlw   0x56             	retlw 0x56 ; 'V'
0002bd   0153     retlw   0x53             	retlw 0x53 ; 'S'
0002be   0120     retlw   0x20             	retlw 0x20 ; ' '
0002bf   0156     retlw   0x56             	retlw 0x56 ; 'V'
0002c0   0130     retlw   0x30             	retlw 0x30 ; '0'
0002c1   0131     retlw   0x31             	retlw 0x31 ; '1'
0002c2   0100     retlw   0x00             	retlw 0x00 ; '.'
                                           ;--------------------------------------------------------
                                           ; overlayable items in internal ram 
                                           ;--------------------------------------------------------
                                           ;	udata_ovr
                                           ;--------------------------------------------------------
                                           ; reset vector 
                                           ;--------------------------------------------------------
                                           STARTUP	code 0x0000
000000   0000     nop                      	nop
000001   22f9     goto    0x02f9           	goto	__sdcc_gsinit_startup
                                           ;--------------------------------------------------------
                                           ; code
                                           ;--------------------------------------------------------
                                           code_main	code
                                           ;***
                                           ;  pBlock Stats: dbName = M
                                           ;***
                                           ;has an exit
                                           ;functions called:
                                           ;   _InitPort
                                           ;   _InitSystem
                                           ;   _InitRam
                                           ;   _ScanKey
                                           ;   _test_turn
                                           ;   _LedDisplay
                                           ;   _MotoDisplay
                                           ;   _InitPort
                                           ;   _InitSystem
                                           ;   _InitRam
                                           ;   _ScanKey
                                           ;   _test_turn
                                           ;   _LedDisplay
                                           ;   _MotoDisplay
                                           ;; Starting pCode block
                                           ;;[ICODE] main.c:17:  _entry($7) :
                                           ;;[ICODE] main.c:17: 	proc _main [k1 lr0:0 so:0]{ ia0 a2p0 re0 rm0 nos0 ru0 dp0}{void function ( ) fixed}
                                           S_main__main	code
                                           _main:
                                           ; 2 exit points
                                           ;;[ICODE] main.c:19: 	iTemp0 [k3 lr3:3 so:0]{ ia0 a2p0 re0 rm0 nos0 ru0 dp0}{void fixed} = call _InitPort [k2 lr0:0 so:0]{ ia0 a2p0 re0 rm0 nos0 ru0 dp0}{void function ( ) fixed}
                                           ;	.line	19; "main.c"	InitPort();
00024b   2a13     call    0x0213           	CALL	_InitPort
                                           ;;[ICODE] main.c:20: 	iTemp1 [k5 lr4:4 so:0]{ ia0 a2p0 re0 rm0 nos0 ru0 dp0}{void fixed} = call _InitSystem [k4 lr0:0 so:0]{ ia0 a2p0 re0 rm0 nos0 ru0 dp0}{void function ( ) fixed}
                                           ;	.line	20; "main.c"	InitSystem();
00024c   2aa5     call    0x02a5           	CALL	_InitSystem
                                           ;;[ICODE] main.c:21: 	iTemp2 [k7 lr5:5 so:0]{ ia0 a2p0 re0 rm0 nos0 ru0 dp0}{void fixed} = call _InitRam [k6 lr0:0 so:0]{ ia0 a2p0 re0 rm0 nos0 ru0 dp0}{void function ( ) fixed}
                                           ;	.line	21; "main.c"	InitRam();
00024d   2ade     call    0x02de           	CALL	_InitRam
                                           ;;[ICODE] main.c:22: 	iTemp4 [k11 lr6:8 so:0]{ ia0 a2p0 re0 rm1 nos0 ru0 dp0}{volatile-unsigned-bitfield {0,1} near* fixed}[remat] = &[_INTECONbits [k8 lr0:0 so:0]{ ia0 a2p0 re0 rm0 nos0 ru0 dp0}{volatile-struct __00000024 fixed} , 0x0 {const-unsigned-char literal}]
                                           ;;[ICODE] main.c:22: 	*(iTemp4 [k11 lr6:8 so:0]{ ia1 a2p0 re0 rm1 nos0 ru0 dp0}{volatile-unsigned-bitfield {0,1} near* fixed}[remat]) := 0x1 {const-unsigned-char literal}
                                           ;	.line	22; "main.c"	T0IE = 1;		//使能TMR0溢出中断
00024e   380e     bsf     0x0e, 0x0        	BSF	_INTECONbits,0
                                           ;;[ICODE] main.c:23: 	iTemp6 [k14 lr9:11 so:0]{ ia0 a2p0 re0 rm1 nos0 ru0 dp0}{volatile-unsigned-bitfield {7,1} near* fixed}[remat] = &[_INTECONbits [k8 lr0:0 so:0]{ ia0 a2p0 re0 rm0 nos0 ru0 dp0}{volatile-struct __00000024 fixed} , 0x0 {const-unsigned-char literal}]
                                           ;;[ICODE] main.c:23: 	*(iTemp6 [k14 lr9:11 so:0]{ ia1 a2p0 re0 rm1 nos0 ru0 dp0}{volatile-unsigned-bitfield {7,1} near* fixed}[remat]) := 0x1 {const-unsigned-char literal}
                                           ;	.line	23; "main.c"	GIE = 1;		//使能所有中断   
00024f   3b8e     bsf     0x0e, 0x7        	BSF	_INTECONbits,7
                                           ;;[ICODE] main.c:24: inline
000250   0004     clrwdt                   	clrwdt
                                           ;;[ICODE] main.c:26:  _whilebody_0($4) :
                                           ;;[ICODE] main.c:28: inline
                                           _00112_DS_:
000251   0004     clrwdt                   	clrwdt
                                           ;;[ICODE] main.c:30: 	iTemp7 [k16 lr16:20 so:0]{ ia0 a2p0 re0 rm1 nos0 ru0 dp0}{unsigned-bitfield {0,1} near* fixed}[remat] = &[_BITS_DATA0 [k15 lr0:0 so:0]{ ia0 a2p0 re0 rm0 nos0 ru0 dp0}{struct __bits8_t fixed} , 0x0 {const-unsigned-char literal}]
                                           ;;[ICODE] main.c:30: 	iTemp8 [k18 lr17:18 so:0]{ ia0 a2p0 re0 rm1 nos0 ru0 dp0}{unsigned-bitfield {0,1} near* fixed}[remat] := iTemp7 [k16 lr16:20 so:0]{ ia0 a2p0 re0 rm1 nos0 ru0 dp0}{unsigned-bitfield {0,1} near* fixed}[remat]
                                           ;;[ICODE] main.c:30: 	iTemp9 [k19 lr18:19 so:0]{ ia0 a2p0 re0 rm0 nos0 ru0 dp0}{unsigned-bitfield {0,1} fixed}[r0x1045 ] = @[iTemp8 [k18 lr17:18 so:0]{ ia1 a2p0 re0 rm1 nos0 ru0 dp0}{unsigned-bitfield {0,1} near* fixed}[remat] + 0x0 {const-unsigned-char literal}]
                                           ;	.line	30; "main.c"	if (BIT_TIMER_10MS)
000252   3027     btfss   0x27, 0x0        	BTFSS	_BITS_DATA0,0
000253   2257     goto    0x0257           	GOTO	_00110_DS_
                                           ;;[ICODE] main.c:30: 	if iTemp9 [k19 lr18:19 so:0]{ ia0 a2p0 re0 rm0 nos0 ru0 dp0}{unsigned-bitfield {0,1} fixed}[r0x1045 ] == 0 goto __iffalse_0($2)
                                           ;;[ICODE] main.c:32: 	iTemp11 [k22 lr20:21 so:0]{ ia0 a2p0 re0 rm1 nos0 ru0 dp0}{unsigned-bitfield {0,1} near* fixed}[remat] := iTemp7 [k16 lr16:20 so:0]{ ia0 a2p0 re0 rm1 nos0 ru0 dp0}{unsigned-bitfield {0,1} near* fixed}[remat]
                                           ;;[ICODE] main.c:32: 	*(iTemp11 [k22 lr20:21 so:0]{ ia1 a2p0 re0 rm1 nos0 ru0 dp0}{unsigned-bitfield {0,1} near* fixed}[remat]) := 0x0 {const-unsigned-char literal}
                                           ;	.line	32; "main.c"	BIT_TIMER_10MS = 0;
000254   3c27     bcf     0x27, 0x0        	BCF	_BITS_DATA0,0
                                           ;;[ICODE] main.c:34: 	iTemp12 [k24 lr22:22 so:0]{ ia0 a2p0 re0 rm0 nos0 ru0 dp0}{void fixed} = call _ScanKey [k23 lr0:0 so:0]{ ia0 a2p0 re0 rm0 nos0 ru0 dp0}{void function ( ) fixed}
                                           ;	.line	34; "main.c"	ScanKey();                       //按键检测	
000255   28af     call    0x00af           	CALL	_ScanKey
                                           ;;[ICODE] main.c:35: 	iTemp13 [k26 lr23:23 so:0]{ ia0 a2p0 re0 rm0 nos0 ru0 dp0}{void fixed} = call _test_turn [k25 lr0:0 so:0]{ ia0 a2p0 re0 rm0 nos0 ru0 dp0}{void function ( ) fixed}
                                           ;	.line	35; "main.c"	test_turn();
000256   2a84     call    0x0284           	CALL	_test_turn
                                           ;;[ICODE] main.c:35:  __iffalse_0($2) :
                                           ;;[ICODE] main.c:38: 	iTemp14 [k28 lr25:25 so:0]{ ia0 a2p0 re0 rm0 nos0 ru0 dp0}{void fixed} = call _LedDisplay [k27 lr0:0 so:0]{ ia0 a2p0 re0 rm0 nos0 ru0 dp0}{void function ( ) fixed}
                                           _00110_DS_:
                                           ;	.line	38; "main.c"	LedDisplay();					 //LED指示灯
000257   2a9a     call    0x029a           	CALL	_LedDisplay
                                           ;;[ICODE] main.c:39: 	iTemp15 [k30 lr26:26 so:0]{ ia0 a2p0 re0 rm0 nos0 ru0 dp0}{void fixed} = call _MotoDisplay [k29 lr0:0 so:0]{ ia0 a2p0 re0 rm0 nos0 ru0 dp0}{void function ( ) fixed}
                                           ;	.line	39; "main.c"	MotoDisplay();					 //电机控制
000258   2a8f     call    0x028f           	CALL	_MotoDisplay
                                           ;;[ICODE] main.c:39: 	 goto _whilebody_0($4)
000259   2251     goto    0x0251           	GOTO	_00112_DS_
                                           ;;[ICODE] main.c:39:  _return($6) :
                                           ;;[ICODE] main.c:39: 	eproc _main [k1 lr0:0 so:0]{ ia0 a2p0 re0 rm0 nos0 ru0 dp0}{void function ( ) fixed}
00025a   0002     return                   	RETURN	
                                           ; exit point of _main

                                           ;***
                                           ;  pBlock Stats: dbName = C
                                           ;***
                                           ;has an exit
                                           ;; Starting pCode block
                                           ;;[ICODE] main.c:14:  _entry($2) :
                                           ;;[ICODE] main.c:14: 	proc __sdcc_gsinit_startup [k1 lr0:0 so:0]{ ia0 a2p0 re0 rm0 nos0 ru0 dp0}{void function ( ) fixed}
                                           S_main___sdcc_gsinit_startup	code
                                           __sdcc_gsinit_startup:
                                           ; 2 exit points
                                           ;;[ICODE] main.c:14: inline
                                           	pagesel	_main 
                                           ;;[ICODE] main.c:14: inline
0002f9   224b     goto    0x024b           	goto	_main 
                                           ;;[ICODE] main.c:14:  _return($1) :
                                           ;;[ICODE] main.c:14: 	eproc __sdcc_gsinit_startup [k1 lr0:0 so:0]{ ia0 a2p0 re0 rm0 nos0 ru0 dp0}{void function ( ) fixed}
0002fa   0002     return                   	RETURN	
                                           ; exit point of __sdcc_gsinit_startup


                                           ;	code size estimation:
                                           ;	   15+    0 =    15 instructions (   30 byte)

                                           	end
                                           ;--------------------------------------------------------
                                           ; File Created by SDCC : free open source ANSI-C Compiler
                                           ; Version 3.6.0 #9615 (CYGWIN)
                                           ;--------------------------------------------------------
                                           ; PIC port for the 14-bit core
                                           ;--------------------------------------------------------
                                           ;	.file	"temp.c"
                                           	list	p=18p018a0
                                           	radix dec
                                           	include "p18p018a0.inc"
                                                  LIST

                                           ;==========================================================================
                                           ; Build date : Jun 02 2017
                                           ;  HCIDE HC18P018A0 processor include
                                           ; 
                                           ;  (c) Copyright 2012-2021 Holychip Technology, All rights reserved
                                           ;==========================================================================

                                                   NOLIST
                                           ;--------------------------------------------------------
                                           ; external declarations
                                           ;--------------------------------------------------------
                                           	extern	_DelayMs
                                           	extern	_ControlLevelLow
                                           	extern	_ControlLevelHigh
                                           	extern	_ControlLevel
                                           	extern	_ControlFlash
                                           	extern	_ControlSos
                                           	extern	_STATUSbits
                                           	extern	_PORTBbits
                                           	extern	_PCONbits
                                           	extern	_IOCBbits
                                           	extern	_PDCONbits
                                           	extern	_ODCONbits
                                           	extern	_PHCONbits
                                           	extern	_INTECONbits
                                           	extern	_INTFLAGbits
                                           	extern	_OPTIONbits
                                           	extern	_TRISBbits
                                           	extern	_PWMCONbits
                                           	extern	_T0CRbits
                                           	extern	_T1CONbits
                                           	extern	_OSCCONbits
                                           	extern	_CMPCRbits
                                           	extern	_PDCON1bits
                                           	extern	_CHARGE0bits
                                           	extern	_CHARGE1bits
                                           	extern	_RAMPbits
                                           	extern	_AUXRbits
                                           	extern	_BITS_DATA0
                                           	extern	_BITS_DATA1
                                           	extern	_g_ucTimer10msCount
                                           	extern	_g_ucTimerWorkCount
                                           	extern	_g_ucFlashTimeHigh
                                           	extern	_g_ucFlashTimeLow
                                           	extern	_g_ucFlashTimeHigh1
                                           	extern	_g_ucFlashTimeLow1
                                           	extern	_g_ucFlashTimeHigh2
                                           	extern	_g_ucFlashTimeLow2
                                           	extern	_LvdModel
                                           	extern	_LvdDebounceNew
                                           	extern	_LvdDebounceOld
                                           	extern	_LvdModelCount
                                           	extern	_LvdLightCount
                                           	extern	_TempCount
                                           	extern	_TempFlag
                                           	extern	_SleepCount
                                           	extern	_SleepFlag
                                           	extern	_MaxLight
                                           	extern	_g_cucTIMER_COUNT_STATE
                                           	extern	_INDF
                                           	extern	_T0
                                           	extern	_PCL
                                           	extern	_STATUS
                                           	extern	_FSR
                                           	extern	_PORTB
                                           	extern	_GPR
                                           	extern	_PCON
                                           	extern	_IOCB
                                           	extern	_PCLATH
                                           	extern	_PDCON
                                           	extern	_ODCON
                                           	extern	_PHCON
                                           	extern	_INTECON
                                           	extern	_INTFLAG
                                           	extern	_OPTION
                                           	extern	_TRISB
                                           	extern	_PWMCON
                                           	extern	_PWM1P
                                           	extern	_PWM2P
                                           	extern	_T0CR
                                           	extern	_T1CON
                                           	extern	_T1
                                           	extern	_T1LOAD
                                           	extern	_PWM0P
                                           	extern	_OSCCON
                                           	extern	_CMPCR
                                           	extern	_PDCON1
                                           	extern	_CHARGE0
                                           	extern	_CHARGE1
                                           	extern	_RAMP
                                           	extern	_AUXR
                                           	extern	_HIRCTRM

                                           	extern PSAVE
                                           	extern SSAVE
                                           	extern WSAVE
                                           	extern STK12
                                           	extern STK11
                                           	extern STK10
                                           	extern STK09
                                           	extern STK08
                                           	extern STK07
                                           	extern STK06
                                           	extern STK05
                                           	extern STK04
                                           	extern STK03
                                           	extern STK02
                                           	extern STK01
                                           	extern STK00
                                           ;--------------------------------------------------------
                                           ; global declarations
                                           ;--------------------------------------------------------
                                           	global	_CheckSleep
                                           	global	_CheckTemp

                                           ;--------------------------------------------------------
                                           ; global definitions
                                           ;--------------------------------------------------------
                                           ;--------------------------------------------------------
                                           ; absolute symbol definitions
                                           ;--------------------------------------------------------
                                           ;--------------------------------------------------------
                                           ; compiler-defined variables
                                           ;--------------------------------------------------------
                                           UDL_temp_0	udata
                                           r0x1006	res	1
                                           r0x1007	res	1
                                           ;--------------------------------------------------------
                                           ; initialized data
                                           ;--------------------------------------------------------
                                           ;--------------------------------------------------------
                                           ; overlayable items in internal ram 
                                           ;--------------------------------------------------------
                                           ;	udata_ovr
                                           ;--------------------------------------------------------
                                           ; code
                                           ;--------------------------------------------------------
                                           code_temp	code
                                           ;***
                                           ;  pBlock Stats: dbName = C
                                           ;***
                                           ;has an exit
                                           ;functions called:
                                           ;   _DelayMs
                                           ;   _DelayMs
                                           ;2 compiler assigned registers:
                                           ;   r0x1006
                                           ;   r0x1007
                                           ;; Starting pCode block
                                           ;;[ICODE] temp.c:30:  _entry($9) :
                                           ;;[ICODE] temp.c:30: 	proc _CheckSleep [k1 lr0:0 so:0]{ ia0 a2p0 re0 rm0 nos0 ru0 dp0}{void function ( ) fixed}
                                           S_temp__CheckSleep	code
                                           _CheckSleep:
                                           ; 2 exit points
                                           ;;[ICODE] temp.c:32: 	iTemp1 [k5 lr3:5 so:0]{ ia0 a2p0 re0 rm1 nos0 ru0 dp0}{unsigned-bitfield {5,1} near* fixed}[remat] = &[_BITS_DATA0 [k2 lr0:0 so:0]{ ia0 a2p0 re0 rm0 nos0 ru0 dp0}{struct __bits8_t fixed} , 0x0 {const-unsigned-char literal}]
                                           ;;[ICODE] temp.c:32: 	iTemp2 [k6 lr5:6 so:0]{ ia0 a2p0 re0 rm0 nos0 ru0 dp0}{unsigned-bitfield {5,1} fixed}[r0x104B ] = @[iTemp1 [k5 lr3:5 so:0]{ ia1 a2p0 re0 rm1 nos0 ru0 dp0}{unsigned-bitfield {5,1} near* fixed}[remat] + 0x0 {const-unsigned-char literal}]
                                           ;	.line	32; "temp.c"	if(1 == IsLight || 1 == CHARF)
0001aa   18a0     clrf    0x20             	CLRF	r0x1006
0001ab   36a7     btfsc   0x27, 0x5        	BTFSC	_BITS_DATA0,5
0001ac   13a0     incf    0x20, 0x1        	INCF	r0x1006,F
                                           ;;[ICODE] temp.c:32: 	iTemp3 [k7 lr6:7 so:0]{ ia0 a2p0 re0 rm0 nos0 ru0 dp0}{char fixed}[r0x104C ] = (char register)iTemp2 [k6 lr5:6 so:0]{ ia0 a2p0 re0 rm0 nos0 ru0 dp0}{unsigned-bitfield {5,1} fixed}[r0x104B ]
0001ad   1120     movf    0x20, 0x0        	MOVF	r0x1006,W
0001ae   19a1     movwf   0x21             	MOVWF	r0x1007
0001af   0d01     xorlw   0x01             	XORLW	0x01
0001b0   3503     btfsc   0x03, 0x2        	BTFSC	STATUS,2
0001b1   21b9     goto    0x01b9           	GOTO	_00114_DS_
0001b2   18a0     clrf    0x20             	CLRF	r0x1006
0001b3   368f     btfsc   0x0f, 0x5        	BTFSC	_INTFLAGbits,5
0001b4   13a0     incf    0x20, 0x1        	INCF	r0x1006,F
                                           ;;[ICODE] temp.c:32: 	iTemp8 [k14 lr12:13 so:0]{ ia0 a2p0 re0 rm0 nos0 ru0 dp0}{char fixed}[r0x104C ] = (char register)iTemp7 [k13 lr11:12 so:0]{ ia0 a2p0 re0 rm0 nos0 ru0 dp0}{volatile-unsigned-bitfield {5,1} fixed}[r0x104B ]
0001b5   1120     movf    0x20, 0x0        	MOVF	r0x1006,W
0001b6   19a1     movwf   0x21             	MOVWF	r0x1007
                                           ;	.line	34; "temp.c"	SleepCount = 0;
0001b7   0d01     xorlw   0x01             	XORLW	0x01
                                           ;	.line	37; "temp.c"	if(SleepCount < 250)
0001b8   3503     btfsc   0x03, 0x2        	BTFSC	STATUS,2
                                           _00114_DS_:
0001b9   18b7     clrf    0x37             	CLRF	_SleepCount
0001ba   04fa     movlw   0xfa             	MOVLW	0xfa
0001bb   1b37     subwf   0x37, 0x0        	SUBWF	_SleepCount,W
0001bc   3403     btfsc   0x03, 0x0        	BTFSC	STATUS,0
0001bd   21c0     goto    0x01c0           	GOTO	_00118_DS_
                                           ;;genSkipc:3257: created from rifx:0x782c44
                                           ;;[ICODE] temp.c:37: 	if iTemp11 [k18 lr18:19 so:0]{ ia0 a2p0 re0 rm0 nos0 ru0 dp0}{char fixed} == 0 goto __iffalse_3($5)
                                           ;;[ICODE] temp.c:39: 	_SleepCount [k16 lr0:0 so:0]{ ia1 a2p0 re0 rm0 nos0 ru0 dp0}{unsigned-char fixed} = _SleepCount [k16 lr0:0 so:0]{ ia1 a2p0 re0 rm0 nos0 ru0 dp0}{unsigned-char fixed} + 0x1 {const-unsigned-char literal}
                                           ;	.line	39; "temp.c"	SleepCount++;
0001be   13b7     incf    0x37, 0x1        	INCF	_SleepCount,F
                                           ;;[ICODE] temp.c:40: 	ret
                                           ;	.line	40; "temp.c"	return;
0001bf   21e9     goto    0x01e9           	GOTO	_00121_DS_
                                           ;;[ICODE] temp.c:40:  __iffalse_3($5) :
                                           ;;[ICODE] temp.c:43: 	iTemp16 [k25 lr24:26 so:0]{ ia0 a2p0 re0 rm1 nos0 ru0 dp0}{volatile-unsigned-bitfield {2,1} near* fixed}[remat] = &[_PORTBbits [k22 lr0:0 so:0]{ ia0 a2p0 re0 rm0 nos0 ru0 dp0}{volatile-struct __00000005 fixed} , 0x0 {const-unsigned-char literal}]
                                           ;;[ICODE] temp.c:43: 	iTemp17 [k26 lr26:27 so:0]{ ia0 a2p0 re0 rm0 nos0 ru0 dp0}{volatile-unsigned-bitfield {2,1} fixed}[r0x104B ] = @[iTemp16 [k25 lr24:26 so:0]{ ia1 a2p0 re0 rm1 nos0 ru0 dp0}{volatile-unsigned-bitfield {2,1} near* fixed}[remat] + 0x0 {const-unsigned-char literal}]
                                           _00118_DS_:
                                           ;	.line	43; "temp.c"	if(PORT_KEY_1 == KEY_TURN_ON)
0001c0   3506     btfsc   0x06, 0x2        	BTFSC	_PORTBbits,2
0001c1   21c3     goto    0x01c3           	GOTO	_00120_DS_
                                           ;;[ICODE] temp.c:43: 	if iTemp17 [k26 lr26:27 so:0]{ ia0 a2p0 re0 rm0 nos0 ru0 dp0}{volatile-unsigned-bitfield {2,1} fixed}[r0x104B ] != 0 goto __iffalse_4($7)
                                           ;;[ICODE] temp.c:45: 	ret
                                           ;	.line	45; "temp.c"	return;
0001c2   21e9     goto    0x01e9           	GOTO	_00121_DS_
                                           ;;[ICODE] temp.c:45:  __iffalse_4($7) :
                                           ;;[ICODE] temp.c:48: 	iTemp19 [k30 lr30:32 so:0]{ ia0 a2p0 re0 rm1 nos0 ru0 dp0}{volatile-unsigned-bitfield {4,1} near* fixed}[remat] = &[_CMPCRbits [k27 lr0:0 so:0]{ ia0 a2p0 re0 rm0 nos0 ru0 dp0}{volatile-struct __00000056 fixed} , 0x0 {const-unsigned-char literal}]
                                           ;;[ICODE] temp.c:48: 	*(iTemp19 [k30 lr30:32 so:0]{ ia1 a2p0 re0 rm1 nos0 ru0 dp0}{volatile-unsigned-bitfield {4,1} near* fixed}[remat]) := 0x0 {const-unsigned-char literal}
                                           _00120_DS_:
                                           ;	.line	48; "temp.c"	LVDM = 0;		
0001c3   3e51     bcf     0x51, 0x4        	BCF	_CMPCRbits,4
                                           ;;[ICODE] temp.c:49: 	iTemp21 [k34 lr33:35 so:0]{ ia0 a2p0 re0 rm1 nos0 ru0 dp0}{volatile-unsigned-bitfield {0,1} near* fixed}[remat] = &[_PCONbits [k31 lr0:0 so:0]{ ia0 a2p0 re0 rm0 nos0 ru0 dp0}{volatile-struct __00000006 fixed} , 0x0 {const-unsigned-char literal}]
                                           ;;[ICODE] temp.c:49: 	*(iTemp21 [k34 lr33:35 so:0]{ ia1 a2p0 re0 rm1 nos0 ru0 dp0}{volatile-unsigned-bitfield {0,1} near* fixed}[remat]) := 0x0 {const-unsigned-char literal}
                                           ;	.line	49; "temp.c"	CMPEN = 0;
0001c4   3c08     bcf     0x08, 0x0        	BCF	_PCONbits,0
                                           ;;[ICODE] temp.c:50: 	iTemp23 [k37 lr36:38 so:0]{ ia0 a2p0 re0 rm1 nos0 ru0 dp0}{volatile-unsigned-bitfield {5,1} near* fixed}[remat] = &[_PCONbits [k31 lr0:0 so:0]{ ia0 a2p0 re0 rm0 nos0 ru0 dp0}{volatile-struct __00000006 fixed} , 0x0 {const-unsigned-char literal}]
                                           ;;[ICODE] temp.c:50: 	*(iTemp23 [k37 lr36:38 so:0]{ ia1 a2p0 re0 rm1 nos0 ru0 dp0}{volatile-unsigned-bitfield {5,1} near* fixed}[remat]) := 0x0 {const-unsigned-char literal}
                                           ;	.line	50; "temp.c"	CMPOF = 0;
0001c5   3e88     bcf     0x08, 0x5        	BCF	_PCONbits,5
                                           ;;[ICODE] temp.c:51: 	iTemp25 [k41 lr39:41 so:0]{ ia0 a2p0 re0 rm1 nos0 ru0 dp0}{volatile-unsigned-bitfield {6,1} near* fixed}[remat] = &[_CHARGE1bits [k38 lr0:0 so:0]{ ia0 a2p0 re0 rm0 nos0 ru0 dp0}{volatile-struct __00000065 fixed} , 0x0 {const-unsigned-char literal}]
                                           ;;[ICODE] temp.c:51: 	*(iTemp25 [k41 lr39:41 so:0]{ ia1 a2p0 re0 rm1 nos0 ru0 dp0}{volatile-unsigned-bitfield {6,1} near* fixed}[remat]) := 0x0 {const-unsigned-char literal}
                                           ;	.line	51; "temp.c"	TEMPEN = 0;
0001c6   3f54     bcf     0x54, 0x6        	BCF	_CHARGE1bits,6
                                           ;;[ICODE] temp.c:52: 	iTemp27 [k44 lr42:44 so:0]{ ia0 a2p0 re0 rm1 nos0 ru0 dp0}{volatile-unsigned-bitfield {4,1} near* fixed}[remat] = &[_INTFLAGbits [k9 lr0:0 so:0]{ ia0 a2p0 re0 rm0 nos0 ru0 dp0}{volatile-struct __00000027 fixed} , 0x0 {const-unsigned-char literal}]
                                           ;;[ICODE] temp.c:52: 	*(iTemp27 [k44 lr42:44 so:0]{ ia1 a2p0 re0 rm1 nos0 ru0 dp0}{volatile-unsigned-bitfield {4,1} near* fixed}[remat]) := 0x0 {const-unsigned-char literal}
                                           ;	.line	52; "temp.c"	TMPF = 0;
0001c7   3e0f     bcf     0x0f, 0x4        	BCF	_INTFLAGbits,4
                                           ;;[ICODE] temp.c:53: 	iTemp29 [k48 lr45:47 so:0]{ ia0 a2p0 re0 rm1 nos0 ru0 dp0}{volatile-unsigned-bitfield {7,1} near* fixed}[remat] = &[_RAMPbits [k45 lr0:0 so:0]{ ia0 a2p0 re0 rm0 nos0 ru0 dp0}{volatile-struct __00000070 fixed} , 0x0 {const-unsigned-char literal}]
                                           ;;[ICODE] temp.c:53: 	*(iTemp29 [k48 lr45:47 so:0]{ ia1 a2p0 re0 rm1 nos0 ru0 dp0}{volatile-unsigned-bitfield {7,1} near* fixed}[remat]) := 0x0 {const-unsigned-char literal}
                                           ;	.line	53; "temp.c"	MODSEL = 0;
0001c8   3fd5     bcf     0x55, 0x7        	BCF	_RAMPbits,7
                                           ;;[ICODE] temp.c:54: 	iTemp30 [k50 lr48:48 so:0]{ ia0 a2p0 re0 rm0 nos0 ru0 dp0}{void fixed} = call _DelayMs [k49 lr0:0 so:0]{ ia0 a2p0 re0 rm0 nos0 ru0 dp0}{void function ( ) fixed}
                                           ;	.line	54; "temp.c"	DelayMs();
0001c9   2acd     call    0x02cd           	CALL	_DelayMs
                                           ;;[ICODE] temp.c:56: 	iTemp32 [k53 lr49:51 so:0]{ ia0 a2p0 re0 rm1 nos0 ru0 dp0}{volatile-unsigned-bitfield {7,1} near* fixed}[remat] = &[_PCONbits [k31 lr0:0 so:0]{ ia0 a2p0 re0 rm0 nos0 ru0 dp0}{volatile-struct __00000006 fixed} , 0x0 {const-unsigned-char literal}]
                                           ;;[ICODE] temp.c:56: 	*(iTemp32 [k53 lr49:51 so:0]{ ia1 a2p0 re0 rm1 nos0 ru0 dp0}{volatile-unsigned-bitfield {7,1} near* fixed}[remat]) := 0x0 {const-unsigned-char literal}
                                           ;	.line	56; "temp.c"	WDTEN = 0;
0001ca   3f88     bcf     0x08, 0x7        	BCF	_PCONbits,7
                                           ;;[ICODE] temp.c:57: 	_TRISB [k54 lr0:0 so:0]{ ia1 a2p0 re0 rm0 nos0 ru0 dp0}{volatile-unsigned-char sfr} := 0xc {const-unsigned-char literal}
                                           ;	.line	57; "temp.c"	TRISB = 0x0C; //00001100
0001cb   040c     movlw   0x0c             	MOVLW	0x0c
0001cc   19c6     movwf   0x46             	MOVWF	_TRISB
                                           ;;[ICODE] temp.c:58: 	_PORTB [k55 lr0:0 so:0]{ ia1 a2p0 re0 rm0 nos0 ru0 dp0}{volatile-unsigned-char sfr} := 0x2f {const-unsigned-char literal}
                                           ;	.line	58; "temp.c"	PORTB = 0x2F; //00101111 
0001cd   042f     movlw   0x2f             	MOVLW	0x2f
0001ce   1986     movwf   0x06             	MOVWF	_PORTB
                                           ;;[ICODE] temp.c:59: 	_IOCB [k56 lr0:0 so:0]{ ia1 a2p0 re0 rm0 nos0 ru0 dp0}{volatile-unsigned-char sfr} := 0x8 {const-unsigned-char literal}
                                           ;	.line	59; "temp.c"	IOCB = 0x08;
0001cf   0408     movlw   0x08             	MOVLW	0x08
0001d0   1989     movwf   0x09             	MOVWF	_IOCB
                                           ;;[ICODE] temp.c:63: inline
0001d1   1106     movf    0x06, 0x0        	movf	PORTB,W
                                           	
                                           ;;[ICODE] temp.c:65: 	iTemp34 [k59 lr56:58 so:0]{ ia0 a2p0 re0 rm1 nos0 ru0 dp0}{volatile-unsigned-bitfield {1,1} near* fixed}[remat] = &[_INTFLAGbits [k9 lr0:0 so:0]{ ia0 a2p0 re0 rm0 nos0 ru0 dp0}{volatile-struct __00000027 fixed} , 0x0 {const-unsigned-char literal}]
                                           ;;[ICODE] temp.c:65: 	*(iTemp34 [k59 lr56:58 so:0]{ ia1 a2p0 re0 rm1 nos0 ru0 dp0}{volatile-unsigned-bitfield {1,1} near* fixed}[remat]) := 0x0 {const-unsigned-char literal}
                                           ;	.line	65; "temp.c"	PBIF = 0;
0001d2   3c8f     bcf     0x0f, 0x1        	BCF	_INTFLAGbits,1
                                           ;;[ICODE] temp.c:66: 	iTemp36 [k63 lr59:61 so:0]{ ia0 a2p0 re0 rm1 nos0 ru0 dp0}{volatile-unsigned-bitfield {1,1} near* fixed}[remat] = &[_INTECONbits [k60 lr0:0 so:0]{ ia0 a2p0 re0 rm0 nos0 ru0 dp0}{volatile-struct __00000024 fixed} , 0x0 {const-unsigned-char literal}]
                                           ;;[ICODE] temp.c:66: 	*(iTemp36 [k63 lr59:61 so:0]{ ia1 a2p0 re0 rm1 nos0 ru0 dp0}{volatile-unsigned-bitfield {1,1} near* fixed}[remat]) := 0x1 {const-unsigned-char literal}
                                           ;	.line	66; "temp.c"	PBIE = 1;
0001d3   388e     bsf     0x0e, 0x1        	BSF	_INTECONbits,1
                                           ;;[ICODE] temp.c:67: 	iTemp38 [k66 lr62:64 so:0]{ ia0 a2p0 re0 rm1 nos0 ru0 dp0}{volatile-unsigned-bitfield {7,1} near* fixed}[remat] = &[_INTECONbits [k60 lr0:0 so:0]{ ia0 a2p0 re0 rm0 nos0 ru0 dp0}{volatile-struct __00000024 fixed} , 0x0 {const-unsigned-char literal}]
                                           ;;[ICODE] temp.c:67: 	*(iTemp38 [k66 lr62:64 so:0]{ ia1 a2p0 re0 rm1 nos0 ru0 dp0}{volatile-unsigned-bitfield {7,1} near* fixed}[remat]) := 0x0 {const-unsigned-char literal}
                                           ;	.line	67; "temp.c"	GIE = 0;
0001d4   3f8e     bcf     0x0e, 0x7        	BCF	_INTECONbits,7
                                           ;;[ICODE] temp.c:75: inline
0001d5   0003     sleep                    	SLEEP
0001d6   0000     nop                      	nop
0001d7   0000     nop                      	nop
0001d8   0000     nop                      	nop
0001d9   0000     nop                      	nop
                                           	
                                           ;;[ICODE] temp.c:79: inline
0001da   1106     movf    0x06, 0x0        	movf	PORTB,W
                                           	
                                           ;;[ICODE] temp.c:81: 	iTemp40 [k69 lr67:69 so:0]{ ia0 a2p0 re0 rm1 nos0 ru0 dp0}{volatile-unsigned-bitfield {1,1} near* fixed}[remat] = &[_INTECONbits [k60 lr0:0 so:0]{ ia0 a2p0 re0 rm0 nos0 ru0 dp0}{volatile-struct __00000024 fixed} , 0x0 {const-unsigned-char literal}]
                                           ;;[ICODE] temp.c:81: 	*(iTemp40 [k69 lr67:69 so:0]{ ia1 a2p0 re0 rm1 nos0 ru0 dp0}{volatile-unsigned-bitfield {1,1} near* fixed}[remat]) := 0x0 {const-unsigned-char literal}
                                           ;	.line	81; "temp.c"	PBIE = 0;
0001db   3c8e     bcf     0x0e, 0x1        	BCF	_INTECONbits,1
                                           ;;[ICODE] temp.c:82: 	_IOCB [k56 lr0:0 so:0]{ ia1 a2p0 re0 rm0 nos0 ru0 dp0}{volatile-unsigned-char sfr} := 0x0 {const-unsigned-char literal}
                                           ;	.line	82; "temp.c"	IOCB = 0;
0001dc   1889     clrf    0x09             	CLRF	_IOCB
                                           ;;[ICODE] temp.c:83: 	iTemp42 [k72 lr71:73 so:0]{ ia0 a2p0 re0 rm1 nos0 ru0 dp0}{volatile-unsigned-bitfield {4,1} near* fixed}[remat] = &[_CMPCRbits [k27 lr0:0 so:0]{ ia0 a2p0 re0 rm0 nos0 ru0 dp0}{volatile-struct __00000056 fixed} , 0x0 {const-unsigned-char literal}]
                                           ;;[ICODE] temp.c:83: 	*(iTemp42 [k72 lr71:73 so:0]{ ia1 a2p0 re0 rm1 nos0 ru0 dp0}{volatile-unsigned-bitfield {4,1} near* fixed}[remat]) := 0x1 {const-unsigned-char literal}
                                           ;	.line	83; "temp.c"	LVDM = 1;
0001dd   3a51     bsf     0x51, 0x4        	BSF	_CMPCRbits,4
                                           ;;[ICODE] temp.c:84: inline
0001de   0004     clrwdt                   	clrwdt
                                           ;;[ICODE] temp.c:85: 	iTemp44 [k75 lr75:77 so:0]{ ia0 a2p0 re0 rm1 nos0 ru0 dp0}{volatile-unsigned-bitfield {7,1} near* fixed}[remat] = &[_PCONbits [k31 lr0:0 so:0]{ ia0 a2p0 re0 rm0 nos0 ru0 dp0}{volatile-struct __00000006 fixed} , 0x0 {const-unsigned-char literal}]
                                           ;;[ICODE] temp.c:85: 	*(iTemp44 [k75 lr75:77 so:0]{ ia1 a2p0 re0 rm1 nos0 ru0 dp0}{volatile-unsigned-bitfield {7,1} near* fixed}[remat]) := 0x1 {const-unsigned-char literal}
                                           ;	.line	85; "temp.c"	WDTEN = 1;
0001df   3b88     bsf     0x08, 0x7        	BSF	_PCONbits,7
                                           ;;[ICODE] temp.c:86: 	iTemp46 [k78 lr78:80 so:0]{ ia0 a2p0 re0 rm1 nos0 ru0 dp0}{volatile-unsigned-bitfield {7,1} near* fixed}[remat] = &[_INTECONbits [k60 lr0:0 so:0]{ ia0 a2p0 re0 rm0 nos0 ru0 dp0}{volatile-struct __00000024 fixed} , 0x0 {const-unsigned-char literal}]
                                           ;;[ICODE] temp.c:86: 	*(iTemp46 [k78 lr78:80 so:0]{ ia1 a2p0 re0 rm1 nos0 ru0 dp0}{volatile-unsigned-bitfield {7,1} near* fixed}[remat]) := 0x1 {const-unsigned-char literal}
                                           ;	.line	86; "temp.c"	GIE = 1;
0001e0   3b8e     bsf     0x0e, 0x7        	BSF	_INTECONbits,7
                                           ;;[ICODE] temp.c:87: 	_PORTB [k55 lr0:0 so:0]{ ia1 a2p0 re0 rm0 nos0 ru0 dp0}{volatile-unsigned-char sfr} := 0x0 {const-unsigned-char literal}
                                           ;	.line	87; "temp.c"	PORTB = 0x00;
0001e1   1886     clrf    0x06             	CLRF	_PORTB
                                           ;;[ICODE] temp.c:88: 	_TRISB [k54 lr0:0 so:0]{ ia1 a2p0 re0 rm0 nos0 ru0 dp0}{volatile-unsigned-char sfr} := 0xcc {const-unsigned-char literal}
                                           ;	.line	88; "temp.c"	TRISB = 0xCC; //00001100
0001e2   04cc     movlw   0xcc             	MOVLW	0xcc
0001e3   19c6     movwf   0x46             	MOVWF	_TRISB
                                           ;;[ICODE] temp.c:89: 	iTemp48 [k81 lr83:85 so:0]{ ia0 a2p0 re0 rm1 nos0 ru0 dp0}{volatile-unsigned-bitfield {7,1} near* fixed}[remat] = &[_RAMPbits [k45 lr0:0 so:0]{ ia0 a2p0 re0 rm0 nos0 ru0 dp0}{volatile-struct __00000070 fixed} , 0x0 {const-unsigned-char literal}]
                                           ;;[ICODE] temp.c:89: 	*(iTemp48 [k81 lr83:85 so:0]{ ia1 a2p0 re0 rm1 nos0 ru0 dp0}{volatile-unsigned-bitfield {7,1} near* fixed}[remat]) := 0x1 {const-unsigned-char literal}
                                           ;	.line	89; "temp.c"	MODSEL = 1;
0001e4   3bd5     bsf     0x55, 0x7        	BSF	_RAMPbits,7
                                           ;;[ICODE] temp.c:90: 	_SleepCount [k16 lr0:0 so:0]{ ia1 a2p0 re0 rm0 nos0 ru0 dp0}{unsigned-char fixed} := 0x0 {const-unsigned-char literal}
                                           ;	.line	90; "temp.c"	SleepCount = 0;
0001e5   18b7     clrf    0x37             	CLRF	_SleepCount
                                           ;;[ICODE] temp.c:91: 	_LvdDebounceNew [k83 lr0:0 so:0]{ ia1 a2p0 re0 rm0 nos0 ru0 dp0}{unsigned-char fixed} := 0x0 {const-unsigned-char literal}
                                           ;	.line	91; "temp.c"	LvdDebounceNew = 0;
0001e6   18b1     clrf    0x31             	CLRF	_LvdDebounceNew
                                           ;;[ICODE] temp.c:92: 	_LvdModelCount [k85 lr0:0 so:0]{ ia1 a2p0 re0 rm0 nos0 ru0 dp0}{unsigned-char fixed} := 0x0 {const-unsigned-char literal}
                                           ;	.line	92; "temp.c"	LvdModelCount = 0;
0001e7   18b3     clrf    0x33             	CLRF	_LvdModelCount
                                           ;;[ICODE] temp.c:93: 	iTemp53 [k89 lr89:91 so:0]{ ia0 a2p0 re0 rm1 nos0 ru0 dp0}{unsigned-bitfield {1,1} near* fixed}[remat] = &[_BITS_DATA0 [k2 lr0:0 so:0]{ ia0 a2p0 re0 rm0 nos0 ru0 dp0}{struct __bits8_t fixed} , 0x0 {const-unsigned-char literal}]
                                           ;;[ICODE] temp.c:93: 	*(iTemp53 [k89 lr89:91 so:0]{ ia1 a2p0 re0 rm1 nos0 ru0 dp0}{unsigned-bitfield {1,1} near* fixed}[remat]) := 0x0 {const-unsigned-char literal}
                                           ;	.line	93; "temp.c"	LowBat = 0;
0001e8   3ca7     bcf     0x27, 0x1        	BCF	_BITS_DATA0,1
                                           ;;[ICODE] temp.c:93:  _return($8) :
                                           ;;[ICODE] temp.c:93: 	eproc _CheckSleep [k1 lr0:0 so:0]{ ia0 a2p0 re0 rm0 nos0 ru0 dp0}{void function ( ) fixed}
                                           _00121_DS_:
0001e9   0002     return                   	RETURN	
                                           ; exit point of _CheckSleep

                                           ;***
                                           ;  pBlock Stats: dbName = C
                                           ;***
                                           ;has an exit
                                           ;functions called:
                                           ;   _DelayMs
                                           ;   _DelayMs
                                           ;; Starting pCode block
                                           ;;[ICODE] temp.c:7:  _entry($7) :
                                           ;;[ICODE] temp.c:7: 	proc _CheckTemp [k1 lr0:0 so:0]{ ia0 a2p0 re0 rm0 nos0 ru0 dp0}{void function ( ) fixed}
                                           S_temp__CheckTemp	code
                                           _CheckTemp:
                                           ; 2 exit points
                                           ;;[ICODE] temp.c:9: 	iTemp1 [k5 lr3:5 so:0]{ ia0 a2p0 re0 rm1 nos0 ru0 dp0}{volatile-unsigned-bitfield {6,1} near* fixed}[remat] = &[_CHARGE1bits [k2 lr0:0 so:0]{ ia0 a2p0 re0 rm0 nos0 ru0 dp0}{volatile-struct __00000065 fixed} , 0x0 {const-unsigned-char literal}]
                                           ;;[ICODE] temp.c:9: 	*(iTemp1 [k5 lr3:5 so:0]{ ia1 a2p0 re0 rm1 nos0 ru0 dp0}{volatile-unsigned-bitfield {6,1} near* fixed}[remat]) := 0x1 {const-unsigned-char literal}
                                           ;	.line	9; "temp.c"	TEMPEN = 1;
00023a   3b54     bsf     0x54, 0x6        	BSF	_CHARGE1bits,6
                                           ;;[ICODE] temp.c:10: 	iTemp2 [k7 lr6:6 so:0]{ ia0 a2p0 re0 rm0 nos0 ru0 dp0}{void fixed} = call _DelayMs [k6 lr0:0 so:0]{ ia0 a2p0 re0 rm0 nos0 ru0 dp0}{void function ( ) fixed}
                                           ;	.line	10; "temp.c"	DelayMs();
00023b   2acd     call    0x02cd           	CALL	_DelayMs
                                           ;;[ICODE] temp.c:11: 	iTemp4 [k11 lr7:9 so:0]{ ia0 a2p0 re0 rm1 nos0 ru0 dp0}{volatile-unsigned-bitfield {4,1} near* fixed}[remat] = &[_INTFLAGbits [k8 lr0:0 so:0]{ ia0 a2p0 re0 rm0 nos0 ru0 dp0}{volatile-struct __00000027 fixed} , 0x0 {const-unsigned-char literal}]
                                           ;;[ICODE] temp.c:11: 	iTemp5 [k12 lr9:10 so:0]{ ia0 a2p0 re0 rm0 nos0 ru0 dp0}{volatile-unsigned-bitfield {4,1} fixed}[r0x1047 ] = @[iTemp4 [k11 lr7:9 so:0]{ ia1 a2p0 re0 rm1 nos0 ru0 dp0}{volatile-unsigned-bitfield {4,1} near* fixed}[remat] + 0x0 {const-unsigned-char literal}]
                                           ;	.line	11; "temp.c"	if(TMPF == 0)
00023c   360f     btfsc   0x0f, 0x4        	BTFSC	_INTFLAGbits,4
00023d   2241     goto    0x0241           	GOTO	_00106_DS_
                                           ;;[ICODE] temp.c:11: 	if iTemp5 [k12 lr9:10 so:0]{ ia0 a2p0 re0 rm0 nos0 ru0 dp0}{volatile-unsigned-bitfield {4,1} fixed}[r0x1047 ] != 0 goto __iffalse_0($2)
                                           ;;[ICODE] temp.c:13: 	_TempCount [k13 lr0:0 so:0]{ ia1 a2p0 re0 rm0 nos0 ru0 dp0}{unsigned-char fixed} := 0x0 {const-unsigned-char literal}
                                           ;	.line	13; "temp.c"	TempCount = 0;
00023e   18b5     clrf    0x35             	CLRF	_TempCount
                                           ;;[ICODE] temp.c:14: 	_TempFlag [k15 lr0:0 so:0]{ ia1 a2p0 re0 rm0 nos0 ru0 dp0}{unsigned-char fixed} := 0x0 {const-unsigned-char literal}
                                           ;	.line	14; "temp.c"	TempFlag = 0;
00023f   18b6     clrf    0x36             	CLRF	_TempFlag
                                           ;;[ICODE] temp.c:14: 	 goto __ifend_0($3)
000240   2242     goto    0x0242           	GOTO	_00107_DS_
                                           ;;[ICODE] temp.c:14:  __iffalse_0($2) :
                                           ;;[ICODE] temp.c:18: 	_TempCount [k13 lr0:0 so:0]{ ia1 a2p0 re0 rm0 nos0 ru0 dp0}{unsigned-char fixed} = _TempCount [k13 lr0:0 so:0]{ ia1 a2p0 re0 rm0 nos0 ru0 dp0}{unsigned-char fixed} + 0x1 {const-unsigned-char literal}
                                           _00106_DS_:
                                           ;	.line	18; "temp.c"	TempCount++;
000241   13b5     incf    0x35, 0x1        	INCF	_TempCount,F
                                           ;;[ICODE] temp.c:18:  __ifend_0($3) :
                                           ;;[ICODE] temp.c:21: 	iTemp11 [k20 lr18:19 so:0]{ ia0 a2p0 re0 rm0 nos0 ru0 dp0}{char fixed} = 0x5 {const-unsigned-char literal} == _TempCount [k13 lr0:0 so:0]{ ia0 a2p0 re0 rm0 nos0 ru0 dp0}{unsigned-char fixed}
                                           _00107_DS_:
                                           ;	.line	21; "temp.c"	if(5 == TempCount)
000242   1135     movf    0x35, 0x0        	MOVF	_TempCount,W
000243   0d05     xorlw   0x05             	XORLW	0x05
000244   3103     btfss   0x03, 0x2        	BTFSS	STATUS,2
000245   2248     goto    0x0248           	GOTO	_00109_DS_
                                           ;;[ICODE] temp.c:21: 	if iTemp11 [k20 lr18:19 so:0]{ ia0 a2p0 re0 rm0 nos0 ru0 dp0}{char fixed} == 0 goto __iffalse_1($5)
                                           ;;[ICODE] temp.c:23: 	_TempFlag [k15 lr0:0 so:0]{ ia1 a2p0 re0 rm0 nos0 ru0 dp0}{unsigned-char fixed} := 0x1 {const-unsigned-char literal}
                                           ;	.line	23; "temp.c"	TempFlag = 1;
000246   0401     movlw   0x01             	MOVLW	0x01
000247   19b6     movwf   0x36             	MOVWF	_TempFlag
                                           ;;[ICODE] temp.c:23:  __iffalse_1($5) :
                                           ;;[ICODE] temp.c:26: 	iTemp14 [k24 lr22:24 so:0]{ ia0 a2p0 re0 rm1 nos0 ru0 dp0}{volatile-unsigned-bitfield {6,1} near* fixed}[remat] = &[_CHARGE1bits [k2 lr0:0 so:0]{ ia0 a2p0 re0 rm0 nos0 ru0 dp0}{volatile-struct __00000065 fixed} , 0x0 {const-unsigned-char literal}]
                                           ;;[ICODE] temp.c:26: 	*(iTemp14 [k24 lr22:24 so:0]{ ia1 a2p0 re0 rm1 nos0 ru0 dp0}{volatile-unsigned-bitfield {6,1} near* fixed}[remat]) := 0x0 {const-unsigned-char literal}
                                           _00109_DS_:
                                           ;	.line	26; "temp.c"	TEMPEN = 0;
000248   3f54     bcf     0x54, 0x6        	BCF	_CHARGE1bits,6
                                           ;;[ICODE] temp.c:27: 	iTemp16 [k27 lr25:27 so:0]{ ia0 a2p0 re0 rm1 nos0 ru0 dp0}{volatile-unsigned-bitfield {4,1} near* fixed}[remat] = &[_INTFLAGbits [k8 lr0:0 so:0]{ ia0 a2p0 re0 rm0 nos0 ru0 dp0}{volatile-struct __00000027 fixed} , 0x0 {const-unsigned-char literal}]
                                           ;;[ICODE] temp.c:27: 	*(iTemp16 [k27 lr25:27 so:0]{ ia1 a2p0 re0 rm1 nos0 ru0 dp0}{volatile-unsigned-bitfield {4,1} near* fixed}[remat]) := 0x0 {const-unsigned-char literal}
                                           ;	.line	27; "temp.c"	TMPF = 0;
000249   3e0f     bcf     0x0f, 0x4        	BCF	_INTFLAGbits,4
                                           ;;[ICODE] temp.c:27:  _return($6) :
                                           ;;[ICODE] temp.c:27: 	eproc _CheckTemp [k1 lr0:0 so:0]{ ia0 a2p0 re0 rm0 nos0 ru0 dp0}{void function ( ) fixed}
00024a   0002     return                   	RETURN	
                                           ; exit point of _CheckTemp


                                           ;	code size estimation:
                                           ;	   73+    0 =    73 instructions (  146 byte)

                                           	end
                                           ;--------------------------------------------------------
                                           ; File Created by SDCC : free open source ANSI-C Compiler
                                           ; Version 3.6.0 #9615 (CYGWIN)
                                           ;--------------------------------------------------------
                                           ; PIC port for the 14-bit core
                                           ;--------------------------------------------------------
                                           ;	.file	"variable.c"
                                           	list	p=18p018a0
                                           	radix dec
                                           	include "p18p018a0.inc"
                                                  LIST

                                           ;==========================================================================
                                           ; Build date : Jun 02 2017
                                           ;  HCIDE HC18P018A0 processor include
                                           ; 
                                           ;  (c) Copyright 2012-2021 Holychip Technology, All rights reserved
                                           ;==========================================================================

                                                   NOLIST
                                           ;--------------------------------------------------------
                                           ; external declarations
                                           ;--------------------------------------------------------
                                           	extern	_STATUSbits
                                           	extern	_PORTBbits
                                           	extern	_PCONbits
                                           	extern	_IOCBbits
                                           	extern	_PDCONbits
                                           	extern	_ODCONbits
                                           	extern	_PHCONbits
                                           	extern	_INTECONbits
                                           	extern	_INTFLAGbits
                                           	extern	_OPTIONbits
                                           	extern	_TRISBbits
                                           	extern	_PWMCONbits
                                           	extern	_T0CRbits
                                           	extern	_T1CONbits
                                           	extern	_OSCCONbits
                                           	extern	_CMPCRbits
                                           	extern	_PDCON1bits
                                           	extern	_CHARGE0bits
                                           	extern	_CHARGE1bits
                                           	extern	_RAMPbits
                                           	extern	_AUXRbits
                                           	extern	_INDF
                                           	extern	_T0
                                           	extern	_PCL
                                           	extern	_STATUS
                                           	extern	_FSR
                                           	extern	_PORTB
                                           	extern	_GPR
                                           	extern	_PCON
                                           	extern	_IOCB
                                           	extern	_PCLATH
                                           	extern	_PDCON
                                           	extern	_ODCON
                                           	extern	_PHCON
                                           	extern	_INTECON
                                           	extern	_INTFLAG
                                           	extern	_OPTION
                                           	extern	_TRISB
                                           	extern	_PWMCON
                                           	extern	_PWM1P
                                           	extern	_PWM2P
                                           	extern	_T0CR
                                           	extern	_T1CON
                                           	extern	_T1
                                           	extern	_T1LOAD
                                           	extern	_PWM0P
                                           	extern	_OSCCON
                                           	extern	_CMPCR
                                           	extern	_PDCON1
                                           	extern	_CHARGE0
                                           	extern	_CHARGE1
                                           	extern	_RAMP
                                           	extern	_AUXR
                                           	extern	_HIRCTRM

                                           	extern PSAVE
                                           	extern SSAVE
                                           	extern WSAVE
                                           	extern STK12
                                           	extern STK11
                                           	extern STK10
                                           	extern STK09
                                           	extern STK08
                                           	extern STK07
                                           	extern STK06
                                           	extern STK05
                                           	extern STK04
                                           	extern STK03
                                           	extern STK02
                                           	extern STK01
                                           	extern STK00
                                           ;--------------------------------------------------------
                                           ; global declarations
                                           ;--------------------------------------------------------
                                           	global	_BITS_DATA0
                                           	global	_BITS_DATA1
                                           	global	_g_ucTimer10msCount
                                           	global	_g_ucTimerWorkCount
                                           	global	_g_ucFlashTimeHigh
                                           	global	_g_ucFlashTimeLow
                                           	global	_g_ucFlashTimeHigh1
                                           	global	_g_ucFlashTimeLow1
                                           	global	_g_ucFlashTimeHigh2
                                           	global	_g_ucFlashTimeLow2
                                           	global	_LvdModel
                                           	global	_LvdDebounceNew
                                           	global	_LvdDebounceOld
                                           	global	_LvdModelCount
                                           	global	_LvdLightCount
                                           	global	_TempCount
                                           	global	_TempFlag
                                           	global	_SleepCount
                                           	global	_SleepFlag
                                           	global	_MaxLight
                                           	global	_g_cucTIMER_COUNT_STATE

                                           ;--------------------------------------------------------
                                           ; global definitions
                                           ;--------------------------------------------------------
                                           UD_variable_0	udata
                                           _BITS_DATA0	res	1

                                           UD_variable_1	udata
                                           _BITS_DATA1	res	2

                                           ;--------------------------------------------------------
                                           ; absolute symbol definitions
                                           ;--------------------------------------------------------
                                           ;--------------------------------------------------------
                                           ; compiler-defined variables
                                           ;--------------------------------------------------------
                                           ;--------------------------------------------------------
                                           ; initialized data
                                           ;--------------------------------------------------------

                                           ID_variable_0	idata
                                           _g_ucTimer10msCount
                                           	db	0x00


                                           ID_variable_1	idata
                                           _g_ucTimerWorkCount
                                           	db	0x00


                                           ID_variable_2	idata
                                           _g_ucFlashTimeHigh
                                           	db	0x00


                                           ID_variable_3	idata
                                           _g_ucFlashTimeLow
                                           	db	0x00


                                           ID_variable_4	idata
                                           _g_ucFlashTimeHigh1
                                           	db	0x00


                                           ID_variable_5	idata
                                           _g_ucFlashTimeLow1
                                           	db	0x00


                                           ID_variable_6	idata
                                           _g_ucFlashTimeHigh2
                                           	db	0x00


                                           ID_variable_7	idata
                                           _g_ucFlashTimeLow2
                                           	db	0x00


                                           ID_variable_8	idata
                                           _LvdModel
                                           	db	0x00


                                           ID_variable_9	idata
                                           _LvdDebounceNew
                                           	db	0x00


                                           ID_variable_10	idata
                                           _LvdDebounceOld
                                           	db	0x00


                                           ID_variable_11	idata
                                           _LvdModelCount
                                           	db	0x00


                                           ID_variable_12	idata
                                           _LvdLightCount
                                           	db	0x00


                                           ID_variable_13	idata
                                           _TempCount
                                           	db	0x00


                                           ID_variable_14	idata
                                           _TempFlag
                                           	db	0x00


                                           ID_variable_15	idata
                                           _SleepCount
                                           	db	0x00


                                           ID_variable_16	idata
                                           _SleepFlag
                                           	db	0x00


                                           ID_variable_17	idata
                                           _MaxLight
                                           	db	0x00


                                           ID_variable_18	code
                                           _g_cucTIMER_COUNT_STATE
0002c3   0101     retlw   0x01             	retlw 0x01
0002c4   0101     retlw   0x01             	retlw 0x01
0002c5   0101     retlw   0x01             	retlw 0x01
0002c6   0101     retlw   0x01             	retlw 0x01
0002c7   0104     retlw   0x04             	retlw 0x04
0002c8   0104     retlw   0x04             	retlw 0x04
0002c9   0101     retlw   0x01             	retlw 0x01
0002ca   0104     retlw   0x04             	retlw 0x04
0002cb   0101     retlw   0x01             	retlw 0x01
0002cc   0101     retlw   0x01             	retlw 0x01

                                           ;--------------------------------------------------------
                                           ; overlayable items in internal ram 
                                           ;--------------------------------------------------------
                                           ;	udata_ovr
                                           ;--------------------------------------------------------
                                           ; code
                                           ;--------------------------------------------------------
                                           code_variable	code

                                           ;	code size estimation:
                                           ;	    0+    0 =     0 instructions (    0 byte)

                                           	end
                                           ;--------------------------------------------------------
                                           ; File Created by SDCC : free open source ANSI-C Compiler
                                           ; Version 3.6.0 #9615 (CYGWIN)
                                           ;--------------------------------------------------------
                                           ; PIC port for the 14-bit core
                                           ;--------------------------------------------------------
                                           ;	.file	"work.c"
                                           	list	p=18p018a0
                                           	radix dec
                                           	include "p18p018a0.inc"
                                                  LIST

                                           ;==========================================================================
                                           ; Build date : Jun 02 2017
                                           ;  HCIDE HC18P018A0 processor include
                                           ; 
                                           ;  (c) Copyright 2012-2021 Holychip Technology, All rights reserved
                                           ;==========================================================================

                                                   NOLIST
                                           ;--------------------------------------------------------
                                           ; external declarations
                                           ;--------------------------------------------------------
                                           	extern	_ControlLevelLow
                                           	extern	_ControlLevelHigh
                                           	extern	_ControlLevel
                                           	extern	_ControlFlash
                                           	extern	_ControlSos
                                           	extern	_STATUSbits
                                           	extern	_PORTBbits
                                           	extern	_PCONbits
                                           	extern	_IOCBbits
                                           	extern	_PDCONbits
                                           	extern	_ODCONbits
                                           	extern	_PHCONbits
                                           	extern	_INTECONbits
                                           	extern	_INTFLAGbits
                                           	extern	_OPTIONbits
                                           	extern	_TRISBbits
                                           	extern	_PWMCONbits
                                           	extern	_T0CRbits
                                           	extern	_T1CONbits
                                           	extern	_OSCCONbits
                                           	extern	_CMPCRbits
                                           	extern	_PDCON1bits
                                           	extern	_CHARGE0bits
                                           	extern	_CHARGE1bits
                                           	extern	_RAMPbits
                                           	extern	_AUXRbits
                                           	extern	_BITS_DATA0
                                           	extern	_BITS_DATA1
                                           	extern	_g_ucTimer10msCount
                                           	extern	_g_ucTimerWorkCount
                                           	extern	_g_ucFlashTimeHigh
                                           	extern	_g_ucFlashTimeLow
                                           	extern	_g_ucFlashTimeHigh1
                                           	extern	_g_ucFlashTimeLow1
                                           	extern	_g_ucFlashTimeHigh2
                                           	extern	_g_ucFlashTimeLow2
                                           	extern	_LvdModel
                                           	extern	_LvdDebounceNew
                                           	extern	_LvdDebounceOld
                                           	extern	_LvdModelCount
                                           	extern	_LvdLightCount
                                           	extern	_TempCount
                                           	extern	_TempFlag
                                           	extern	_SleepCount
                                           	extern	_SleepFlag
                                           	extern	_MaxLight
                                           	extern	_g_cucTIMER_COUNT_STATE
                                           	extern	_INDF
                                           	extern	_T0
                                           	extern	_PCL
                                           	extern	_STATUS
                                           	extern	_FSR
                                           	extern	_PORTB
                                           	extern	_GPR
                                           	extern	_PCON
                                           	extern	_IOCB
                                           	extern	_PCLATH
                                           	extern	_PDCON
                                           	extern	_ODCON
                                           	extern	_PHCON
                                           	extern	_INTECON
                                           	extern	_INTFLAG
                                           	extern	_OPTION
                                           	extern	_TRISB
                                           	extern	_PWMCON
                                           	extern	_PWM1P
                                           	extern	_PWM2P
                                           	extern	_T0CR
                                           	extern	_T1CON
                                           	extern	_T1
                                           	extern	_T1LOAD
                                           	extern	_PWM0P
                                           	extern	_OSCCON
                                           	extern	_CMPCR
                                           	extern	_PDCON1
                                           	extern	_CHARGE0
                                           	extern	_CHARGE1
                                           	extern	_RAMP
                                           	extern	_AUXR
                                           	extern	_HIRCTRM

                                           	extern PSAVE
                                           	extern SSAVE
                                           	extern WSAVE
                                           	extern STK12
                                           	extern STK11
                                           	extern STK10
                                           	extern STK09
                                           	extern STK08
                                           	extern STK07
                                           	extern STK06
                                           	extern STK05
                                           	extern STK04
                                           	extern STK03
                                           	extern STK02
                                           	extern STK01
                                           	extern STK00
                                           ;--------------------------------------------------------
                                           ; global declarations
                                           ;--------------------------------------------------------
                                           	global	_Work

                                           ;--------------------------------------------------------
                                           ; global definitions
                                           ;--------------------------------------------------------
                                           ;--------------------------------------------------------
                                           ; absolute symbol definitions
                                           ;--------------------------------------------------------
                                           ;--------------------------------------------------------
                                           ; compiler-defined variables
                                           ;--------------------------------------------------------
                                           ;--------------------------------------------------------
                                           ; initialized data
                                           ;--------------------------------------------------------
                                           ;--------------------------------------------------------
                                           ; overlayable items in internal ram 
                                           ;--------------------------------------------------------
                                           ;	udata_ovr
                                           ;--------------------------------------------------------
                                           ; code
                                           ;--------------------------------------------------------
                                           code_work	code
                                           ;***
                                           ;  pBlock Stats: dbName = C
                                           ;***
                                           ;has an exit
                                           ;; Starting pCode block
                                           ;;[ICODE] work.c:5:  _entry($2) :
                                           ;;[ICODE] work.c:5: 	proc _Work [k1 lr0:0 so:0]{ ia0 a2p0 re0 rm0 nos0 ru0 dp0}{void function ( ) fixed}
                                           S_work__Work	code
                                           _Work:
                                           ; 2 exit points
                                           ;;[ICODE] work.c:21:  _return($1) :
                                           ;;[ICODE] work.c:21: 	eproc _Work [k1 lr0:0 so:0]{ ia0 a2p0 re0 rm0 nos0 ru0 dp0}{void function ( ) fixed}
                                           ;	.line	21; "work.c"	}
000313   0002     return                   	RETURN	
                                           ; exit point of _Work


                                           ;	code size estimation:
                                           ;	    1+    0 =     1 instructions (    2 byte)

                                           	end
                                                  LIST

                                           ;==========================================================================
                                           ; Build date : Jun 02 2017
                                           ;  HCIDE HC18P018A0 processor include
                                           ; 
                                           ;  (c) Copyright 2012-2021 Holychip Technology, All rights reserved
                                           ;==========================================================================

                                                   NOLIST
