gpasm-1.5.0 #1284 (Oct 14 2022)      init.asm   04/30/25  14:51:05          PAGE  1


LOC    OBJECT CODE    LINE  SOURCE TEXT
  VALUE

                      00001 ;--------------------------------------------------------
                      00002 ; File Created by SDCC : free open source ANSI-C Compiler
                      00003 ; Version 3.6.0 #9615 (CYGWIN)
                      00004 ;--------------------------------------------------------
                      00005 ; PIC port for the 14-bit core
                      00006 ;--------------------------------------------------------
                      00007 ;       .file   "init.c"
                      00008         list    p=18p018a0
                      00009         radix dec
                      00010         include "p18p018a0.inc"
                      00001        LIST
                      00002 
                      00003 ;==========================================================================
                      00004 ; Build date : Jun 02 2017
                      00005 ;  HCIDE HC18P018A0 processor include
                      00006 ; 
                      00007 ;  (c) Copyright 2012-2021 Holychip Technology, All rights reserved
                      00008 ;==========================================================================
                      00009 
Message[301]: MESSAGE: "Processor-header file mismatch.  Verify selected processor."
                      00378         LIST
                      00011 ;--------------------------------------------------------
                      00012 ; external declarations
                      00013 ;--------------------------------------------------------
  0000                00014         extern  _STATUSbits
  0000                00015         extern  _PORTBbits
  0000                00016         extern  _PCONbits
  0000                00017         extern  _IOCBbits
  0000                00018         extern  _PDCONbits
  0000                00019         extern  _ODCONbits
  0000                00020         extern  _PHCONbits
  0000                00021         extern  _INTECONbits
  0000                00022         extern  _INTFLAGbits
  0000                00023         extern  _OPTIONbits
  0000                00024         extern  _TRISBbits
  0000                00025         extern  _PWMCONbits
  0000                00026         extern  _T0CRbits
  0000                00027         extern  _T1CONbits
  0000                00028         extern  _OSCCONbits
  0000                00029         extern  _CMPCRbits
  0000                00030         extern  _PDCON1bits
  0000                00031         extern  _CHARGE0bits
  0000                00032         extern  _CHARGE1bits
  0000                00033         extern  _RAMPbits
  0000                00034         extern  _AUXRbits
  0000                00035         extern  _BITS_DATA0
  0000                00036         extern  _BITS_DATA1
  0000                00037         extern  _g_ucTimer10msCount
  0000                00038         extern  _g_ucTimerWorkCount
  0000                00039         extern  _TempCount
  0000                00040         extern  _TempFlag
  0000                00041         extern  _SleepCount
  0000                00042         extern  _SleepFlag
gpasm-1.5.0 #1284 (Oct 14 2022)      init.asm   04/30/25  14:51:05          PAGE  2


LOC    OBJECT CODE    LINE  SOURCE TEXT
  VALUE

  0000                00043         extern  _MaxLight
  0000                00044         extern  _INDF
  0000                00045         extern  _T0
  0000                00046         extern  _PCL
  0000                00047         extern  _STATUS
  0000                00048         extern  _FSR
  0000                00049         extern  _PORTB
  0000                00050         extern  _GPR
  0000                00051         extern  _PCON
  0000                00052         extern  _IOCB
  0000                00053         extern  _PCLATH
  0000                00054         extern  _PDCON
  0000                00055         extern  _ODCON
  0000                00056         extern  _PHCON
  0000                00057         extern  _INTECON
  0000                00058         extern  _INTFLAG
  0000                00059         extern  _OPTION
  0000                00060         extern  _TRISB
  0000                00061         extern  _PWMCON
  0000                00062         extern  _PWM1P
  0000                00063         extern  _PWM2P
  0000                00064         extern  _T0CR
  0000                00065         extern  _T1CON
  0000                00066         extern  _T1
  0000                00067         extern  _T1LOAD
  0000                00068         extern  _PWM0P
  0000                00069         extern  _OSCCON
  0000                00070         extern  _CMPCR
  0000                00071         extern  _PDCON1
  0000                00072         extern  _CHARGE0
  0000                00073         extern  _CHARGE1
  0000                00074         extern  _RAMP
  0000                00075         extern  _AUXR
  0000                00076         extern  _HIRCTRM
                      00077 
  0000                00078         extern PSAVE
  0000                00079         extern SSAVE
  0000                00080         extern WSAVE
  0000                00081         extern STK12
  0000                00082         extern STK11
  0000                00083         extern STK10
  0000                00084         extern STK09
  0000                00085         extern STK08
  0000                00086         extern STK07
  0000                00087         extern STK06
  0000                00088         extern STK05
  0000                00089         extern STK04
  0000                00090         extern STK03
  0000                00091         extern STK02
  0000                00092         extern STK01
  0000                00093         extern STK00
                      00094 ;--------------------------------------------------------
                      00095 ; global declarations
gpasm-1.5.0 #1284 (Oct 14 2022)      init.asm   04/30/25  14:51:05          PAGE  3


LOC    OBJECT CODE    LINE  SOURCE TEXT
  VALUE

                      00096 ;--------------------------------------------------------
  0000                00097         global  _InitRam
  0000                00098         global  _InitPwm
  0000                00099         global  _InitSystem
  0000                00100         global  _InitPort
                      00101 
                      00102 ;--------------------------------------------------------
                      00103 ; global definitions
                      00104 ;--------------------------------------------------------
                      00105 ;--------------------------------------------------------
                      00106 ; absolute symbol definitions
                      00107 ;--------------------------------------------------------
                      00108 ;--------------------------------------------------------
                      00109 ; compiler-defined variables
                      00110 ;--------------------------------------------------------
                      00111 ;--------------------------------------------------------
                      00112 ; initialized data
                      00113 ;--------------------------------------------------------
                      00114 ;--------------------------------------------------------
                      00115 ; overlayable items in internal ram 
                      00116 ;--------------------------------------------------------
                      00117 ;       udata_ovr
                      00118 ;--------------------------------------------------------
                      00119 ; code
                      00120 ;--------------------------------------------------------
                      00121 code_init       code
                      00122 ;***
                      00123 ;  pBlock Stats: dbName = C
                      00124 ;***
                      00125 ;has an exit
                      00126 ;; Starting pCode block
                      00127 ;;[ICODE] init.c:73:  _entry($2) :
                      00128 ;;[ICODE] init.c:73:    proc _InitRam [k1 lr0:0 so:0]{ ia0 a2p0 re0 rm0 nos0 ru0 dp0}{void function ( ) 
                            fixed}
                      00129 S_init__InitRam code
0000                  00130 _InitRam:
                      00131 ; 2 exit points
                      00132 ;;[ICODE] init.c:75:    iTemp1 [k5 lr3:5 so:0]{ ia0 a2p0 re0 rm1 nos0 ru0 dp0}{unsigned-bitfield {0,1} n
                            ear* fixed}[remat] = &[_BITS_DATA0 [k2 lr0:0 so:0]{ ia0 a2p0 re0 rm0 nos0 ru0 dp0}{struct __bits8_t fixe
                            d} , 0x0 {const-unsigned-char literal}]
                      00133 ;;[ICODE] init.c:75:    *(iTemp1 [k5 lr3:5 so:0]{ ia1 a2p0 re0 rm1 nos0 ru0 dp0}{unsigned-bitfield {0,1}
                             near* fixed}[remat]) := 0x0 {const-unsigned-char literal}
                      00134 ;       .line   75; "init.c"    BIT_TIMER_10MS = 0;
0000   3C??           00135         BCF     _BITS_DATA0,0
                      00136 ;;[ICODE] init.c:76:    iTemp3 [k8 lr6:8 so:0]{ ia0 a2p0 re0 rm1 nos0 ru0 dp0}{unsigned-bitfield {5,1} n
                            ear* fixed}[remat] = &[_BITS_DATA0 [k2 lr0:0 so:0]{ ia0 a2p0 re0 rm0 nos0 ru0 dp0}{struct __bits8_t fixe
                            d} , 0x0 {const-unsigned-char literal}]
                      00137 ;;[ICODE] init.c:76:    *(iTemp3 [k8 lr6:8 so:0]{ ia1 a2p0 re0 rm1 nos0 ru0 dp0}{unsigned-bitfield {5,1}
                             near* fixed}[remat]) := 0x0 {const-unsigned-char literal}
                      00138 ;       .line   76; "init.c"    IsLight = 0;
0001   3E??           00139         BCF     _BITS_DATA0,5
                      00140 ;;[ICODE] init.c:78:    _TempCount [k9 lr0:0 so:0]{ ia1 a2p0 re0 rm0 nos0 ru0 dp0}{unsigned-char fixed} 
                            := 0x0 {const-unsigned-char literal}
gpasm-1.5.0 #1284 (Oct 14 2022)      init.asm   04/30/25  14:51:05          PAGE  4


LOC    OBJECT CODE    LINE  SOURCE TEXT
  VALUE

                      00141 ;       .line   78; "init.c"    TempCount = 0;
0002   18??           00142         CLRF    _TempCount
                      00143 ;;[ICODE] init.c:79:    _TempFlag [k11 lr0:0 so:0]{ ia1 a2p0 re0 rm0 nos0 ru0 dp0}{unsigned-char fixed} 
                            := 0x0 {const-unsigned-char literal}
                      00144 ;       .line   79; "init.c"    TempFlag = 0;
0003   18??           00145         CLRF    _TempFlag
                      00146 ;;[ICODE] init.c:81:    _SleepCount [k13 lr0:0 so:0]{ ia1 a2p0 re0 rm0 nos0 ru0 dp0}{unsigned-char fixed
                            } := 0x0 {const-unsigned-char literal}
                      00147 ;       .line   81; "init.c"    SleepCount = 0;
0004   18??           00148         CLRF    _SleepCount
                      00149 ;;[ICODE] init.c:82:    _SleepFlag [k15 lr0:0 so:0]{ ia1 a2p0 re0 rm0 nos0 ru0 dp0}{unsigned-char fixed}
                             := 0x0 {const-unsigned-char literal}
                      00150 ;       .line   82; "init.c"    SleepFlag = 0;
0005   18??           00151         CLRF    _SleepFlag
                      00152 ;;[ICODE] init.c:82:  _return($1) :
                      00153 ;;[ICODE] init.c:82:    eproc _InitRam [k1 lr0:0 so:0]{ ia0 a2p0 re0 rm0 nos0 ru0 dp0}{void function ( )
                             fixed}
0006   0002           00154         RETURN  
                      00155 ; exit point of _InitRam
                      00156 
                      00157 ;***
                      00158 ;  pBlock Stats: dbName = C
                      00159 ;***
                      00160 ;has an exit
                      00161 ;; Starting pCode block
                      00162 ;;[ICODE] init.c:66:  _entry($2) :
                      00163 ;;[ICODE] init.c:66:    proc _InitPwm [k1 lr0:0 so:0]{ ia0 a2p0 re0 rm0 nos0 ru0 dp0}{void function ( ) 
                            fixed}
                      00164 S_init__InitPwm code
0000                  00165 _InitPwm:
                      00166 ; 2 exit points
                      00167 ;;[ICODE] init.c:68:    _AUXR [k2 lr0:0 so:0]{ ia1 a2p0 re0 rm0 nos0 ru0 dp0}{volatile-unsigned-char sfr
                            } := 0x0 {const-unsigned-char literal}
                      00168 ;       .line   68; "init.c"    AUXR = 0;
0000   18??           00169         CLRF    _AUXR
                      00170 ;;[ICODE] init.c:69:    _T1 [k3 lr0:0 so:0]{ ia1 a2p0 re0 rm0 nos0 ru0 dp0}{volatile-unsigned-char sfr} 
                            := 0xfe {const-unsigned-char literal}
                      00171 ;       .line   69; "init.c"    T1 = 0XFE;     //TI计数器
0001   04FE           00172         MOVLW   0xfe
0002   19??           00173         MOVWF   _T1
                      00174 ;;[ICODE] init.c:70:    _T1LOAD [k4 lr0:0 so:0]{ ia1 a2p0 re0 rm0 nos0 ru0 dp0}{volatile-unsigned-char s
                            fr} := 0xfe {const-unsigned-char literal}
                      00175 ;       .line   70; "init.c"    T1LOAD = 0XFE;
0003   04FE           00176         MOVLW   0xfe
0004   19??           00177         MOVWF   _T1LOAD
                      00178 ;;[ICODE] init.c:70:  _return($1) :
                      00179 ;;[ICODE] init.c:70:    eproc _InitPwm [k1 lr0:0 so:0]{ ia0 a2p0 re0 rm0 nos0 ru0 dp0}{void function ( )
                             fixed}
0005   0002           00180         RETURN  
                      00181 ; exit point of _InitPwm
                      00182 
                      00183 ;***
                      00184 ;  pBlock Stats: dbName = C
gpasm-1.5.0 #1284 (Oct 14 2022)      init.asm   04/30/25  14:51:05          PAGE  5


LOC    OBJECT CODE    LINE  SOURCE TEXT
  VALUE

                      00185 ;***
                      00186 ;has an exit
                      00187 ;; Starting pCode block
                      00188 ;;[ICODE] init.c:52:  _entry($2) :
                      00189 ;;[ICODE] init.c:52:    proc _InitSystem [k1 lr0:0 so:0]{ ia0 a2p0 re0 rm0 nos0 ru0 dp0}{void function (
                             ) fixed}
                      00190 S_init__InitSystem      code
0000                  00191 _InitSystem:
                      00192 ; 2 exit points
                      00193 ;;[ICODE] init.c:54:    _OSCCON [k2 lr0:0 so:0]{ ia1 a2p0 re0 rm0 nos0 ru0 dp0}{volatile-unsigned-char s
                            fr} := 0x0 {const-unsigned-char literal}
                      00194 ;       .line   54; "init.c"    OSCCON = 0;     //高频  
0000   18??           00195         CLRF    _OSCCON
                      00196 ;;[ICODE] init.c:55:    _T0 [k3 lr0:0 so:0]{ ia1 a2p0 re0 rm0 nos0 ru0 dp0}{volatile-unsigned-char sfr} 
                            := 0xce {const-unsigned-char literal}
                      00197 ;       .line   55; "init.c"    T0 =   0xCE;
0001   04CE           00198         MOVLW   0xce
0002   19??           00199         MOVWF   _T0
                      00200 ;;[ICODE] init.c:57:    _OPTION [k4 lr0:0 so:0]{ ia1 a2p0 re0 rm0 nos0 ru0 dp0}{volatile-unsigned-char s
                            fr} := 0x0 {const-unsigned-char literal}
                      00201 ;       .line   57; "init.c"    OPTION = 0x00;  //下降沿中断 Fcpu 上升沿计数 TMR0 1/2预分频
0003   18??           00202         CLRF    _OPTION
                      00203 ;;[ICODE] init.c:58:    _PCON [k5 lr0:0 so:0]{ ia1 a2p0 re0 rm0 nos0 ru0 dp0}{volatile-unsigned-char sfr
                            } = _PCON [k5 lr0:0 so:0]{ ia0 a2p0 re0 rm0 nos0 ru0 dp0}{volatile-unsigned-char sfr} | 0x90 {const-unsi
                            gned-char literal}
                      00204 ;       .line   58; "init.c"    PCON |= 0x90;   //使能WDT
0004   0490           00205         MOVLW   0x90
0005   1D??           00206         IORWF   _PCON,F
                      00207 ;;[ICODE] init.c:60:    _CMPCR [k7 lr0:0 so:0]{ ia1 a2p0 re0 rm0 nos0 ru0 dp0}{volatile-unsigned-char sf
                            r} := 0x0 {const-unsigned-char literal}
                      00208 ;       .line   60; "init.c"    CMPCR = 0x00;  //关闭比较器
0006   18??           00209         CLRF    _CMPCR
                      00210 ;;[ICODE] init.c:61:    _INTFLAG [k8 lr0:0 so:0]{ ia1 a2p0 re0 rm0 nos0 ru0 dp0}{volatile-unsigned-char 
                            sfr} = _INTFLAG [k8 lr0:0 so:0]{ ia0 a2p0 re0 rm0 nos0 ru0 dp0}{volatile-unsigned-char sfr} & 0xfe {cons
                            t-unsigned-char literal}
                      00211 ;       .line   61; "init.c"    INTFLAG &= 0xFE;
0007   3C??           00212         BCF     _INTFLAG,0
                      00213 ;;[ICODE] init.c:62:    _CMPCR [k7 lr0:0 so:0]{ ia1 a2p0 re0 rm0 nos0 ru0 dp0}{volatile-unsigned-char sf
                            r} = _CMPCR [k7 lr0:0 so:0]{ ia0 a2p0 re0 rm0 nos0 ru0 dp0}{volatile-unsigned-char sfr} | 0x10 {const-un
                            signed-char literal}
                      00214 ;       .line   62; "init.c"    CMPCR |= 0X10;
0008   3A??           00215         BSF     _CMPCR,4
                      00216 ;;[ICODE] init.c:62:  _return($1) :
                      00217 ;;[ICODE] init.c:62:    eproc _InitSystem [k1 lr0:0 so:0]{ ia0 a2p0 re0 rm0 nos0 ru0 dp0}{void function 
                            ( ) fixed}
0009   0002           00218         RETURN  
                      00219 ; exit point of _InitSystem
                      00220 
                      00221 ;***
                      00222 ;  pBlock Stats: dbName = C
                      00223 ;***
                      00224 ;has an exit
                      00225 ;; Starting pCode block
gpasm-1.5.0 #1284 (Oct 14 2022)      init.asm   04/30/25  14:51:05          PAGE  6


LOC    OBJECT CODE    LINE  SOURCE TEXT
  VALUE

                      00226 ;;[ICODE] init.c:4:  _entry($2) :
                      00227 ;;[ICODE] init.c:4:     proc _InitPort [k1 lr0:0 so:0]{ ia0 a2p0 re0 rm0 nos0 ru0 dp0}{void function ( )
                             fixed}
                      00228 S_init__InitPort        code
0000                  00229 _InitPort:
                      00230 ; 2 exit points
                      00231 ;;[ICODE] init.c:7:     _AUXR [k2 lr0:0 so:0]{ ia1 a2p0 re0 rm0 nos0 ru0 dp0}{volatile-unsigned-char sfr
                            } := 0x0 {const-unsigned-char literal}
                      00232 ;       .line   7; "init.c"     AUXR = 0;
0000   18??           00233         CLRF    _AUXR
                      00234 ;;[ICODE] init.c:9:     _PORTB [k3 lr0:0 so:0]{ ia1 a2p0 re0 rm0 nos0 ru0 dp0}{volatile-unsigned-char sf
                            r} := 0x0 {const-unsigned-char literal}
                      00235 ;       .line   9; "init.c"     PORTB = 0;  // 0 disenable output, 1 enable output
0001   18??           00236         CLRF    _PORTB
                      00237 ;;[ICODE] init.c:14:    _TRISB [k4 lr0:0 so:0]{ ia1 a2p0 re0 rm0 nos0 ru0 dp0}{volatile-unsigned-char sf
                            r} := 0x0 {const-unsigned-char literal}
                      00238 ;       .line   14; "init.c"    TRISB = 0;    //1：input  0:output
0002   18??           00239         CLRF    _TRISB
                      00240 ;;[ICODE] init.c:15:    _TRISB [k4 lr0:0 so:0]{ ia1 a2p0 re0 rm0 nos0 ru0 dp0}{volatile-unsigned-char sf
                            r} = _TRISB [k4 lr0:0 so:0]{ ia0 a2p0 re0 rm0 nos0 ru0 dp0}{volatile-unsigned-char sfr} | 0x4 {const-uns
                            igned-char literal}
                      00241 ;       .line   15; "init.c"    TRISB |= DEF_SET_BIT2;
0003   39??           00242         BSF     _TRISB,2
                      00243 ;;[ICODE] init.c:16:    _TRISB [k4 lr0:0 so:0]{ ia1 a2p0 re0 rm0 nos0 ru0 dp0}{volatile-unsigned-char sf
                            r} = _TRISB [k4 lr0:0 so:0]{ ia0 a2p0 re0 rm0 nos0 ru0 dp0}{volatile-unsigned-char sfr} | 0x10 {const-un
                            signed-char literal}
                      00244 ;       .line   16; "init.c"    TRISB |= DEF_SET_BIT4;
0004   3A??           00245         BSF     _TRISB,4
                      00246 ;;[ICODE] init.c:17:    _TRISB [k4 lr0:0 so:0]{ ia1 a2p0 re0 rm0 nos0 ru0 dp0}{volatile-unsigned-char sf
                            r} = _TRISB [k4 lr0:0 so:0]{ ia0 a2p0 re0 rm0 nos0 ru0 dp0}{volatile-unsigned-char sfr} | 0x20 {const-un
                            signed-char literal}
                      00247 ;       .line   17; "init.c"    TRISB |= DEF_SET_BIT5;
0005   3A??           00248         BSF     _TRISB,5
                      00249 ;;[ICODE] init.c:21:    _PHCON [k8 lr0:0 so:0]{ ia1 a2p0 re0 rm0 nos0 ru0 dp0}{volatile-unsigned-char sf
                            r} := 0xff {const-unsigned-char literal}
                      00250 ;       .line   21; "init.c"    PHCON = 0XFF;  // 1 disenable high pull ,0 enable high pull
0006   04FF           00251         MOVLW   0xff
0007   19??           00252         MOVWF   _PHCON
                      00253 ;;[ICODE] init.c:23:    _PHCON [k8 lr0:0 so:0]{ ia1 a2p0 re0 rm0 nos0 ru0 dp0}{volatile-unsigned-char sf
                            r} = _PHCON [k8 lr0:0 so:0]{ ia0 a2p0 re0 rm0 nos0 ru0 dp0}{volatile-unsigned-char sfr} & 0xfe {const-un
                            signed-char literal}
                      00254 ;       .line   23; "init.c"    PHCON &= DEF_CLR_BIT0;
0008   3C??           00255         BCF     _PHCON,0
                      00256 ;;[ICODE] init.c:24:    _PHCON [k8 lr0:0 so:0]{ ia1 a2p0 re0 rm0 nos0 ru0 dp0}{volatile-unsigned-char sf
                            r} = _PHCON [k8 lr0:0 so:0]{ ia0 a2p0 re0 rm0 nos0 ru0 dp0}{volatile-unsigned-char sfr} & 0xfd {const-un
                            signed-char literal}
                      00257 ;       .line   24; "init.c"    PHCON &= DEF_CLR_BIT1;
0009   3C??           00258         BCF     _PHCON,1
                      00259 ;;[ICODE] init.c:27:    _PHCON [k8 lr0:0 so:0]{ ia1 a2p0 re0 rm0 nos0 ru0 dp0}{volatile-unsigned-char sf
                            r} = _PHCON [k8 lr0:0 so:0]{ ia0 a2p0 re0 rm0 nos0 ru0 dp0}{volatile-unsigned-char sfr} & 0xfb {const-un
                            signed-char literal}
                      00260 ;       .line   27; "init.c"    PHCON &= DEF_CLR_BIT2;
000A   3D??           00261         BCF     _PHCON,2
gpasm-1.5.0 #1284 (Oct 14 2022)      init.asm   04/30/25  14:51:05          PAGE  7


LOC    OBJECT CODE    LINE  SOURCE TEXT
  VALUE

                      00262 ;;[ICODE] init.c:28:    _PHCON [k8 lr0:0 so:0]{ ia1 a2p0 re0 rm0 nos0 ru0 dp0}{volatile-unsigned-char sf
                            r} = _PHCON [k8 lr0:0 so:0]{ ia0 a2p0 re0 rm0 nos0 ru0 dp0}{volatile-unsigned-char sfr} & 0xef {const-un
                            signed-char literal}
                      00263 ;       .line   28; "init.c"    PHCON &= DEF_CLR_BIT4;
000B   3E??           00264         BCF     _PHCON,4
                      00265 ;;[ICODE] init.c:32:    _PDCON [k13 lr0:0 so:0]{ ia1 a2p0 re0 rm0 nos0 ru0 dp0}{volatile-unsigned-char s
                            fr} := 0xff {const-unsigned-char literal}
                      00266 ;       .line   32; "init.c"    PDCON = 0xFF;  // 1 disenable down pull ,0 enable down pull
000C   04FF           00267         MOVLW   0xff
000D   19??           00268         MOVWF   _PDCON
                      00269 ;;[ICODE] init.c:33:    _PDCON1 [k14 lr0:0 so:0]{ ia1 a2p0 re0 rm0 nos0 ru0 dp0}{volatile-unsigned-char 
                            sfr} := 0xff {const-unsigned-char literal}
                      00270 ;       .line   33; "init.c"    PDCON1 = 0xFF; // 1 disenable down pull ,0 enable down pull
000E   04FF           00271         MOVLW   0xff
000F   19??           00272         MOVWF   _PDCON1
                      00273 ;;[ICODE] init.c:37:    _IOCB [k15 lr0:0 so:0]{ ia1 a2p0 re0 rm0 nos0 ru0 dp0}{volatile-unsigned-char sf
                            r} := 0x0 {const-unsigned-char literal}
                      00274 ;       .line   37; "init.c"    IOCB = 0X00; // 0 disenable weak up     ,1 enable weak up
0010   18??           00275         CLRF    _IOCB
                      00276 ;;[ICODE] init.c:39:    iTemp8 [k19 lr24:26 so:0]{ ia0 a2p0 re0 rm1 nos0 ru0 dp0}{volatile-unsigned-bitf
                            ield {1,1} near* fixed}[remat] = &[_INTECONbits [k16 lr0:0 so:0]{ ia0 a2p0 re0 rm0 nos0 ru0 dp0}{volatil
                            e-struct __00000024 fixed} , 0x0 {const-unsigned-char literal}]
                      00277 ;;[ICODE] init.c:39:    *(iTemp8 [k19 lr24:26 so:0]{ ia1 a2p0 re0 rm1 nos0 ru0 dp0}{volatile-unsigned-bi
                            tfield {1,1} near* fixed}[remat]) := 0x0 {const-unsigned-char literal}
                      00278 ;       .line   39; "init.c"    PBIE = 0; // 0  disenable Port level change interrupt , 1 enable Port le
                            vel change interrupt
0011   3C??           00279         BCF     _INTECONbits,1
                      00280 ;;[ICODE] init.c:40:    _ODCON [k20 lr0:0 so:0]{ ia1 a2p0 re0 rm0 nos0 ru0 dp0}{volatile-unsigned-char s
                            fr} := 0x0 {const-unsigned-char literal}
                      00281 ;       .line   40; "init.c"    ODCON = 0;
0012   18??           00282         CLRF    _ODCON
                      00283 ;;[ICODE] init.c:41:    _ODCON [k20 lr0:0 so:0]{ ia1 a2p0 re0 rm0 nos0 ru0 dp0}{volatile-unsigned-char s
                            fr} = _ODCON [k20 lr0:0 so:0]{ ia0 a2p0 re0 rm0 nos0 ru0 dp0}{volatile-unsigned-char sfr} | 0x1 {const-u
                            nsigned-char literal}
                      00284 ;       .line   41; "init.c"    ODCON |= DEF_SET_BIT0; // 0 disenable open drain output, 1 enable open d
                            rain output
0013   38??           00285         BSF     _ODCON,0
                      00286 ;;[ICODE] init.c:42:    _ODCON [k20 lr0:0 so:0]{ ia1 a2p0 re0 rm0 nos0 ru0 dp0}{volatile-unsigned-char s
                            fr} = _ODCON [k20 lr0:0 so:0]{ ia0 a2p0 re0 rm0 nos0 ru0 dp0}{volatile-unsigned-char sfr} | 0x2 {const-u
                            nsigned-char literal}
                      00287 ;       .line   42; "init.c"    ODCON |= DEF_SET_BIT1;
0014   38??           00288         BSF     _ODCON,1
                      00289 ;;[ICODE] init.c:45:    iTemp12 [k26 lr32:34 so:0]{ ia0 a2p0 re0 rm1 nos0 ru0 dp0}{volatile-unsigned-bit
                            field {1,1} near* fixed}[remat] = &[_PORTBbits [k23 lr0:0 so:0]{ ia0 a2p0 re0 rm0 nos0 ru0 dp0}{volatile
                            -struct __00000005 fixed} , 0x0 {const-unsigned-char literal}]
                      00290 ;;[ICODE] init.c:45:    *(iTemp12 [k26 lr32:34 so:0]{ ia1 a2p0 re0 rm1 nos0 ru0 dp0}{volatile-unsigned-b
                            itfield {1,1} near* fixed}[remat]) := 0x1 {const-unsigned-char literal}
                      00291 ;       .line   45; "init.c"    PORT_LED1 = 1;  //灯光  1：灭  0：亮
0015   38??           00292         BSF     _PORTBbits,1
                      00293 ;;[ICODE] init.c:46:    iTemp14 [k29 lr35:37 so:0]{ ia0 a2p0 re0 rm1 nos0 ru0 dp0}{volatile-unsigned-bit
                            field {0,1} near* fixed}[remat] = &[_PORTBbits [k23 lr0:0 so:0]{ ia0 a2p0 re0 rm0 nos0 ru0 dp0}{volatile
                            -struct __00000005 fixed} , 0x0 {const-unsigned-char literal}]
                      00294 ;;[ICODE] init.c:46:    *(iTemp14 [k29 lr35:37 so:0]{ ia1 a2p0 re0 rm1 nos0 ru0 dp0}{volatile-unsigned-b
gpasm-1.5.0 #1284 (Oct 14 2022)      init.asm   04/30/25  14:51:05          PAGE  8


LOC    OBJECT CODE    LINE  SOURCE TEXT
  VALUE

                            itfield {0,1} near* fixed}[remat]) := 0x1 {const-unsigned-char literal}
                      00295 ;       .line   46; "init.c"    PORT_LED2 = 1;  //电机 1：灭  0：亮
0016   38??           00296         BSF     _PORTBbits,0
                      00297 ;;[ICODE] init.c:47:    iTemp16 [k32 lr38:40 so:0]{ ia0 a2p0 re0 rm1 nos0 ru0 dp0}{volatile-unsigned-bit
                            field {3,1} near* fixed}[remat] = &[_PORTBbits [k23 lr0:0 so:0]{ ia0 a2p0 re0 rm0 nos0 ru0 dp0}{volatile
                            -struct __00000005 fixed} , 0x0 {const-unsigned-char literal}]
                      00298 ;;[ICODE] init.c:47:    *(iTemp16 [k32 lr38:40 so:0]{ ia1 a2p0 re0 rm1 nos0 ru0 dp0}{volatile-unsigned-b
                            itfield {3,1} near* fixed}[remat]) := 0x0 {const-unsigned-char literal}
                      00299 ;       .line   47; "init.c"    PORT_LED3 = 0; //pow
0017   3D??           00300         BCF     _PORTBbits,3
                      00301 ;;[ICODE] init.c:47:  _return($1) :
                      00302 ;;[ICODE] init.c:47:    eproc _InitPort [k1 lr0:0 so:0]{ ia0 a2p0 re0 rm0 nos0 ru0 dp0}{void function ( 
                            ) fixed}
0018   0002           00303         RETURN  
                      00304 ; exit point of _InitPort
                      00305 
                      00306 
                      00307 ;       code size estimation:
                      00308 ;          48+    0 =    48 instructions (   96 byte)
                      00309 
                      00310         end
gpasm-1.5.0 #1284 (Oct 14 2022)      init.asm   04/30/25  14:51:05          PAGE  9


SYMBOL TABLE
  LABEL                              TYPE        VALUE         VALUE          VALUE
                                                 (hex)         (dec)          (text)

AUXR                              CONSTANT      00000059             89
BOR                               CONSTANT      00000006              6
BUZ                               CONSTANT      00000005              5
C                                 CONSTANT      00000000              0
CHARE                             CONSTANT      00000005              5
CHARF                             CONSTANT      00000005              5
CHARGE0                           CONSTANT      00000053             83
CHARGE1                           CONSTANT      00000054             84
CHARGEN                           CONSTANT      00000007              7
CMPCR                             CONSTANT      00000051             81
CMPEN                             CONSTANT      00000000              0
CMPF                              CONSTANT      00000003              3
CMPIE                             CONSTANT      00000002              2
CMPIES                            CONSTANT      00000001              1
CMPOF                             CONSTANT      00000005              5
CMPWK                             CONSTANT      00000003              3
CPNIS0                            CONSTANT      00000001              1
CPNIS1                            CONSTANT      00000002              2
CPNIS2                            CONSTANT      00000003              3
CPNIS3                            CONSTANT      00000004              4
CPPIS                             CONSTANT      00000000              0
DC                                CONSTANT      00000001              1
EIS                               CONSTANT      00000006              6
F                                 CONSTANT      00000001              1
FSR                               CONSTANT      00000004              4
GIE                               CONSTANT      00000007              7
GP0                               CONSTANT      00000005              5
GP1                               CONSTANT      00000006              6
GPR                               CONSTANT      00000007              7
HIRCTRM                           CONSTANT      0000005B             91
HXEN                              CONSTANT      00000001              1
INDF                              CONSTANT      00000000              0
INTE                              CONSTANT      00000002              2
INTECON                           CONSTANT      0000000E             14
INTEDG                            CONSTANT      00000006              6
INTF                              CONSTANT      00000002              2
INTFLAG                           CONSTANT      0000000F             15
IOCB                              CONSTANT      00000009              9
IOCB0                             CONSTANT      00000000              0
IOCB1                             CONSTANT      00000001              1
IOCB2                             CONSTANT      00000002              2
IOCB3                             CONSTANT      00000003              3
IOCB4                             CONSTANT      00000004              4
IOCB5                             CONSTANT      00000005              5
IOCB6                             CONSTANT      00000006              6
IOCB7                             CONSTANT      00000007              7
LVDM                              CONSTANT      00000004              4
MODSEL                            CONSTANT      00000007              7
ODB0                              CONSTANT      00000000              0
ODB1                              CONSTANT      00000001              1
ODB2                              CONSTANT      00000002              2
ODB3                              CONSTANT      00000003              3
gpasm-1.5.0 #1284 (Oct 14 2022)      init.asm   04/30/25  14:51:05          PAGE 10


SYMBOL TABLE
  LABEL                              TYPE        VALUE         VALUE          VALUE
                                                 (hex)         (dec)          (text)

ODB4                              CONSTANT      00000004              4
ODB5                              CONSTANT      00000005              5
ODB6                              CONSTANT      00000006              6
ODB7                              CONSTANT      00000007              7
ODCON                             CONSTANT      0000000C             12
OPTION                            CONSTANT      00000041             65
OSCCON                            CONSTANT      00000050             80
PBIE                              CONSTANT      00000001              1
PBIF                              CONSTANT      00000001              1
PCL                               CONSTANT      00000002              2
PCLATH                            CONSTANT      0000000A             10
PCON                              CONSTANT      00000008              8
PD                                CONSTANT      00000003              3
PDB0                              CONSTANT      00000004              4
PDB1                              CONSTANT      00000005              5
PDB2                              CONSTANT      00000006              6
PDB3                              CONSTANT      00000003              3
PDB4                              CONSTANT      00000004              4
PDB5                              CONSTANT      00000005              5
PDB6                              CONSTANT      00000006              6
PDB7                              CONSTANT      00000007              7
PDCON                             CONSTANT      0000000B             11
PDCON1                            CONSTANT      00000052             82
PHB0                              CONSTANT      00000000              0
PHB1                              CONSTANT      00000001              1
PHB2                              CONSTANT      00000002              2
PHB3                              CONSTANT      00000003              3
PHB4                              CONSTANT      00000004              4
PHB5                              CONSTANT      00000005              5
PHB6                              CONSTANT      00000006              6
PHB7                              CONSTANT      00000007              7
PHCON                             CONSTANT      0000000D             13
POR                               CONSTANT      00000007              7
PORTB                             CONSTANT      00000006              6
PORTB0                            CONSTANT      00000000              0
PORTB1                            CONSTANT      00000001              1
PORTB2                            CONSTANT      00000002              2
PORTB3                            CONSTANT      00000003              3
PORTB4                            CONSTANT      00000004              4
PORTB5                            CONSTANT      00000005              5
PORTB6                            CONSTANT      00000006              6
PORTB7                            CONSTANT      00000007              7
PS0                               CONSTANT      00000000              0
PS1                               CONSTANT      00000001              1
PS2                               CONSTANT      00000002              2
PSA                               CONSTANT      00000003              3
PSAVE                             EXTERNAL      00000000              0
PWM0E                             CONSTANT      00000006              6
PWM0OE                            CONSTANT      00000007              7
PWM0P                             CONSTANT      0000004F             79
PWM1E                             CONSTANT      00000001              1
PWM1OE                            CONSTANT      00000006              6
gpasm-1.5.0 #1284 (Oct 14 2022)      init.asm   04/30/25  14:51:05          PAGE 11


SYMBOL TABLE
  LABEL                              TYPE        VALUE         VALUE          VALUE
                                                 (hex)         (dec)          (text)

PWM1P                             CONSTANT      00000049             73
PWM2E                             CONSTANT      00000000              0
PWM2OE                            CONSTANT      00000005              5
PWM2P                             CONSTANT      0000004A             74
PWM3CT                            CONSTANT      00000001              1
PWMCK                             CONSTANT      00000004              4
PWMCON                            CONSTANT      00000048             72
PWMCT                             CONSTANT      00000000              0
PWMINV                            CONSTANT      00000002              2
PWMMD                             CONSTANT      00000003              3
RAMP                              CONSTANT      00000055             85
RCTRMEN                           CONSTANT      00000002              2
RST                               CONSTANT      00000007              7
S0                                CONSTANT      00000000              0
S1                                CONSTANT      00000001              1
S2                                CONSTANT      00000002              2
S3                                CONSTANT      00000003              3
S4                                CONSTANT      00000004              4
S5                                CONSTANT      00000005              5
S6                                CONSTANT      00000006              6
S7                                CONSTANT      00000007              7
S8                                CONSTANT      00000000              0
S9                                CONSTANT      00000001              1
SCS                               CONSTANT      00000000              0
SINK_SEL                          CONSTANT      00000006              6
SLOP0                             CONSTANT      00000000              0
SLOP1                             CONSTANT      00000001              1
SLOP2                             CONSTANT      00000002              2
SSAVE                             EXTERNAL      00000000              0
STATUS                            CONSTANT      00000003              3
STK00                             EXTERNAL      00000000              0
STK01                             EXTERNAL      00000000              0
STK02                             EXTERNAL      00000000              0
STK03                             EXTERNAL      00000000              0
STK04                             EXTERNAL      00000000              0
STK05                             EXTERNAL      00000000              0
STK06                             EXTERNAL      00000000              0
STK07                             EXTERNAL      00000000              0
STK08                             EXTERNAL      00000000              0
STK09                             EXTERNAL      00000000              0
STK10                             EXTERNAL      00000000              0
STK11                             EXTERNAL      00000000              0
STK12                             EXTERNAL      00000000              0
T0                                CONSTANT      00000001              1
T0CK                              CONSTANT      00000007              7
T0CR                              CONSTANT      0000004B             75
T0CS                              CONSTANT      00000005              5
T0IE                              CONSTANT      00000000              0
T0IF                              CONSTANT      00000000              0
T0OSCEN                           CONSTANT      00000007              7
T0SE                              CONSTANT      00000004              4
T1                                CONSTANT      0000004D             77
gpasm-1.5.0 #1284 (Oct 14 2022)      init.asm   04/30/25  14:51:05          PAGE 12


SYMBOL TABLE
  LABEL                              TYPE        VALUE         VALUE          VALUE
                                                 (hex)         (dec)          (text)

T1CK0                             CONSTANT      00000003              3
T1CK1                             CONSTANT      00000004              4
T1CON                             CONSTANT      0000004C             76
T1EN                              CONSTANT      00000007              7
T1IE                              CONSTANT      00000001              1
T1IF                              CONSTANT      00000000              0
T1LOAD                            CONSTANT      0000004E             78
T1PR0                             CONSTANT      00000000              0
T1PR1                             CONSTANT      00000001              1
T1PR2                             CONSTANT      00000002              2
TEMPEN                            CONSTANT      00000006              6
TMPE                              CONSTANT      00000004              4
TMPF                              CONSTANT      00000004              4
TO                                CONSTANT      00000004              4
TRISB                             CONSTANT      00000046             70
TRISB0                            CONSTANT      00000000              0
TRISB1                            CONSTANT      00000001              1
TRISB2                            CONSTANT      00000002              2
TRISB3                            CONSTANT      00000003              3
TRISB4                            CONSTANT      00000004              4
TRISB5                            CONSTANT      00000005              5
TRISB6                            CONSTANT      00000006              6
TRISB7                            CONSTANT      00000007              7
W                                 CONSTANT      00000000              0
WDTEN                             CONSTANT      00000007              7
WSAVE                             EXTERNAL      00000000              0
Z                                 CONSTANT      00000002              2
_AUXR                             EXTERNAL      00000000              0
_AUXRbits                         EXTERNAL      00000000              0
_BITS_DATA0                       EXTERNAL      00000000              0
_BITS_DATA1                       EXTERNAL      00000000              0
_CHARGE0                          EXTERNAL      00000000              0
_CHARGE0bits                      EXTERNAL      00000000              0
_CHARGE1                          EXTERNAL      00000000              0
_CHARGE1bits                      EXTERNAL      00000000              0
_CMPCR                            EXTERNAL      00000000              0
_CMPCRbits                        EXTERNAL      00000000              0
_CONFIG                           CONSTANT      00002000           8192
_CP_OFF                           CONSTANT      00003FFF          16383
_CP_ON                            CONSTANT      00003FEF          16367
_FOSC_HS                          CONSTANT      00003FFD          16381
_FOSC_INTRCIO                     CONSTANT      00003FFC          16380
_FOSC_LP                          CONSTANT      00003CFF          15615
_FOSC_XT                          CONSTANT      00003DFF          15871
_FSR                              EXTERNAL      00000000              0
_GPR                              EXTERNAL      00000000              0
_HIRCTRM                          EXTERNAL      00000000              0
_HS_OSC                           CONSTANT      00003FFD          16381
_INDF                             EXTERNAL      00000000              0
_INTECON                          EXTERNAL      00000000              0
_INTECONbits                      EXTERNAL      00000000              0
_INTFLAG                          EXTERNAL      00000000              0
gpasm-1.5.0 #1284 (Oct 14 2022)      init.asm   04/30/25  14:51:05          PAGE 13


SYMBOL TABLE
  LABEL                              TYPE        VALUE         VALUE          VALUE
                                                 (hex)         (dec)          (text)

_INTFLAGbits                      EXTERNAL      00000000              0
_INTOSCIO                         CONSTANT      00003FFC          16380
_INTRC_OSC_NOCLKOUT               CONSTANT      00003FFC          16380
_IOCB                             EXTERNAL      00000000              0
_IOCBbits                         EXTERNAL      00000000              0
_InitPort                         GLOBAL        00000000              0
_InitPwm                          GLOBAL        00000000              0
_InitRam                          GLOBAL        00000000              0
_InitSystem                       GLOBAL        00000000              0
_LP_OSC                           CONSTANT      00003CFF          15615
_MaxLight                         EXTERNAL      00000000              0
_ODCON                            EXTERNAL      00000000              0
_ODCONbits                        EXTERNAL      00000000              0
_OPTION                           EXTERNAL      00000000              0
_OPTIONbits                       EXTERNAL      00000000              0
_OSCCON                           EXTERNAL      00000000              0
_OSCCONbits                       EXTERNAL      00000000              0
_PCL                              EXTERNAL      00000000              0
_PCLATH                           EXTERNAL      00000000              0
_PCON                             EXTERNAL      00000000              0
_PCONbits                         EXTERNAL      00000000              0
_PDCON                            EXTERNAL      00000000              0
_PDCON1                           EXTERNAL      00000000              0
_PDCON1bits                       EXTERNAL      00000000              0
_PDCONbits                        EXTERNAL      00000000              0
_PHCON                            EXTERNAL      00000000              0
_PHCONbits                        EXTERNAL      00000000              0
_PORTB                            EXTERNAL      00000000              0
_PORTBbits                        EXTERNAL      00000000              0
_PWM0P                            EXTERNAL      00000000              0
_PWM1P                            EXTERNAL      00000000              0
_PWM2P                            EXTERNAL      00000000              0
_PWMCON                           EXTERNAL      00000000              0
_PWMCONbits                       EXTERNAL      00000000              0
_RAMP                             EXTERNAL      00000000              0
_RAMPbits                         EXTERNAL      00000000              0
_STATUS                           EXTERNAL      00000000              0
_STATUSbits                       EXTERNAL      00000000              0
_SleepCount                       EXTERNAL      00000000              0
_SleepFlag                        EXTERNAL      00000000              0
_T0                               EXTERNAL      00000000              0
_T0CR                             EXTERNAL      00000000              0
_T0CRbits                         EXTERNAL      00000000              0
_T1                               EXTERNAL      00000000              0
_T1CON                            EXTERNAL      00000000              0
_T1CONbits                        EXTERNAL      00000000              0
_T1LOAD                           EXTERNAL      00000000              0
_TRISB                            EXTERNAL      00000000              0
_TRISBbits                        EXTERNAL      00000000              0
_TempCount                        EXTERNAL      00000000              0
_TempFlag                         EXTERNAL      00000000              0
_WDTE_OFF                         CONSTANT      00003FFB          16379
gpasm-1.5.0 #1284 (Oct 14 2022)      init.asm   04/30/25  14:51:05          PAGE 14


SYMBOL TABLE
  LABEL                              TYPE        VALUE         VALUE          VALUE
                                                 (hex)         (dec)          (text)

_WDTE_ON                          CONSTANT      00003FFF          16383
_WDT_OFF                          CONSTANT      00003FFB          16379
_WDT_ON                           CONSTANT      00003FFF          16383
_XT_OSC                           CONSTANT      00003DFF          15871
__14_BIT                          CONSTANT      00000001              1
__18P018A0                        CONSTANT      00000001              1
__ACTIVE_BANK_ADDR                VARIABLE      FFFFFFFF             -1
__ACTIVE_PAGE_ADDR                VARIABLE      FFFFFFFF             -1
__ASSUMED_BANK_ADDR               VARIABLE      00000000              0
__BANK_0                          CONSTANT      00000000              0
__BANK_BITS                       CONSTANT      00000080            128
__BANK_FIRST                      CONSTANT      00000000              0
__BANK_INV                        CONSTANT      FFFFFFFF             -1
__BANK_LAST                       CONSTANT      00000000              0
__BANK_MASK                       CONSTANT      0000007F            127
__BANK_SHIFT                      CONSTANT      00000007              7
__BANK_SIZE                       CONSTANT      00000080            128
__CODE_END                        CONSTANT      000003FF           1023
__CODE_START                      CONSTANT      00000000              0
__CONFIG_END                      CONSTANT      00002003           8195
__CONFIG_START                    CONSTANT      00002000           8192
__GPUTILS_SVN_VERSION             CONSTANT      00000504           1284
__GPUTILS_VERSION_MAJOR           CONSTANT      00000001              1
__GPUTILS_VERSION_MICRO           CONSTANT      00000000              0
__GPUTILS_VERSION_MINOR           CONSTANT      00000005              5
__IDLOCS_END                      CONSTANT      00002005           8197
__IDLOCS_START                    CONSTANT      00002004           8196
__NUM_BANKS                       CONSTANT      00000001              1
__PAGE_BITS                       CONSTANT      00001800           6144
__PAGE_INV                        CONSTANT      FFFFFFFF             -1
__PAGE_MASK                       CONSTANT      00000000              0
__PAGE_SHIFT                      CONSTANT      0000000B             11
__PAGE_SIZE                       CONSTANT      00000000              0
__VECTOR_INT                      CONSTANT      00000008              8
__VECTOR_RESET                    CONSTANT      00000000              0
__WHILE_LOOP_COUNT_MAX            CONSTANT      000000FF            255
_g_ucTimer10msCount               EXTERNAL      00000000              0
_g_ucTimerWorkCount               EXTERNAL      00000000              0

Errors   :     0
Warnings :     0 reported,     0 suppressed
Messages :     1 reported,     0 suppressed

