gpasm-1.5.0 #1284 (Oct 14 2022)      main.asm   04/30/25  13:40:47          PAGE  1


LOC    OBJECT CODE    LINE  SOURCE TEXT
  VALUE

                      00001 ;--------------------------------------------------------
                      00002 ; File Created by SDCC : free open source ANSI-C Compiler
                      00003 ; Version 3.6.0 #9615 (CYGWIN)
                      00004 ;--------------------------------------------------------
                      00005 ; PIC port for the 14-bit core
                      00006 ;--------------------------------------------------------
                      00007 ;       .file   "main.c"
                      00008         list    p=18p018a0
                      00009         radix dec
                      00010         include "p18p018a0.inc"
                      00001        LIST
                      00002 
                      00003 ;==========================================================================
                      00004 ; Build date : Jun 02 2017
                      00005 ;  HCIDE HC18P018A0 processor include
                      00006 ; 
                      00007 ;  (c) Copyright 2012-2021 Holychip Technology, All rights reserved
                      00008 ;==========================================================================
                      00009 
Message[301]: MESSAGE: "Processor-header file mismatch.  Verify selected processor."
                      00378         LIST
                      00011 ;--------------------------------------------------------
                      00012 ; external declarations
                      00013 ;--------------------------------------------------------
  0000                00014         extern  _InitPort
  0000                00015         extern  _InitSystem
  0000                00016         extern  _InitPwm
  0000                00017         extern  _InitRam
  0000                00018         extern  _CheckLvd
  0000                00019         extern  _ConfigureLvd
  0000                00020         extern  _Work
  0000                00021         extern  _ScanKey
  0000                00022         extern  _CheckTemp
  0000                00023         extern  _CheckSleep
  0000                00024         extern  _ControlLevelLow
  0000                00025         extern  _ControlLevelHigh
  0000                00026         extern  _ControlLevel
  0000                00027         extern  _ControlFlash
  0000                00028         extern  _ControlSos
  0000                00029         extern  _LedDisplay
  0000                00030         extern  _LedOn
  0000                00031         extern  _LedOff
  0000                00032         extern  _MotoDisplay
  0000                00033         extern  _LedSwitch
  0000                00034         extern  _MotoSwitch
  0000                00035         extern  _PowOn
  0000                00036         extern  _PowOff
  0000                00037         extern  _CountdownDisplay
  0000                00038         extern  _STATUSbits
  0000                00039         extern  _PORTBbits
  0000                00040         extern  _PCONbits
  0000                00041         extern  _IOCBbits
  0000                00042         extern  _PDCONbits
gpasm-1.5.0 #1284 (Oct 14 2022)      main.asm   04/30/25  13:40:47          PAGE  2


LOC    OBJECT CODE    LINE  SOURCE TEXT
  VALUE

  0000                00043         extern  _ODCONbits
  0000                00044         extern  _PHCONbits
  0000                00045         extern  _INTECONbits
  0000                00046         extern  _INTFLAGbits
  0000                00047         extern  _OPTIONbits
  0000                00048         extern  _TRISBbits
  0000                00049         extern  _PWMCONbits
  0000                00050         extern  _T0CRbits
  0000                00051         extern  _T1CONbits
  0000                00052         extern  _OSCCONbits
  0000                00053         extern  _CMPCRbits
  0000                00054         extern  _PDCON1bits
  0000                00055         extern  _CHARGE0bits
  0000                00056         extern  _CHARGE1bits
  0000                00057         extern  _RAMPbits
  0000                00058         extern  _AUXRbits
  0000                00059         extern  _BITS_DATA0
  0000                00060         extern  _BITS_DATA1
  0000                00061         extern  _g_ucTimer10msCount
  0000                00062         extern  _g_ucTimerWorkCount
  0000                00063         extern  _TempCount
  0000                00064         extern  _TempFlag
  0000                00065         extern  _SleepCount
  0000                00066         extern  _SleepFlag
  0000                00067         extern  _MaxLight
  0000                00068         extern  _INDF
  0000                00069         extern  _T0
  0000                00070         extern  _PCL
  0000                00071         extern  _STATUS
  0000                00072         extern  _FSR
  0000                00073         extern  _PORTB
  0000                00074         extern  _GPR
  0000                00075         extern  _PCON
  0000                00076         extern  _IOCB
  0000                00077         extern  _PCLATH
  0000                00078         extern  _PDCON
  0000                00079         extern  _ODCON
  0000                00080         extern  _PHCON
  0000                00081         extern  _INTECON
  0000                00082         extern  _INTFLAG
  0000                00083         extern  _OPTION
  0000                00084         extern  _TRISB
  0000                00085         extern  _PWMCON
  0000                00086         extern  _PWM1P
  0000                00087         extern  _PWM2P
  0000                00088         extern  _T0CR
  0000                00089         extern  _T1CON
  0000                00090         extern  _T1
  0000                00091         extern  _T1LOAD
  0000                00092         extern  _PWM0P
  0000                00093         extern  _OSCCON
  0000                00094         extern  _CMPCR
  0000                00095         extern  _PDCON1
gpasm-1.5.0 #1284 (Oct 14 2022)      main.asm   04/30/25  13:40:47          PAGE  3


LOC    OBJECT CODE    LINE  SOURCE TEXT
  VALUE

  0000                00096         extern  _CHARGE0
  0000                00097         extern  _CHARGE1
  0000                00098         extern  _RAMP
  0000                00099         extern  _AUXR
  0000                00100         extern  _HIRCTRM
                      00101 ;--------------------------------------------------------
                      00102 ; global declarations
                      00103 ;--------------------------------------------------------
  0000                00104         global  __sdcc_gsinit_startup
  0000                00105         global  _main
  0000                00106         global  _VERSION
                      00107 
  0000                00108         global PSAVE
  0000                00109         global SSAVE
  0000                00110         global WSAVE
  0000                00111         global STK12
  0000                00112         global STK11
  0000                00113         global STK10
  0000                00114         global STK09
  0000                00115         global STK08
  0000                00116         global STK07
  0000                00117         global STK06
  0000                00118         global STK05
  0000                00119         global STK04
  0000                00120         global STK03
  0000                00121         global STK02
  0000                00122         global STK01
  0000                00123         global STK00
                      00124 
                      00125 sharebank udata_ovr 0x0010
0010                  00126 PSAVE   res 1
0011                  00127 SSAVE   res 1
0012                  00128 WSAVE   res 1
0013                  00129 STK12   res 1
0014                  00130 STK11   res 1
0015                  00131 STK10   res 1
0016                  00132 STK09   res 1
0017                  00133 STK08   res 1
0018                  00134 STK07   res 1
0019                  00135 STK06   res 1
001A                  00136 STK05   res 1
001B                  00137 STK04   res 1
001C                  00138 STK03   res 1
001D                  00139 STK02   res 1
001E                  00140 STK01   res 1
001F                  00141 STK00   res 1
                      00142 
                      00143 ;--------------------------------------------------------
                      00144 ; global definitions
                      00145 ;--------------------------------------------------------
                      00146 ;--------------------------------------------------------
                      00147 ; absolute symbol definitions
                      00148 ;--------------------------------------------------------
gpasm-1.5.0 #1284 (Oct 14 2022)      main.asm   04/30/25  13:40:47          PAGE  4


LOC    OBJECT CODE    LINE  SOURCE TEXT
  VALUE

                      00149 ;--------------------------------------------------------
                      00150 ; compiler-defined variables
                      00151 ;--------------------------------------------------------
                      00152 ;--------------------------------------------------------
                      00153 ; initialized data
                      00154 ;--------------------------------------------------------
                      00155 
                      00156 ID_main_0       code
0000                  00157 _VERSION
0000   0100           00158         retlw 0x00
0001   0100           00159         retlw 0x00
0002   0100           00160         retlw 0x00
0003   0100           00161         retlw 0x00
0004   0100           00162         retlw 0x00
0005   0100           00163         retlw 0x00
0006   0100           00164         retlw 0x00
0007   0100           00165         retlw 0x00
0008   0100           00166         retlw 0x00
0009   0100           00167         retlw 0x00
                      00168 
                      00169 
                      00170 ID_main_1       code
0000                  00171 ___str_0
0000   0148           00172         retlw 0x48 ; 'H'
0001   0143           00173         retlw 0x43 ; 'C'
0002   012D           00174         retlw 0x2d ; '-'
0003   0156           00175         retlw 0x56 ; 'V'
0004   0153           00176         retlw 0x53 ; 'S'
0005   0120           00177         retlw 0x20 ; ' '
0006   0156           00178         retlw 0x56 ; 'V'
0007   0130           00179         retlw 0x30 ; '0'
0008   0131           00180         retlw 0x31 ; '1'
0009   0100           00181         retlw 0x00 ; '.'
                      00182 ;--------------------------------------------------------
                      00183 ; overlayable items in internal ram 
                      00184 ;--------------------------------------------------------
                      00185 ;       udata_ovr
                      00186 ;--------------------------------------------------------
                      00187 ; reset vector 
                      00188 ;--------------------------------------------------------
                      00189 STARTUP code 0x0000
0000   0000           00190         nop
0001   2???           00191         goto    __sdcc_gsinit_startup
                      00192 ;--------------------------------------------------------
                      00193 ; code
                      00194 ;--------------------------------------------------------
                      00195 code_main       code
                      00196 ;***
                      00197 ;  pBlock Stats: dbName = M
                      00198 ;***
                      00199 ;has an exit
                      00200 ;functions called:
                      00201 ;   _InitPort
gpasm-1.5.0 #1284 (Oct 14 2022)      main.asm   04/30/25  13:40:47          PAGE  5


LOC    OBJECT CODE    LINE  SOURCE TEXT
  VALUE

                      00202 ;   _InitSystem
                      00203 ;   _InitRam
                      00204 ;   _ScanKey
                      00205 ;   _CountdownDisplay
                      00206 ;   _LedDisplay
                      00207 ;   _MotoDisplay
                      00208 ;   _InitPort
                      00209 ;   _InitSystem
                      00210 ;   _InitRam
                      00211 ;   _ScanKey
                      00212 ;   _CountdownDisplay
                      00213 ;   _LedDisplay
                      00214 ;   _MotoDisplay
                      00215 ;; Starting pCode block
                      00216 ;;[ICODE] main.c:16:  _entry($7) :
                      00217 ;;[ICODE] main.c:16:    proc _main [k1 lr0:0 so:0]{ ia0 a2p0 re0 rm0 nos0 ru0 dp0}{void function ( ) fix
                            ed}
                      00218 S_main__main    code
0000                  00219 _main:
                      00220 ; 2 exit points
                      00221 ;;[ICODE] main.c:18:    iTemp0 [k3 lr3:3 so:0]{ ia0 a2p0 re0 rm0 nos0 ru0 dp0}{void fixed} = call _InitP
                            ort [k2 lr0:0 so:0]{ ia0 a2p0 re0 rm0 nos0 ru0 dp0}{void function ( ) fixed}
                      00222 ;       .line   18; "main.c"    InitPort();
0000   2???           00223         CALL    _InitPort
                      00224 ;;[ICODE] main.c:19:    iTemp1 [k5 lr4:4 so:0]{ ia0 a2p0 re0 rm0 nos0 ru0 dp0}{void fixed} = call _InitS
                            ystem [k4 lr0:0 so:0]{ ia0 a2p0 re0 rm0 nos0 ru0 dp0}{void function ( ) fixed}
                      00225 ;       .line   19; "main.c"    InitSystem();
0001   2???           00226         CALL    _InitSystem
                      00227 ;;[ICODE] main.c:20:    iTemp2 [k7 lr5:5 so:0]{ ia0 a2p0 re0 rm0 nos0 ru0 dp0}{void fixed} = call _InitR
                            am [k6 lr0:0 so:0]{ ia0 a2p0 re0 rm0 nos0 ru0 dp0}{void function ( ) fixed}
                      00228 ;       .line   20; "main.c"    InitRam();
0002   2???           00229         CALL    _InitRam
                      00230 ;;[ICODE] main.c:21:    iTemp4 [k11 lr6:8 so:0]{ ia0 a2p0 re0 rm1 nos0 ru0 dp0}{volatile-unsigned-bitfie
                            ld {0,1} near* fixed}[remat] = &[_INTECONbits [k8 lr0:0 so:0]{ ia0 a2p0 re0 rm0 nos0 ru0 dp0}{volatile-s
                            truct __00000024 fixed} , 0x0 {const-unsigned-char literal}]
                      00231 ;;[ICODE] main.c:21:    *(iTemp4 [k11 lr6:8 so:0]{ ia1 a2p0 re0 rm1 nos0 ru0 dp0}{volatile-unsigned-bitf
                            ield {0,1} near* fixed}[remat]) := 0x1 {const-unsigned-char literal}
                      00232 ;       .line   21; "main.c"    T0IE = 1;               //使能TMR0溢出中断
0003   38??           00233         BSF     _INTECONbits,0
                      00234 ;;[ICODE] main.c:22:    iTemp6 [k14 lr9:11 so:0]{ ia0 a2p0 re0 rm1 nos0 ru0 dp0}{volatile-unsigned-bitfi
                            eld {7,1} near* fixed}[remat] = &[_INTECONbits [k8 lr0:0 so:0]{ ia0 a2p0 re0 rm0 nos0 ru0 dp0}{volatile-
                            struct __00000024 fixed} , 0x0 {const-unsigned-char literal}]
                      00235 ;;[ICODE] main.c:22:    *(iTemp6 [k14 lr9:11 so:0]{ ia1 a2p0 re0 rm1 nos0 ru0 dp0}{volatile-unsigned-bit
                            field {7,1} near* fixed}[remat]) := 0x1 {const-unsigned-char literal}
                      00236 ;       .line   22; "main.c"    GIE = 1;                //使能所有中断   
0004   3B??           00237         BSF     _INTECONbits,7
                      00238 ;;[ICODE] main.c:23: inline
0005   0004           00239         clrwdt
                      00240 ;;[ICODE] main.c:25:  _whilebody_0($4) :
                      00241 ;;[ICODE] main.c:27: inline
0006                  00242 _00112_DS_:
0006   0004           00243         clrwdt
                      00244 ;;[ICODE] main.c:29:    iTemp7 [k16 lr16:20 so:0]{ ia0 a2p0 re0 rm1 nos0 ru0 dp0}{unsigned-bitfield {0,1
gpasm-1.5.0 #1284 (Oct 14 2022)      main.asm   04/30/25  13:40:47          PAGE  6


LOC    OBJECT CODE    LINE  SOURCE TEXT
  VALUE

                            } near* fixed}[remat] = &[_BITS_DATA0 [k15 lr0:0 so:0]{ ia0 a2p0 re0 rm0 nos0 ru0 dp0}{struct __bits8_t 
                            fixed} , 0x0 {const-unsigned-char literal}]
                      00245 ;;[ICODE] main.c:29:    iTemp8 [k18 lr17:18 so:0]{ ia0 a2p0 re0 rm1 nos0 ru0 dp0}{unsigned-bitfield {0,1
                            } near* fixed}[remat] := iTemp7 [k16 lr16:20 so:0]{ ia0 a2p0 re0 rm1 nos0 ru0 dp0}{unsigned-bitfield {0,
                            1} near* fixed}[remat]
                      00246 ;;[ICODE] main.c:29:    iTemp9 [k19 lr18:19 so:0]{ ia0 a2p0 re0 rm0 nos0 ru0 dp0}{unsigned-bitfield {0,1
                            } fixed}[r0x1045 ] = @[iTemp8 [k18 lr17:18 so:0]{ ia1 a2p0 re0 rm1 nos0 ru0 dp0}{unsigned-bitfield {0,1}
                             near* fixed}[remat] + 0x0 {const-unsigned-char literal}]
                      00247 ;       .line   29; "main.c"    if (BIT_TIMER_10MS)
0007   30??           00248         BTFSS   _BITS_DATA0,0
0008   2???           00249         GOTO    _00110_DS_
                      00250 ;;[ICODE] main.c:29:    if iTemp9 [k19 lr18:19 so:0]{ ia0 a2p0 re0 rm0 nos0 ru0 dp0}{unsigned-bitfield {
                            0,1} fixed}[r0x1045 ] == 0 goto __iffalse_0($2)
                      00251 ;;[ICODE] main.c:31:    iTemp11 [k22 lr20:21 so:0]{ ia0 a2p0 re0 rm1 nos0 ru0 dp0}{unsigned-bitfield {0,
                            1} near* fixed}[remat] := iTemp7 [k16 lr16:20 so:0]{ ia0 a2p0 re0 rm1 nos0 ru0 dp0}{unsigned-bitfield {0
                            ,1} near* fixed}[remat]
                      00252 ;;[ICODE] main.c:31:    *(iTemp11 [k22 lr20:21 so:0]{ ia1 a2p0 re0 rm1 nos0 ru0 dp0}{unsigned-bitfield {
                            0,1} near* fixed}[remat]) := 0x0 {const-unsigned-char literal}
                      00253 ;       .line   31; "main.c"    BIT_TIMER_10MS = 0;
0009   3C??           00254         BCF     _BITS_DATA0,0
                      00255 ;;[ICODE] main.c:33:    iTemp12 [k24 lr22:22 so:0]{ ia0 a2p0 re0 rm0 nos0 ru0 dp0}{void fixed} = call _S
                            canKey [k23 lr0:0 so:0]{ ia0 a2p0 re0 rm0 nos0 ru0 dp0}{void function ( ) fixed}
                      00256 ;       .line   33; "main.c"    ScanKey();                       //按键检测     
000A   2???           00257         CALL    _ScanKey
                      00258 ;;[ICODE] main.c:34:    iTemp13 [k26 lr23:23 so:0]{ ia0 a2p0 re0 rm0 nos0 ru0 dp0}{void fixed} = call _C
                            ountdownDisplay [k25 lr0:0 so:0]{ ia0 a2p0 re0 rm0 nos0 ru0 dp0}{void function ( ) fixed}
                      00259 ;       .line   34; "main.c"    CountdownDisplay();                      //倒计时
000B   2???           00260         CALL    _CountdownDisplay
                      00261 ;;[ICODE] main.c:34:  __iffalse_0($2) :
                      00262 ;;[ICODE] main.c:38:    iTemp14 [k28 lr25:25 so:0]{ ia0 a2p0 re0 rm0 nos0 ru0 dp0}{void fixed} = call _L
                            edDisplay [k27 lr0:0 so:0]{ ia0 a2p0 re0 rm0 nos0 ru0 dp0}{void function ( ) fixed}
000C                  00263 _00110_DS_:
                      00264 ;       .line   38; "main.c"    LedDisplay();                                    //LED指示灯
000C   2???           00265         CALL    _LedDisplay
                      00266 ;;[ICODE] main.c:39:    iTemp15 [k30 lr26:26 so:0]{ ia0 a2p0 re0 rm0 nos0 ru0 dp0}{void fixed} = call _M
                            otoDisplay [k29 lr0:0 so:0]{ ia0 a2p0 re0 rm0 nos0 ru0 dp0}{void function ( ) fixed}
                      00267 ;       .line   39; "main.c"    MotoDisplay();                                   //电机控制
000D   2???           00268         CALL    _MotoDisplay
                      00269 ;;[ICODE] main.c:39:     goto _whilebody_0($4)
000E   2???           00270         GOTO    _00112_DS_
                      00271 ;;[ICODE] main.c:39:  _return($6) :
                      00272 ;;[ICODE] main.c:39:    eproc _main [k1 lr0:0 so:0]{ ia0 a2p0 re0 rm0 nos0 ru0 dp0}{void function ( ) fi
                            xed}
000F   0002           00273         RETURN  
                      00274 ; exit point of _main
                      00275 
                      00276 ;***
                      00277 ;  pBlock Stats: dbName = C
                      00278 ;***
                      00279 ;has an exit
                      00280 ;; Starting pCode block
                      00281 ;;[ICODE] main.c:14:  _entry($2) :
                      00282 ;;[ICODE] main.c:14:    proc __sdcc_gsinit_startup [k1 lr0:0 so:0]{ ia0 a2p0 re0 rm0 nos0 ru0 dp0}{void 
gpasm-1.5.0 #1284 (Oct 14 2022)      main.asm   04/30/25  13:40:47          PAGE  7


LOC    OBJECT CODE    LINE  SOURCE TEXT
  VALUE

                            function ( ) fixed}
                      00283 S_main___sdcc_gsinit_startup    code
0000                  00284 __sdcc_gsinit_startup:
                      00285 ; 2 exit points
                      00286 ;;[ICODE] main.c:14: inline
0000                  00287         pagesel _main 
                      00288 ;;[ICODE] main.c:14: inline
0000   2???           00289         goto    _main 
                      00290 ;;[ICODE] main.c:14:  _return($1) :
                      00291 ;;[ICODE] main.c:14:    eproc __sdcc_gsinit_startup [k1 lr0:0 so:0]{ ia0 a2p0 re0 rm0 nos0 ru0 dp0}{void
                             function ( ) fixed}
0001   0002           00292         RETURN  
                      00293 ; exit point of __sdcc_gsinit_startup
                      00294 
                      00295 
                      00296 ;       code size estimation:
                      00297 ;          15+    0 =    15 instructions (   30 byte)
                      00298 
                      00299         end
gpasm-1.5.0 #1284 (Oct 14 2022)      main.asm   04/30/25  13:40:47          PAGE  8


SYMBOL TABLE
  LABEL                              TYPE        VALUE         VALUE          VALUE
                                                 (hex)         (dec)          (text)

AUXR                              CONSTANT      00000059             89
BOR                               CONSTANT      00000006              6
BUZ                               CONSTANT      00000005              5
C                                 CONSTANT      00000000              0
CHARE                             CONSTANT      00000005              5
CHARF                             CONSTANT      00000005              5
CHARGE0                           CONSTANT      00000053             83
CHARGE1                           CONSTANT      00000054             84
CHARGEN                           CONSTANT      00000007              7
CMPCR                             CONSTANT      00000051             81
CMPEN                             CONSTANT      00000000              0
CMPF                              CONSTANT      00000003              3
CMPIE                             CONSTANT      00000002              2
CMPIES                            CONSTANT      00000001              1
CMPOF                             CONSTANT      00000005              5
CMPWK                             CONSTANT      00000003              3
CPNIS0                            CONSTANT      00000001              1
CPNIS1                            CONSTANT      00000002              2
CPNIS2                            CONSTANT      00000003              3
CPNIS3                            CONSTANT      00000004              4
CPPIS                             CONSTANT      00000000              0
DC                                CONSTANT      00000001              1
EIS                               CONSTANT      00000006              6
F                                 CONSTANT      00000001              1
FSR                               CONSTANT      00000004              4
GIE                               CONSTANT      00000007              7
GP0                               CONSTANT      00000005              5
GP1                               CONSTANT      00000006              6
GPR                               CONSTANT      00000007              7
HIRCTRM                           CONSTANT      0000005B             91
HXEN                              CONSTANT      00000001              1
INDF                              CONSTANT      00000000              0
INTE                              CONSTANT      00000002              2
INTECON                           CONSTANT      0000000E             14
INTEDG                            CONSTANT      00000006              6
INTF                              CONSTANT      00000002              2
INTFLAG                           CONSTANT      0000000F             15
IOCB                              CONSTANT      00000009              9
IOCB0                             CONSTANT      00000000              0
IOCB1                             CONSTANT      00000001              1
IOCB2                             CONSTANT      00000002              2
IOCB3                             CONSTANT      00000003              3
IOCB4                             CONSTANT      00000004              4
IOCB5                             CONSTANT      00000005              5
IOCB6                             CONSTANT      00000006              6
IOCB7                             CONSTANT      00000007              7
LVDM                              CONSTANT      00000004              4
MODSEL                            CONSTANT      00000007              7
ODB0                              CONSTANT      00000000              0
ODB1                              CONSTANT      00000001              1
ODB2                              CONSTANT      00000002              2
ODB3                              CONSTANT      00000003              3
gpasm-1.5.0 #1284 (Oct 14 2022)      main.asm   04/30/25  13:40:47          PAGE  9


SYMBOL TABLE
  LABEL                              TYPE        VALUE         VALUE          VALUE
                                                 (hex)         (dec)          (text)

ODB4                              CONSTANT      00000004              4
ODB5                              CONSTANT      00000005              5
ODB6                              CONSTANT      00000006              6
ODB7                              CONSTANT      00000007              7
ODCON                             CONSTANT      0000000C             12
OPTION                            CONSTANT      00000041             65
OSCCON                            CONSTANT      00000050             80
PBIE                              CONSTANT      00000001              1
PBIF                              CONSTANT      00000001              1
PCL                               CONSTANT      00000002              2
PCLATH                            CONSTANT      0000000A             10
PCON                              CONSTANT      00000008              8
PD                                CONSTANT      00000003              3
PDB0                              CONSTANT      00000004              4
PDB1                              CONSTANT      00000005              5
PDB2                              CONSTANT      00000006              6
PDB3                              CONSTANT      00000003              3
PDB4                              CONSTANT      00000004              4
PDB5                              CONSTANT      00000005              5
PDB6                              CONSTANT      00000006              6
PDB7                              CONSTANT      00000007              7
PDCON                             CONSTANT      0000000B             11
PDCON1                            CONSTANT      00000052             82
PHB0                              CONSTANT      00000000              0
PHB1                              CONSTANT      00000001              1
PHB2                              CONSTANT      00000002              2
PHB3                              CONSTANT      00000003              3
PHB4                              CONSTANT      00000004              4
PHB5                              CONSTANT      00000005              5
PHB6                              CONSTANT      00000006              6
PHB7                              CONSTANT      00000007              7
PHCON                             CONSTANT      0000000D             13
POR                               CONSTANT      00000007              7
PORTB                             CONSTANT      00000006              6
PORTB0                            CONSTANT      00000000              0
PORTB1                            CONSTANT      00000001              1
PORTB2                            CONSTANT      00000002              2
PORTB3                            CONSTANT      00000003              3
PORTB4                            CONSTANT      00000004              4
PORTB5                            CONSTANT      00000005              5
PORTB6                            CONSTANT      00000006              6
PORTB7                            CONSTANT      00000007              7
PS0                               CONSTANT      00000000              0
PS1                               CONSTANT      00000001              1
PS2                               CONSTANT      00000002              2
PSA                               CONSTANT      00000003              3
PSAVE                             GLOBAL        00000010             16
PWM0E                             CONSTANT      00000006              6
PWM0OE                            CONSTANT      00000007              7
PWM0P                             CONSTANT      0000004F             79
PWM1E                             CONSTANT      00000001              1
PWM1OE                            CONSTANT      00000006              6
gpasm-1.5.0 #1284 (Oct 14 2022)      main.asm   04/30/25  13:40:47          PAGE 10


SYMBOL TABLE
  LABEL                              TYPE        VALUE         VALUE          VALUE
                                                 (hex)         (dec)          (text)

PWM1P                             CONSTANT      00000049             73
PWM2E                             CONSTANT      00000000              0
PWM2OE                            CONSTANT      00000005              5
PWM2P                             CONSTANT      0000004A             74
PWM3CT                            CONSTANT      00000001              1
PWMCK                             CONSTANT      00000004              4
PWMCON                            CONSTANT      00000048             72
PWMCT                             CONSTANT      00000000              0
PWMINV                            CONSTANT      00000002              2
PWMMD                             CONSTANT      00000003              3
RAMP                              CONSTANT      00000055             85
RCTRMEN                           CONSTANT      00000002              2
RST                               CONSTANT      00000007              7
S0                                CONSTANT      00000000              0
S1                                CONSTANT      00000001              1
S2                                CONSTANT      00000002              2
S3                                CONSTANT      00000003              3
S4                                CONSTANT      00000004              4
S5                                CONSTANT      00000005              5
S6                                CONSTANT      00000006              6
S7                                CONSTANT      00000007              7
S8                                CONSTANT      00000000              0
S9                                CONSTANT      00000001              1
SCS                               CONSTANT      00000000              0
SINK_SEL                          CONSTANT      00000006              6
SLOP0                             CONSTANT      00000000              0
SLOP1                             CONSTANT      00000001              1
SLOP2                             CONSTANT      00000002              2
SSAVE                             GLOBAL        00000011             17
STATUS                            CONSTANT      00000003              3
STK00                             GLOBAL        0000001F             31
STK01                             GLOBAL        0000001E             30
STK02                             GLOBAL        0000001D             29
STK03                             GLOBAL        0000001C             28
STK04                             GLOBAL        0000001B             27
STK05                             GLOBAL        0000001A             26
STK06                             GLOBAL        00000019             25
STK07                             GLOBAL        00000018             24
STK08                             GLOBAL        00000017             23
STK09                             GLOBAL        00000016             22
STK10                             GLOBAL        00000015             21
STK11                             GLOBAL        00000014             20
STK12                             GLOBAL        00000013             19
T0                                CONSTANT      00000001              1
T0CK                              CONSTANT      00000007              7
T0CR                              CONSTANT      0000004B             75
T0CS                              CONSTANT      00000005              5
T0IE                              CONSTANT      00000000              0
T0IF                              CONSTANT      00000000              0
T0OSCEN                           CONSTANT      00000007              7
T0SE                              CONSTANT      00000004              4
T1                                CONSTANT      0000004D             77
gpasm-1.5.0 #1284 (Oct 14 2022)      main.asm   04/30/25  13:40:47          PAGE 11


SYMBOL TABLE
  LABEL                              TYPE        VALUE         VALUE          VALUE
                                                 (hex)         (dec)          (text)

T1CK0                             CONSTANT      00000003              3
T1CK1                             CONSTANT      00000004              4
T1CON                             CONSTANT      0000004C             76
T1EN                              CONSTANT      00000007              7
T1IE                              CONSTANT      00000001              1
T1IF                              CONSTANT      00000000              0
T1LOAD                            CONSTANT      0000004E             78
T1PR0                             CONSTANT      00000000              0
T1PR1                             CONSTANT      00000001              1
T1PR2                             CONSTANT      00000002              2
TEMPEN                            CONSTANT      00000006              6
TMPE                              CONSTANT      00000004              4
TMPF                              CONSTANT      00000004              4
TO                                CONSTANT      00000004              4
TRISB                             CONSTANT      00000046             70
TRISB0                            CONSTANT      00000000              0
TRISB1                            CONSTANT      00000001              1
TRISB2                            CONSTANT      00000002              2
TRISB3                            CONSTANT      00000003              3
TRISB4                            CONSTANT      00000004              4
TRISB5                            CONSTANT      00000005              5
TRISB6                            CONSTANT      00000006              6
TRISB7                            CONSTANT      00000007              7
W                                 CONSTANT      00000000              0
WDTEN                             CONSTANT      00000007              7
WSAVE                             GLOBAL        00000012             18
Z                                 CONSTANT      00000002              2
_00110_DS_                        ADDRESS       0000000C             12
_00112_DS_                        ADDRESS       00000006              6
_AUXR                             EXTERNAL      00000000              0
_AUXRbits                         EXTERNAL      00000000              0
_BITS_DATA0                       EXTERNAL      00000000              0
_BITS_DATA1                       EXTERNAL      00000000              0
_CHARGE0                          EXTERNAL      00000000              0
_CHARGE0bits                      EXTERNAL      00000000              0
_CHARGE1                          EXTERNAL      00000000              0
_CHARGE1bits                      EXTERNAL      00000000              0
_CMPCR                            EXTERNAL      00000000              0
_CMPCRbits                        EXTERNAL      00000000              0
_CONFIG                           CONSTANT      00002000           8192
_CP_OFF                           CONSTANT      00003FFF          16383
_CP_ON                            CONSTANT      00003FEF          16367
_CheckLvd                         EXTERNAL      00000000              0
_CheckSleep                       EXTERNAL      00000000              0
_CheckTemp                        EXTERNAL      00000000              0
_ConfigureLvd                     EXTERNAL      00000000              0
_ControlFlash                     EXTERNAL      00000000              0
_ControlLevel                     EXTERNAL      00000000              0
_ControlLevelHigh                 EXTERNAL      00000000              0
_ControlLevelLow                  EXTERNAL      00000000              0
_ControlSos                       EXTERNAL      00000000              0
_CountdownDisplay                 EXTERNAL      00000000              0
gpasm-1.5.0 #1284 (Oct 14 2022)      main.asm   04/30/25  13:40:47          PAGE 12


SYMBOL TABLE
  LABEL                              TYPE        VALUE         VALUE          VALUE
                                                 (hex)         (dec)          (text)

_FOSC_HS                          CONSTANT      00003FFD          16381
_FOSC_INTRCIO                     CONSTANT      00003FFC          16380
_FOSC_LP                          CONSTANT      00003CFF          15615
_FOSC_XT                          CONSTANT      00003DFF          15871
_FSR                              EXTERNAL      00000000              0
_GPR                              EXTERNAL      00000000              0
_HIRCTRM                          EXTERNAL      00000000              0
_HS_OSC                           CONSTANT      00003FFD          16381
_INDF                             EXTERNAL      00000000              0
_INTECON                          EXTERNAL      00000000              0
_INTECONbits                      EXTERNAL      00000000              0
_INTFLAG                          EXTERNAL      00000000              0
_INTFLAGbits                      EXTERNAL      00000000              0
_INTOSCIO                         CONSTANT      00003FFC          16380
_INTRC_OSC_NOCLKOUT               CONSTANT      00003FFC          16380
_IOCB                             EXTERNAL      00000000              0
_IOCBbits                         EXTERNAL      00000000              0
_InitPort                         EXTERNAL      00000000              0
_InitPwm                          EXTERNAL      00000000              0
_InitRam                          EXTERNAL      00000000              0
_InitSystem                       EXTERNAL      00000000              0
_LP_OSC                           CONSTANT      00003CFF          15615
_LedDisplay                       EXTERNAL      00000000              0
_LedOff                           EXTERNAL      00000000              0
_LedOn                            EXTERNAL      00000000              0
_LedSwitch                        EXTERNAL      00000000              0
_MaxLight                         EXTERNAL      00000000              0
_MotoDisplay                      EXTERNAL      00000000              0
_MotoSwitch                       EXTERNAL      00000000              0
_ODCON                            EXTERNAL      00000000              0
_ODCONbits                        EXTERNAL      00000000              0
_OPTION                           EXTERNAL      00000000              0
_OPTIONbits                       EXTERNAL      00000000              0
_OSCCON                           EXTERNAL      00000000              0
_OSCCONbits                       EXTERNAL      00000000              0
_PCL                              EXTERNAL      00000000              0
_PCLATH                           EXTERNAL      00000000              0
_PCON                             EXTERNAL      00000000              0
_PCONbits                         EXTERNAL      00000000              0
_PDCON                            EXTERNAL      00000000              0
_PDCON1                           EXTERNAL      00000000              0
_PDCON1bits                       EXTERNAL      00000000              0
_PDCONbits                        EXTERNAL      00000000              0
_PHCON                            EXTERNAL      00000000              0
_PHCONbits                        EXTERNAL      00000000              0
_PORTB                            EXTERNAL      00000000              0
_PORTBbits                        EXTERNAL      00000000              0
_PWM0P                            EXTERNAL      00000000              0
_PWM1P                            EXTERNAL      00000000              0
_PWM2P                            EXTERNAL      00000000              0
_PWMCON                           EXTERNAL      00000000              0
_PWMCONbits                       EXTERNAL      00000000              0
gpasm-1.5.0 #1284 (Oct 14 2022)      main.asm   04/30/25  13:40:47          PAGE 13


SYMBOL TABLE
  LABEL                              TYPE        VALUE         VALUE          VALUE
                                                 (hex)         (dec)          (text)

_PowOff                           EXTERNAL      00000000              0
_PowOn                            EXTERNAL      00000000              0
_RAMP                             EXTERNAL      00000000              0
_RAMPbits                         EXTERNAL      00000000              0
_STATUS                           EXTERNAL      00000000              0
_STATUSbits                       EXTERNAL      00000000              0
_ScanKey                          EXTERNAL      00000000              0
_SleepCount                       EXTERNAL      00000000              0
_SleepFlag                        EXTERNAL      00000000              0
_T0                               EXTERNAL      00000000              0
_T0CR                             EXTERNAL      00000000              0
_T0CRbits                         EXTERNAL      00000000              0
_T1                               EXTERNAL      00000000              0
_T1CON                            EXTERNAL      00000000              0
_T1CONbits                        EXTERNAL      00000000              0
_T1LOAD                           EXTERNAL      00000000              0
_TRISB                            EXTERNAL      00000000              0
_TRISBbits                        EXTERNAL      00000000              0
_TempCount                        EXTERNAL      00000000              0
_TempFlag                         EXTERNAL      00000000              0
_VERSION                          GLOBAL        00000000              0
_WDTE_OFF                         CONSTANT      00003FFB          16379
_WDTE_ON                          CONSTANT      00003FFF          16383
_WDT_OFF                          CONSTANT      00003FFB          16379
_WDT_ON                           CONSTANT      00003FFF          16383
_Work                             EXTERNAL      00000000              0
_XT_OSC                           CONSTANT      00003DFF          15871
__14_BIT                          CONSTANT      00000001              1
__18P018A0                        CONSTANT      00000001              1
__ACTIVE_BANK_ADDR                VARIABLE      FFFFFFFF             -1
__ACTIVE_PAGE_ADDR                VARIABLE      FFFFFFFF             -1
__ASSUMED_BANK_ADDR               VARIABLE      00000000              0
__BANK_0                          CONSTANT      00000000              0
__BANK_BITS                       CONSTANT      00000080            128
__BANK_FIRST                      CONSTANT      00000000              0
__BANK_INV                        CONSTANT      FFFFFFFF             -1
__BANK_LAST                       CONSTANT      00000000              0
__BANK_MASK                       CONSTANT      0000007F            127
__BANK_SHIFT                      CONSTANT      00000007              7
__BANK_SIZE                       CONSTANT      00000080            128
__CODE_END                        CONSTANT      000003FF           1023
__CODE_START                      CONSTANT      00000000              0
__CONFIG_END                      CONSTANT      00002003           8195
__CONFIG_START                    CONSTANT      00002000           8192
__GPUTILS_SVN_VERSION             CONSTANT      00000504           1284
__GPUTILS_VERSION_MAJOR           CONSTANT      00000001              1
__GPUTILS_VERSION_MICRO           CONSTANT      00000000              0
__GPUTILS_VERSION_MINOR           CONSTANT      00000005              5
__IDLOCS_END                      CONSTANT      00002005           8197
__IDLOCS_START                    CONSTANT      00002004           8196
__NUM_BANKS                       CONSTANT      00000001              1
__PAGE_BITS                       CONSTANT      00001800           6144
gpasm-1.5.0 #1284 (Oct 14 2022)      main.asm   04/30/25  13:40:47          PAGE 14


SYMBOL TABLE
  LABEL                              TYPE        VALUE         VALUE          VALUE
                                                 (hex)         (dec)          (text)

__PAGE_INV                        CONSTANT      FFFFFFFF             -1
__PAGE_MASK                       CONSTANT      00000000              0
__PAGE_SHIFT                      CONSTANT      0000000B             11
__PAGE_SIZE                       CONSTANT      00000000              0
__VECTOR_INT                      CONSTANT      00000008              8
__VECTOR_RESET                    CONSTANT      00000000              0
__WHILE_LOOP_COUNT_MAX            CONSTANT      000000FF            255
___str_0                          ADDRESS       00000000              0
__sdcc_gsinit_startup             GLOBAL        00000000              0
_g_ucTimer10msCount               EXTERNAL      00000000              0
_g_ucTimerWorkCount               EXTERNAL      00000000              0
_main                             GLOBAL        00000000              0

Errors   :     0
Warnings :     0 reported,     0 suppressed
Messages :     1 reported,     0 suppressed

